	.text
	.syntax unified
	.eabi_attribute	67, "2.09"	@ Tag_conformance
	.cpu	cortex-m7
	.eabi_attribute	6, 13	@ Tag_CPU_arch
	.eabi_attribute	7, 77	@ Tag_CPU_arch_profile
	.eabi_attribute	8, 0	@ Tag_ARM_ISA_use
	.eabi_attribute	9, 2	@ Tag_THUMB_ISA_use
	.fpu	fpv5-d16
	.eabi_attribute	36, 1	@ Tag_FP_HP_extension
	.eabi_attribute	34, 1	@ Tag_CPU_unaligned_access
	.eabi_attribute	15, 2	@ Tag_ABI_PCS_RW_data
	.eabi_attribute	16, 1	@ Tag_ABI_PCS_RO_data
	.eabi_attribute	17, 1	@ Tag_ABI_PCS_GOT_use
	.eabi_attribute	20, 2	@ Tag_ABI_FP_denormal
	.eabi_attribute	21, 0	@ Tag_ABI_FP_exceptions
	.eabi_attribute	23, 1	@ Tag_ABI_FP_number_model
	.eabi_attribute	24, 1	@ Tag_ABI_align_needed
	.eabi_attribute	25, 1	@ Tag_ABI_align_preserved
	.eabi_attribute	28, 1	@ Tag_ABI_VFP_args
	.eabi_attribute	38, 1	@ Tag_ABI_FP_16bit_format
	.eabi_attribute	18, 2	@ Tag_ABI_PCS_wchar_t
	.eabi_attribute	26, 1	@ Tag_ABI_enum_size
	.eabi_attribute	14, 1	@ Tag_ABI_PCS_R9_use
	.file	"Loader_Src.c"
	.file	1 "F:\\3.git\\1.Github\\ExFlash_Algorithm\\embedfire\\Algorithm_QSPI\\STLDR\\MDK-ARM" "../Core/Src/Loader_Src.c"
	.file	2 "F:\\3.git\\1.Github\\ExFlash_Algorithm\\embedfire\\Algorithm_QSPI\\STLDR\\MDK-ARM" "../Drivers/STM32H7xx_HAL_Driver/Inc/stm32h7xx_hal_def.h"
	.file	3 "F:\\3.git\\1.Github\\ExFlash_Algorithm\\embedfire\\Algorithm_QSPI\\STLDR\\MDK-ARM" "../Drivers/STM32H7xx_HAL_Driver/Inc\\stm32h7xx_hal_mdma.h"
	.file	4 "F:\\3.git\\1.Github\\ExFlash_Algorithm\\embedfire\\Algorithm_QSPI\\STLDR\\MDK-ARM" "../Drivers/STM32H7xx_HAL_Driver/Inc\\stm32h7xx_hal_qspi.h"
	.file	5 "F:\\3.git\\1.Github\\ExFlash_Algorithm\\embedfire\\Algorithm_QSPI\\STLDR\\MDK-ARM" "../Drivers/STM32H7xx_HAL_Driver/Inc\\stm32h7xx_hal_dma.h"
	.file	6 "D:\\Program\\Keil\\Keil_v5\\ARM\\ARMCLANG\\Bin\\..\\include" "stdint.h"
	.file	7 "F:\\3.git\\1.Github\\ExFlash_Algorithm\\embedfire\\Algorithm_QSPI\\STLDR\\MDK-ARM" "../Drivers/CMSIS/Device/ST/STM32H7xx/Include/stm32h750xx.h"
	.hidden	Init                            @ -- Begin function Init
	.globl	Init
	.p2align	3
	.type	Init,%function
	.code	16                              @ @Init
	.thumb_func
Init:
.Lfunc_begin0:
	.loc	1 22 0                          @ ../Core/Src/Loader_Src.c:22:0
	.fnstart
	.cfi_sections .debug_frame
	.cfi_startproc
@ %bb.0:
	.save	{r7, lr}
	push	{r7, lr}
	.cfi_def_cfa_offset 8
	.cfi_offset lr, -4
	.cfi_offset r7, -8
	.pad	#8
	sub	sp, #8
	.cfi_def_cfa_offset 16
.Ltmp0:
	.loc	1 23 2 prologue_end             @ ../Core/Src/Loader_Src.c:23:2
	@APP
	mrs	r0, primask
	cpsid i

	@NO_APP
	.loc	1 24 2                          @ ../Core/Src/Loader_Src.c:24:2
	bl	SystemInit
.Ltmp1:
	.loc	1 26 2                          @ ../Core/Src/Loader_Src.c:26:2
	bl	HAL_DeInit
.Ltmp2:
	.loc	1 29 5                          @ ../Core/Src/Loader_Src.c:29:5
	bl	HAL_Init
.Ltmp3:
	.loc	1 32 5                          @ ../Core/Src/Loader_Src.c:32:5
	bl	SystemClock_Config
.Ltmp4:
	.loc	1 0 5 is_stmt 0                 @ ../Core/Src/Loader_Src.c:0:5
	movs	r1, #0
.Ltmp5:
	.loc	1 36 27 is_stmt 1               @ ../Core/Src/Loader_Src.c:36:27
	strb.w	r1, [sp, #7]
.Ltmp6:
	@DEBUG_VALUE: Init:pqspi <- undef
	.loc	1 36 34 is_stmt 0               @ ../Core/Src/Loader_Src.c:36:34
	ldrb.w	r0, [sp, #7]
.Ltmp7:
	.loc	1 36 5                          @ ../Core/Src/Loader_Src.c:36:5
	cmp	r0, #75
	movw	r0, :lower16:hqspi(sbrel)
	movt	r0, :upper16:hqspi(sbrel)
	bhi	.LBB0_5
.Ltmp8:
@ %bb.1:
	.loc	1 0 5                           @ ../Core/Src/Loader_Src.c:0:5
	add.w	r2, r9, r0
.LBB0_2:                                @ =>This Inner Loop Header: Depth=1
.Ltmp9:
	@DEBUG_VALUE: Init:pqspi <- [DW_OP_plus_uconst 1, DW_OP_stack_value] $r2
	.loc	1 38 18 is_stmt 1               @ ../Core/Src/Loader_Src.c:38:18
	strb	r1, [r2]
.Ltmp10:
	.loc	1 36 67                         @ ../Core/Src/Loader_Src.c:36:67
	ldrb.w	r3, [sp, #7]
	adds	r3, #1
	strb.w	r3, [sp, #7]
	.loc	1 36 34 is_stmt 0               @ ../Core/Src/Loader_Src.c:36:34
	ldrb.w	r3, [sp, #7]
.Ltmp11:
	.loc	1 36 5                          @ ../Core/Src/Loader_Src.c:36:5
	cmp	r3, #75
	bhi	.LBB0_5
.Ltmp12:
@ %bb.3:                                @   in Loop: Header=BB0_2 Depth=1
	@DEBUG_VALUE: Init:pqspi <- [DW_OP_plus_uconst 1, DW_OP_stack_value] $r2
	@DEBUG_VALUE: Init:pqspi <- [DW_OP_plus_uconst 1, DW_OP_stack_value] $r2
	.loc	1 38 18 is_stmt 1               @ ../Core/Src/Loader_Src.c:38:18
	strb	r1, [r2, #1]
.Ltmp13:
	.loc	1 36 67                         @ ../Core/Src/Loader_Src.c:36:67
	ldrb.w	r3, [sp, #7]
	adds	r3, #1
	strb.w	r3, [sp, #7]
	.loc	1 36 34 is_stmt 0               @ ../Core/Src/Loader_Src.c:36:34
	ldrb.w	r3, [sp, #7]
.Ltmp14:
	.loc	1 36 5                          @ ../Core/Src/Loader_Src.c:36:5
	cmp	r3, #75
.Ltmp15:
	@DEBUG_VALUE: Init:pqspi <- [DW_OP_plus_uconst 1, DW_OP_plus_uconst 1, DW_OP_stack_value] $r2
	.loc	1 38 18 is_stmt 1               @ ../Core/Src/Loader_Src.c:38:18
	itttt	ls
	strbls	r1, [r2, #2]
.Ltmp16:
	.loc	1 36 67                         @ ../Core/Src/Loader_Src.c:36:67
	ldrbls.w	r3, [sp, #7]
	addls	r3, #1
	strbls.w	r3, [sp, #7]
	.loc	1 36 34 is_stmt 0               @ ../Core/Src/Loader_Src.c:36:34
	itt	ls
	ldrbls.w	r3, [sp, #7]
.Ltmp17:
	.loc	1 36 5                          @ ../Core/Src/Loader_Src.c:36:5
	cmpls	r3, #75
	bhi	.LBB0_5
.Ltmp18:
@ %bb.4:                                @   in Loop: Header=BB0_2 Depth=1
	@DEBUG_VALUE: Init:pqspi <- [DW_OP_plus_uconst 1, DW_OP_plus_uconst 1, DW_OP_stack_value] $r2
	@DEBUG_VALUE: Init:pqspi <- [DW_OP_plus_uconst 4, DW_OP_stack_value] $r2
	.loc	1 38 18 is_stmt 1               @ ../Core/Src/Loader_Src.c:38:18
	strb	r1, [r2, #3]
.Ltmp19:
	.loc	1 36 5                          @ ../Core/Src/Loader_Src.c:36:5
	adds	r2, #4
.Ltmp20:
	.loc	1 36 67 is_stmt 0               @ ../Core/Src/Loader_Src.c:36:67
	ldrb.w	r3, [sp, #7]
	adds	r3, #1
	strb.w	r3, [sp, #7]
	.loc	1 36 34                         @ ../Core/Src/Loader_Src.c:36:34
	ldrb.w	r3, [sp, #7]
.Ltmp21:
	.loc	1 36 5                          @ ../Core/Src/Loader_Src.c:36:5
	cmp	r3, #76
	blo	.LBB0_2
.Ltmp22:
.LBB0_5:
	.loc	1 0 5                           @ ../Core/Src/Loader_Src.c:0:5
	movw	r1, #20480
	movt	r1, #20992
	.loc	1 40 20 is_stmt 1               @ ../Core/Src/Loader_Src.c:40:20
	str.w	r1, [r9, r0]
	add	r0, r9
	.loc	1 41 5                          @ ../Core/Src/Loader_Src.c:41:5
	bl	HAL_QSPI_DeInit
.Ltmp23:
	.loc	1 44 5                          @ ../Core/Src/Loader_Src.c:44:5
	bl	MX_GPIO_Init
.Ltmp24:
	.loc	1 45 2                          @ ../Core/Src/Loader_Src.c:45:2
	bl	MX_QUADSPI_Init
.Ltmp25:
	.loc	1 46 2                          @ ../Core/Src/Loader_Src.c:46:2
	bl	MX_USART1_UART_Init
.Ltmp26:
	.loc	1 48 2                          @ ../Core/Src/Loader_Src.c:48:2
	bl	W25QXX_Init
.Ltmp27:
	.loc	1 50 2                          @ ../Core/Src/Loader_Src.c:50:2
	movw	r0, :lower16:huart1(sbrel)
	adr	r1, .LCPI0_0
	movt	r0, :upper16:huart1(sbrel)
	movs	r2, #6
	add	r0, r9
	movs	r3, #100
	bl	HAL_UART_Transmit
.Ltmp28:
	.loc	1 52 2                          @ ../Core/Src/Loader_Src.c:52:2
	movs	r0, #1
	add	sp, #8
	pop	{r7, pc}
.Ltmp29:
	.p2align	2
@ %bb.6:
	.loc	1 0 2 is_stmt 0                 @ ../Core/Src/Loader_Src.c:0:2
.LCPI0_0:
.L.str:
	.asciz	"init\r\n\000"
.Lfunc_end0:
	.size	Init, .Lfunc_end0-Init
	.cfi_endproc
	.cantunwind
	.fnend
                                        @ -- End function
	.hidden	Read                            @ -- Begin function Read
	.globl	Read
	.p2align	3
	.type	Read,%function
	.code	16                              @ @Read
	.thumb_func
Read:
.Lfunc_begin1:
	.loc	1 69 0 is_stmt 1                @ ../Core/Src/Loader_Src.c:69:0
	.fnstart
	.cfi_startproc
@ %bb.0:
	@DEBUG_VALUE: Read:Address <- $r0
	@DEBUG_VALUE: Read:Size <- $r1
	@DEBUG_VALUE: Read:buffer <- $r2
	.save	{r4, r5, r6, lr}
	push	{r4, r5, r6, lr}
	.cfi_def_cfa_offset 16
	.cfi_offset lr, -4
	.cfi_offset r6, -8
	.cfi_offset r5, -12
	.cfi_offset r4, -16
	.pad	#8
	sub	sp, #8
	.cfi_def_cfa_offset 24
	mov	r4, r2
.Ltmp30:
	@DEBUG_VALUE: Read:buffer <- $r4
	@DEBUG_VALUE: Read:buffer <- $r4
	mov	r5, r1
.Ltmp31:
	@DEBUG_VALUE: Read:Size <- $r5
	@DEBUG_VALUE: Read:Size <- $r5
	mov	r6, r0
.Ltmp32:
	@DEBUG_VALUE: Read:Address <- $r6
	@DEBUG_VALUE: Read:Address <- $r6
	.loc	1 71 2 prologue_end             @ ../Core/Src/Loader_Src.c:71:2
	bl	W25QXX_MemoryMapped
.Ltmp33:
	.loc	1 0 2 is_stmt 0                 @ ../Core/Src/Loader_Src.c:0:2
	movs	r0, #0
.Ltmp34:
	.loc	1 72 20 is_stmt 1               @ ../Core/Src/Loader_Src.c:72:20
	str	r0, [sp, #4]
.Ltmp35:
	@DEBUG_VALUE: Read:buffer <- undef
	@DEBUG_VALUE: Read:Address <- undef
	.loc	1 72 27 is_stmt 0               @ ../Core/Src/Loader_Src.c:72:27
	ldr	r0, [sp, #4]
.Ltmp36:
	.loc	1 72 2                          @ ../Core/Src/Loader_Src.c:72:2
	cmp	r0, r5
	bhs	.LBB1_4
.Ltmp37:
.LBB1_1:                                @ =>This Inner Loop Header: Depth=1
	@DEBUG_VALUE: Read:Size <- $r5
	@DEBUG_VALUE: Read:Address <- $r6
	@DEBUG_VALUE: Read:buffer <- $r4
	.loc	1 74 30 is_stmt 1               @ ../Core/Src/Loader_Src.c:74:30
	ldrb	r0, [r6]
	.loc	1 74 28 is_stmt 0               @ ../Core/Src/Loader_Src.c:74:28
	strb	r0, [r4]
.Ltmp38:
	@DEBUG_VALUE: Read:buffer <- [DW_OP_plus_uconst 1, DW_OP_stack_value] $r4
	@DEBUG_VALUE: Read:Address <- [DW_OP_plus_uconst 1, DW_OP_stack_value] $r6
	.loc	1 72 38 is_stmt 1               @ ../Core/Src/Loader_Src.c:72:38
	ldr	r0, [sp, #4]
	adds	r0, #1
	str	r0, [sp, #4]
	.loc	1 72 27 is_stmt 0               @ ../Core/Src/Loader_Src.c:72:27
	ldr	r0, [sp, #4]
.Ltmp39:
	.loc	1 72 2                          @ ../Core/Src/Loader_Src.c:72:2
	cmp	r0, r5
	bhs	.LBB1_4
.Ltmp40:
@ %bb.2:                                @   in Loop: Header=BB1_1 Depth=1
	@DEBUG_VALUE: Read:Address <- [DW_OP_plus_uconst 1, DW_OP_stack_value] $r6
	@DEBUG_VALUE: Read:buffer <- [DW_OP_plus_uconst 1, DW_OP_stack_value] $r4
	@DEBUG_VALUE: Read:Size <- $r5
	@DEBUG_VALUE: Read:Address <- [DW_OP_plus_uconst 1, DW_OP_stack_value] $r6
	@DEBUG_VALUE: Read:buffer <- [DW_OP_plus_uconst 1, DW_OP_stack_value] $r4
	.loc	1 74 30 is_stmt 1               @ ../Core/Src/Loader_Src.c:74:30
	ldrb	r0, [r6, #1]!
.Ltmp41:
	@DEBUG_VALUE: Read:Address <- $r6
	.loc	1 74 28 is_stmt 0               @ ../Core/Src/Loader_Src.c:74:28
	strb	r0, [r4, #1]
.Ltmp42:
	@DEBUG_VALUE: Read:buffer <- [DW_OP_plus_uconst 1, DW_OP_plus_uconst 1, DW_OP_stack_value] $r4
	@DEBUG_VALUE: Read:Address <- [DW_OP_plus_uconst 1, DW_OP_stack_value] $r6
	.loc	1 72 38 is_stmt 1               @ ../Core/Src/Loader_Src.c:72:38
	ldr	r0, [sp, #4]
	adds	r0, #1
	str	r0, [sp, #4]
	.loc	1 72 27 is_stmt 0               @ ../Core/Src/Loader_Src.c:72:27
	ldr	r0, [sp, #4]
.Ltmp43:
	.loc	1 72 2                          @ ../Core/Src/Loader_Src.c:72:2
	cmp	r0, r5
	@DEBUG_VALUE: Read:Address <- [DW_OP_plus_uconst 1, DW_OP_stack_value] $r6
.Ltmp44:
	@DEBUG_VALUE: Read:buffer <- [DW_OP_plus_uconst 2, DW_OP_stack_value] $r4
	.loc	1 74 30 is_stmt 1               @ ../Core/Src/Loader_Src.c:74:30
	itttt	lo
	ldrblo	r0, [r6, #1]!
.Ltmp45:
	.loc	1 74 28 is_stmt 0               @ ../Core/Src/Loader_Src.c:74:28
	strblo	r0, [r4, #2]
.Ltmp46:
	@DEBUG_VALUE: Read:buffer <- [DW_OP_plus_uconst 2, DW_OP_plus_uconst 1, DW_OP_stack_value] $r4
	@DEBUG_VALUE: Read:Address <- [DW_OP_plus_uconst 2, DW_OP_plus_uconst 1, DW_OP_stack_value] $r6
	.loc	1 72 38 is_stmt 1               @ ../Core/Src/Loader_Src.c:72:38
	ldrlo	r0, [sp, #4]
	addlo	r0, #1
	ittt	lo
	strlo	r0, [sp, #4]
	.loc	1 72 27 is_stmt 0               @ ../Core/Src/Loader_Src.c:72:27
	ldrlo	r0, [sp, #4]
.Ltmp47:
	.loc	1 72 2                          @ ../Core/Src/Loader_Src.c:72:2
	cmplo	r0, r5
	bhs	.LBB1_4
.Ltmp48:
@ %bb.3:                                @   in Loop: Header=BB1_1 Depth=1
	@DEBUG_VALUE: Read:Address <- [DW_OP_plus_uconst 2, DW_OP_plus_uconst 1, DW_OP_stack_value] $r6
	@DEBUG_VALUE: Read:buffer <- [DW_OP_plus_uconst 2, DW_OP_plus_uconst 1, DW_OP_stack_value] $r4
	@DEBUG_VALUE: Read:Size <- $r5
	@DEBUG_VALUE: Read:Address <- [DW_OP_plus_uconst 2, DW_OP_plus_uconst 1, DW_OP_stack_value] $r6
	@DEBUG_VALUE: Read:buffer <- [DW_OP_plus_uconst 3, DW_OP_stack_value] $r4
	.loc	1 74 30 is_stmt 1               @ ../Core/Src/Loader_Src.c:74:30
	ldrb	r0, [r6, #1]
.Ltmp49:
	.loc	1 72 2                          @ ../Core/Src/Loader_Src.c:72:2
	adds	r6, #2
.Ltmp50:
	.loc	1 74 28                         @ ../Core/Src/Loader_Src.c:74:28
	strb	r0, [r4, #3]
.Ltmp51:
	@DEBUG_VALUE: Read:buffer <- [DW_OP_plus_uconst 4, DW_OP_stack_value] $r4
	@DEBUG_VALUE: Read:Address <- [DW_OP_plus_uconst 4, DW_OP_stack_value] $r6
	.loc	1 72 2                          @ ../Core/Src/Loader_Src.c:72:2
	adds	r4, #4
.Ltmp52:
	.loc	1 72 38 is_stmt 0               @ ../Core/Src/Loader_Src.c:72:38
	ldr	r0, [sp, #4]
	adds	r0, #1
	str	r0, [sp, #4]
	.loc	1 72 27                         @ ../Core/Src/Loader_Src.c:72:27
	ldr	r0, [sp, #4]
.Ltmp53:
	.loc	1 72 2                          @ ../Core/Src/Loader_Src.c:72:2
	cmp	r0, r5
	blo	.LBB1_1
.Ltmp54:
.LBB1_4:
	@DEBUG_VALUE: Read:Size <- $r5
	.loc	1 78 2 is_stmt 1                @ ../Core/Src/Loader_Src.c:78:2
	movs	r0, #1
	add	sp, #8
	pop	{r4, r5, r6, pc}
.Ltmp55:
.Lfunc_end1:
	.size	Read, .Lfunc_end1-Read
	.cfi_endproc
	.cantunwind
	.fnend
                                        @ -- End function
	.hidden	Write                           @ -- Begin function Write
	.globl	Write
	.p2align	3
	.type	Write,%function
	.code	16                              @ @Write
	.thumb_func
Write:
.Lfunc_begin2:
	.loc	1 101 0                         @ ../Core/Src/Loader_Src.c:101:0
	.fnstart
	.cfi_startproc
@ %bb.0:
	@DEBUG_VALUE: Write:Address <- $r0
	@DEBUG_VALUE: Write:Size <- $r1
	@DEBUG_VALUE: Write:buffer <- $r2
	.save	{r4, r5, r6, r7, r8, lr}
	push.w	{r4, r5, r6, r7, r8, lr}
	.cfi_def_cfa_offset 24
	.cfi_offset lr, -4
	.cfi_offset r8, -8
	.cfi_offset r7, -12
	.cfi_offset r6, -16
	.cfi_offset r5, -20
	.cfi_offset r4, -24
.Ltmp56:
	@DEBUG_VALUE: Write:adr <- $r0
	mov	r4, r2
.Ltmp57:
	@DEBUG_VALUE: Write:buffer <- $r4
	@DEBUG_VALUE: Write:buffer <- $r4
	mov	r5, r0
.Ltmp58:
	@DEBUG_VALUE: Write:Address <- $r5
	@DEBUG_VALUE: Write:adr <- $r5
	@DEBUG_VALUE: Write:Address <- $r5
	mov.w	r0, #512
.Ltmp59:
	@DEBUG_VALUE: Write:current_addr <- 0
.LBB2_1:                                @ =>This Inner Loop Header: Depth=1
	@DEBUG_VALUE: Write:adr <- $r5
	@DEBUG_VALUE: Write:Address <- $r5
	@DEBUG_VALUE: Write:buffer <- $r4
	@DEBUG_VALUE: Write:Size <- $r1
	@DEBUG_VALUE: Write:current_addr <- [DW_OP_constu 512, DW_OP_minus, DW_OP_stack_value] $r0
	.loc	1 108 25 prologue_end           @ ../Core/Src/Loader_Src.c:108:25
	sub.w	r2, r0, #512
.Ltmp60:
	@DEBUG_VALUE: Write:current_addr <- [DW_OP_plus_uconst 256, DW_OP_stack_value] $r0
	.loc	1 108 5 is_stmt 0               @ ../Core/Src/Loader_Src.c:108:5
	cmp	r2, r5
	@DEBUG_VALUE: Write:current_addr <- [DW_OP_plus_uconst 256, DW_OP_stack_value] $r0
	.loc	1 108 25                        @ ../Core/Src/Loader_Src.c:108:25
	itt	ls
	subls.w	r2, r0, #256
	.loc	1 108 5                         @ ../Core/Src/Loader_Src.c:108:5
	cmpls	r2, r5
	bhi	.LBB2_5
.Ltmp61:
@ %bb.2:                                @   in Loop: Header=BB2_1 Depth=1
	@DEBUG_VALUE: Write:current_addr <- [DW_OP_plus_uconst 256, DW_OP_stack_value] $r0
	@DEBUG_VALUE: Write:adr <- $r5
	@DEBUG_VALUE: Write:Address <- $r5
	@DEBUG_VALUE: Write:buffer <- $r4
	@DEBUG_VALUE: Write:Size <- $r1
	@DEBUG_VALUE: Write:current_addr <- [DW_OP_plus_uconst 256, DW_OP_stack_value] $r0
	cmp	r0, r5
	bhi	.LBB2_6
.Ltmp62:
@ %bb.3:                                @   in Loop: Header=BB2_1 Depth=1
	@DEBUG_VALUE: Write:current_addr <- [DW_OP_plus_uconst 256, DW_OP_stack_value] $r0
	@DEBUG_VALUE: Write:adr <- $r5
	@DEBUG_VALUE: Write:Address <- $r5
	@DEBUG_VALUE: Write:buffer <- $r4
	@DEBUG_VALUE: Write:Size <- $r1
	@DEBUG_VALUE: Write:current_addr <- [DW_OP_plus_uconst 512, DW_OP_stack_value] $r0
	.loc	1 108 25                        @ ../Core/Src/Loader_Src.c:108:25
	add.w	r3, r0, #256
	add.w	r2, r0, #1024
	.loc	1 108 5                         @ ../Core/Src/Loader_Src.c:108:5
	cmp	r3, r5
	mov	r0, r2
.Ltmp63:
	bls	.LBB2_1
.Ltmp64:
@ %bb.4:
	@DEBUG_VALUE: Write:adr <- $r5
	@DEBUG_VALUE: Write:Address <- $r5
	@DEBUG_VALUE: Write:buffer <- $r4
	@DEBUG_VALUE: Write:Size <- $r1
	sub.w	r0, r2, #768
	b	.LBB2_6
.Ltmp65:
	.p2align	2
.LBB2_5:
	@DEBUG_VALUE: Write:current_addr <- [DW_OP_plus_uconst 256, DW_OP_stack_value] $r0
	@DEBUG_VALUE: Write:adr <- $r5
	@DEBUG_VALUE: Write:Address <- $r5
	@DEBUG_VALUE: Write:buffer <- $r4
	@DEBUG_VALUE: Write:Size <- $r1
	.loc	1 0 5                           @ ../Core/Src/Loader_Src.c:0:5
	mov	r0, r2
.Ltmp66:
.LBB2_6:
	@DEBUG_VALUE: Write:adr <- $r5
	@DEBUG_VALUE: Write:Address <- $r5
	@DEBUG_VALUE: Write:buffer <- $r4
	@DEBUG_VALUE: Write:Size <- $r1
	.loc	1 111 33 is_stmt 1              @ ../Core/Src/Loader_Src.c:111:33
	subs	r7, r0, r5
.Ltmp67:
	@DEBUG_VALUE: Write:current_size <- $r7
	.loc	1 119 20                        @ ../Core/Src/Loader_Src.c:119:20
	adds	r6, r1, r5
.Ltmp68:
	@DEBUG_VALUE: Write:end_addr <- $r6
	.loc	1 0 20 is_stmt 0                @ ../Core/Src/Loader_Src.c:0:20
	adr.w	r8, .LCPI2_0
	.loc	1 114 9 is_stmt 1               @ ../Core/Src/Loader_Src.c:114:9
	cmp	r7, r1
	it	hs
	movhs	r7, r1
.Ltmp69:
	@DEBUG_VALUE: Write:Size <- $r7
	@DEBUG_VALUE: Write:current_size <- $r7
	@DEBUG_VALUE: Write:current_addr <- $r5
	.p2align	2
.LBB2_7:                                @ =>This Inner Loop Header: Depth=1
	@DEBUG_VALUE: Write:current_addr <- $r5
	@DEBUG_VALUE: Write:end_addr <- $r6
	@DEBUG_VALUE: Write:current_size <- $r7
	@DEBUG_VALUE: Write:buffer <- $r4
	@DEBUG_VALUE: Write:buffer <- $r4
	@DEBUG_VALUE: Write:current_addr <- $r5
	@DEBUG_VALUE: Write:current_size <- $r7
	.loc	1 124 3                         @ ../Core/Src/Loader_Src.c:124:3
	mov	r0, r8
	bl	puts
.Ltmp70:
	.loc	1 125 9                         @ ../Core/Src/Loader_Src.c:125:9
	uxth	r2, r7
	mov	r0, r5
	mov	r1, r4
	bl	W25QXX_ProgramPage
.Ltmp71:
	.loc	1 128 22                        @ ../Core/Src/Loader_Src.c:128:22
	add	r5, r7
.Ltmp72:
	@DEBUG_VALUE: Write:Address <- [DW_OP_LLVM_entry_value 1] $r0
	@DEBUG_VALUE: Write:current_addr <- $r5
	.loc	1 127 16                        @ ../Core/Src/Loader_Src.c:127:16
	add	r4, r7
.Ltmp73:
	@DEBUG_VALUE: Write:buffer <- $r4
	.loc	1 129 39                        @ ../Core/Src/Loader_Src.c:129:39
	add.w	r0, r5, #256
	.loc	1 129 24 is_stmt 0              @ ../Core/Src/Loader_Src.c:129:24
	mov.w	r7, #256
.Ltmp74:
	@DEBUG_VALUE: Write:Size <- [DW_OP_LLVM_entry_value 1] $r1
	cmp	r0, r6
	it	hi
	subhi	r7, r6, r5
.Ltmp75:
	@DEBUG_VALUE: Write:current_size <- $r7
	.loc	1 130 5 is_stmt 1               @ ../Core/Src/Loader_Src.c:130:5
	cmp	r6, r5
	bhi	.LBB2_7
.Ltmp76:
@ %bb.8:
	@DEBUG_VALUE: Write:current_addr <- $r5
	@DEBUG_VALUE: Write:end_addr <- $r6
	@DEBUG_VALUE: Write:current_size <- $r7
	@DEBUG_VALUE: Write:buffer <- $r4
	.loc	1 133 5                         @ ../Core/Src/Loader_Src.c:133:5
	movs	r0, #1
	pop.w	{r4, r5, r6, r7, r8, pc}
.Ltmp77:
	.p2align	2
@ %bb.9:
	.loc	1 0 5 is_stmt 0                 @ ../Core/Src/Loader_Src.c:0:5
.LCPI2_0:
.Lstr:
	.asciz	"writing\r\000\000\000"
.Lfunc_end2:
	.size	Write, .Lfunc_end2-Write
	.cfi_endproc
	.cantunwind
	.fnend
                                        @ -- End function
	.hidden	MassErase                       @ -- Begin function MassErase
	.globl	MassErase
	.p2align	3
	.type	MassErase,%function
	.code	16                              @ @MassErase
	.thumb_func
MassErase:
.Lfunc_begin3:
	.loc	1 148 0 is_stmt 1               @ ../Core/Src/Loader_Src.c:148:0
	.fnstart
	.cfi_startproc
@ %bb.0:
	.save	{r7, lr}
	push	{r7, lr}
	.cfi_def_cfa_offset 8
	.cfi_offset lr, -4
	.cfi_offset r7, -8
.Ltmp78:
	.loc	1 149 2 prologue_end            @ ../Core/Src/Loader_Src.c:149:2
	bl	W25QXX_Erase_Chip
.Ltmp79:
	.loc	1 150 2                         @ ../Core/Src/Loader_Src.c:150:2
	movs	r0, #1
	pop	{r7, pc}
.Ltmp80:
.Lfunc_end3:
	.size	MassErase, .Lfunc_end3-MassErase
	.cfi_endproc
	.cantunwind
	.fnend
                                        @ -- End function
	.hidden	SectorErase                     @ -- Begin function SectorErase
	.globl	SectorErase
	.p2align	3
	.type	SectorErase,%function
	.code	16                              @ @SectorErase
	.thumb_func
SectorErase:
.Lfunc_begin4:
	.loc	1 166 0                         @ ../Core/Src/Loader_Src.c:166:0
	.fnstart
	.cfi_startproc
@ %bb.0:
	@DEBUG_VALUE: SectorErase:EraseStartAddress <- $r0
	@DEBUG_VALUE: SectorErase:EraseEndAddress <- $r1
	.save	{r4, r5, r7, lr}
	push	{r4, r5, r7, lr}
	.cfi_def_cfa_offset 16
	.cfi_offset lr, -4
	.cfi_offset r7, -8
	.cfi_offset r5, -12
	.cfi_offset r4, -16
	movw	r2, #65535
.Ltmp81:
	.loc	1 168 40 prologue_end           @ ../Core/Src/Loader_Src.c:168:40
	bic.w	r4, r0, r2
.Ltmp82:
	@DEBUG_VALUE: SectorErase:EraseStartAddress <- $r4
	@DEBUG_VALUE: SectorErase:EraseEndAddress <- $r1
	.loc	1 170 2                         @ ../Core/Src/Loader_Src.c:170:2
	cmp	r4, r1
	bhs	.LBB4_3
.Ltmp83:
@ %bb.1:
	@DEBUG_VALUE: SectorErase:EraseStartAddress <- $r4
	@DEBUG_VALUE: SectorErase:EraseEndAddress <- $r1
	.loc	1 0 2 is_stmt 0                 @ ../Core/Src/Loader_Src.c:0:2
	mov	r5, r1
.Ltmp84:
	@DEBUG_VALUE: SectorErase:EraseEndAddress <- $r5
	@DEBUG_VALUE: SectorErase:EraseEndAddress <- $r5
	.p2align	2
.LBB4_2:                                @ =>This Inner Loop Header: Depth=1
	@DEBUG_VALUE: SectorErase:EraseEndAddress <- $r5
	@DEBUG_VALUE: SectorErase:EraseStartAddress <- $r4
	@DEBUG_VALUE: SectorErase:EraseStartAddress <- $r4
	@DEBUG_VALUE: SectorErase:BlockAddr <- $r4
	.loc	1 173 3 is_stmt 1               @ ../Core/Src/Loader_Src.c:173:3
	mov	r0, r4
	bl	W25QXX_Erase_64KB_Block
.Ltmp85:
	.loc	1 174 21                        @ ../Core/Src/Loader_Src.c:174:21
	add.w	r4, r4, #65536
.Ltmp86:
	@DEBUG_VALUE: SectorErase:EraseStartAddress <- $r4
	.loc	1 170 2                         @ ../Core/Src/Loader_Src.c:170:2
	cmp	r4, r5
	blo	.LBB4_2
.Ltmp87:
.LBB4_3:
	@DEBUG_VALUE: SectorErase:EraseStartAddress <- $r4
	.loc	1 177 2                         @ ../Core/Src/Loader_Src.c:177:2
	movs	r0, #1
	pop	{r4, r5, r7, pc}
.Ltmp88:
.Lfunc_end4:
	.size	SectorErase, .Lfunc_end4-SectorErase
	.cfi_endproc
	.cantunwind
	.fnend
                                        @ -- End function
	.section	".note.GNU-stack","",%progbits
	.eabi_attribute	30, 2	@ Tag_ABI_optimization_goals
	.ARM_attribute	16, 1	@ Tag_AV_eba