	.text
	.syntax unified
	.eabi_attribute	67, "2.09"	@ Tag_conformance
	.cpu	cortex-m7
	.eabi_attribute	6, 13	@ Tag_CPU_arch
	.eabi_attribute	7, 77	@ Tag_CPU_arch_profile
	.eabi_attribute	8, 0	@ Tag_ARM_ISA_use
	.eabi_attribute	9, 2	@ Tag_THUMB_ISA_use
	.fpu	fpv5-d16
	.eabi_attribute	36, 1	@ Tag_FP_HP_extension
	.eabi_attribute	34, 1	@ Tag_CPU_unaligned_access
	.eabi_attribute	15, 2	@ Tag_ABI_PCS_RW_data
	.eabi_attribute	16, 1	@ Tag_ABI_PCS_RO_data
	.eabi_attribute	17, 1	@ Tag_ABI_PCS_GOT_use
	.eabi_attribute	20, 2	@ Tag_ABI_FP_denormal
	.eabi_attribute	21, 0	@ Tag_ABI_FP_exceptions
	.eabi_attribute	23, 1	@ Tag_ABI_FP_number_model
	.eabi_attribute	24, 1	@ Tag_ABI_align_needed
	.eabi_attribute	25, 1	@ Tag_ABI_align_preserved
	.eabi_attribute	28, 1	@ Tag_ABI_VFP_args
	.eabi_attribute	38, 1	@ Tag_ABI_FP_16bit_format
	.eabi_attribute	18, 2	@ Tag_ABI_PCS_wchar_t
	.eabi_attribute	26, 1	@ Tag_ABI_enum_size
	.eabi_attribute	14, 1	@ Tag_ABI_PCS_R9_use
	.file	"stm32h7xx_hal_qspi.c"
	.file	1 "F:\\3.git\\1.Github\\ExFlash_Algorithm\\embedfire\\Algorithm_QSPI\\STLDR\\MDK-ARM" "../Drivers/STM32H7xx_HAL_Driver/Inc/stm32h7xx_hal_def.h"
	.file	2 "F:\\3.git\\1.Github\\ExFlash_Algorithm\\embedfire\\Algorithm_QSPI\\STLDR\\MDK-ARM" "../Drivers/STM32H7xx_HAL_Driver/Inc\\stm32h7xx_hal_mdma.h"
	.file	3 "F:\\3.git\\1.Github\\ExFlash_Algorithm\\embedfire\\Algorithm_QSPI\\STLDR\\MDK-ARM" "../Drivers/STM32H7xx_HAL_Driver/Inc\\stm32h7xx_hal_qspi.h"
	.file	4 "F:\\3.git\\1.Github\\ExFlash_Algorithm\\embedfire\\Algorithm_QSPI\\STLDR\\MDK-ARM" "../Drivers/CMSIS/Device/ST/STM32H7xx/Include\\stm32h7xx.h"
	.file	5 "D:\\Program\\Keil\\Keil_v5\\ARM\\ARMCLANG\\Bin\\..\\include" "stdint.h"
	.file	6 "F:\\3.git\\1.Github\\ExFlash_Algorithm\\embedfire\\Algorithm_QSPI\\STLDR\\MDK-ARM" "../Drivers/CMSIS/Device/ST/STM32H7xx/Include/stm32h750xx.h"
	.hidden	HAL_QSPI_Init                   @ -- Begin function HAL_QSPI_Init
	.globl	HAL_QSPI_Init
	.p2align	3
	.type	HAL_QSPI_Init,%function
	.code	16                              @ @HAL_QSPI_Init
	.thumb_func
HAL_QSPI_Init:
.Lfunc_begin0:
	.file	7 "F:\\3.git\\1.Github\\ExFlash_Algorithm\\embedfire\\Algorithm_QSPI\\STLDR\\MDK-ARM" "../Drivers/STM32H7xx_HAL_Driver/Src/stm32h7xx_hal_qspi.c"
	.loc	7 307 0                         @ ../Drivers/STM32H7xx_HAL_Driver/Src/stm32h7xx_hal_qspi.c:307:0
	.fnstart
	.cfi_sections .debug_frame
	.cfi_startproc
@ %bb.0:
	@DEBUG_VALUE: HAL_QSPI_Init:hqspi <- $r0
	.save	{r4, lr}
	push	{r4, lr}
	.cfi_def_cfa_offset 8
	.cfi_offset lr, -4
	.cfi_offset r4, -8
	mov	r4, r0
.Ltmp0:
	@DEBUG_VALUE: HAL_QSPI_Init:hqspi <- $r4
	@DEBUG_VALUE: HAL_QSPI_Init:hqspi <- $r4
	.loc	7 309 24 prologue_end           @ ../Drivers/STM32H7xx_HAL_Driver/Src/stm32h7xx_hal_qspi.c:309:24
	bl	HAL_GetTick
.Ltmp1:
	@DEBUG_VALUE: HAL_QSPI_Init:tickstart <- undef
	.loc	7 312 6                         @ ../Drivers/STM32H7xx_HAL_Driver/Src/stm32h7xx_hal_qspi.c:312:6
	cmp	r4, #0
	beq	.LBB0_8
.Ltmp2:
@ %bb.1:
	@DEBUG_VALUE: HAL_QSPI_Init:hqspi <- $r4
	.loc	7 332 13                        @ ../Drivers/STM32H7xx_HAL_Driver/Src/stm32h7xx_hal_qspi.c:332:13
	ldrb.w	r0, [r4, #65]
.Ltmp3:
	.loc	7 332 6 is_stmt 0               @ ../Drivers/STM32H7xx_HAL_Driver/Src/stm32h7xx_hal_qspi.c:332:6
	cbnz	r0, .LBB0_3
.Ltmp4:
@ %bb.2:
	@DEBUG_VALUE: HAL_QSPI_Init:hqspi <- $r4
	.loc	7 355 5 is_stmt 1               @ ../Drivers/STM32H7xx_HAL_Driver/Src/stm32h7xx_hal_qspi.c:355:5
	mov	r0, r4
	bl	HAL_QSPI_MspInit
.Ltmp5:
	.loc	7 0 5 is_stmt 0                 @ ../Drivers/STM32H7xx_HAL_Driver/Src/stm32h7xx_hal_qspi.c:0:5
	movw	r0, #5000
.Ltmp6:
	@DEBUG_VALUE: HAL_QSPI_SetTimeout:Timeout <- 5000
	@DEBUG_VALUE: HAL_QSPI_SetTimeout:hqspi <- $r4
	.loc	7 2286 18 is_stmt 1             @ ../Drivers/STM32H7xx_HAL_Driver/Src/stm32h7xx_hal_qspi.c:2286:18
	str	r0, [r4, #72]
.Ltmp7:
.LBB0_3:
	@DEBUG_VALUE: HAL_QSPI_Init:hqspi <- $r4
	.loc	7 363 3                         @ ../Drivers/STM32H7xx_HAL_Driver/Src/stm32h7xx_hal_qspi.c:363:3
	ldr	r0, [r4]
	mvn	r3, #255
	ldr	r1, [r4, #8]
	ldr	r2, [r0]
	bic	r2, r2, #7936
	add.w	r1, r3, r1, lsl #8
	orrs	r1, r2
	str	r1, [r0]
	@DEBUG_VALUE: QSPI_WaitFlagStateUntilTimeout:Timeout <- undef
	@DEBUG_VALUE: QSPI_WaitFlagStateUntilTimeout:Tickstart <- undef
	@DEBUG_VALUE: QSPI_WaitFlagStateUntilTimeout:State <- 0
	@DEBUG_VALUE: QSPI_WaitFlagStateUntilTimeout:Flag <- 32
	@DEBUG_VALUE: QSPI_WaitFlagStateUntilTimeout:hqspi <- $r4
.Ltmp8:
.LBB0_4:                                @ =>This Inner Loop Header: Depth=1
	@DEBUG_VALUE: QSPI_WaitFlagStateUntilTimeout:hqspi <- $r4
	@DEBUG_VALUE: QSPI_WaitFlagStateUntilTimeout:Flag <- 32
	@DEBUG_VALUE: QSPI_WaitFlagStateUntilTimeout:State <- 0
	@DEBUG_VALUE: HAL_QSPI_Init:hqspi <- $r4
	.loc	7 2482 10                       @ ../Drivers/STM32H7xx_HAL_Driver/Src/stm32h7xx_hal_qspi.c:2482:10
	ldr	r1, [r0, #8]
	.loc	7 2482 3 is_stmt 0              @ ../Drivers/STM32H7xx_HAL_Driver/Src/stm32h7xx_hal_qspi.c:2482:3
	lsls	r1, r1, #26
	bpl	.LBB0_7
.Ltmp9:
@ %bb.5:                                @   in Loop: Header=BB0_4 Depth=1
	@DEBUG_VALUE: QSPI_WaitFlagStateUntilTimeout:hqspi <- $r4
	@DEBUG_VALUE: QSPI_WaitFlagStateUntilTimeout:Flag <- 32
	@DEBUG_VALUE: QSPI_WaitFlagStateUntilTimeout:State <- 0
	@DEBUG_VALUE: HAL_QSPI_Init:hqspi <- $r4
	.loc	7 2482 10                       @ ../Drivers/STM32H7xx_HAL_Driver/Src/stm32h7xx_hal_qspi.c:2482:10
	ldr	r1, [r0, #8]
	.loc	7 2482 3                        @ ../Drivers/STM32H7xx_HAL_Driver/Src/stm32h7xx_hal_qspi.c:2482:3
	lsls	r1, r1, #26
	.loc	7 2482 10                       @ ../Drivers/STM32H7xx_HAL_Driver/Src/stm32h7xx_hal_qspi.c:2482:10
	itt	mi
	ldrmi	r1, [r0, #8]
	.loc	7 2482 3                        @ ../Drivers/STM32H7xx_HAL_Driver/Src/stm32h7xx_hal_qspi.c:2482:3
	lslsmi.w	r1, r1, #26
	bpl	.LBB0_7
.Ltmp10:
@ %bb.6:                                @   in Loop: Header=BB0_4 Depth=1
	@DEBUG_VALUE: QSPI_WaitFlagStateUntilTimeout:hqspi <- $r4
	@DEBUG_VALUE: QSPI_WaitFlagStateUntilTimeout:Flag <- 32
	@DEBUG_VALUE: QSPI_WaitFlagStateUntilTimeout:State <- 0
	@DEBUG_VALUE: HAL_QSPI_Init:hqspi <- $r4
	.loc	7 2482 10                       @ ../Drivers/STM32H7xx_HAL_Driver/Src/stm32h7xx_hal_qspi.c:2482:10
	ldr	r1, [r0, #8]
	.loc	7 2482 3                        @ ../Drivers/STM32H7xx_HAL_Driver/Src/stm32h7xx_hal_qspi.c:2482:3
	lsls	r1, r1, #26
	bmi	.LBB0_4
.Ltmp11:
.LBB0_7:
	@DEBUG_VALUE: HAL_QSPI_Init:hqspi <- $r4
	@DEBUG_VALUE: HAL_QSPI_Init:status <- 0
	.loc	7 0 3                           @ ../Drivers/STM32H7xx_HAL_Driver/Src/stm32h7xx_hal_qspi.c:0:3
	movw	r2, #65327
.Ltmp12:
	.loc	7 372 5 is_stmt 1               @ ../Drivers/STM32H7xx_HAL_Driver/Src/stm32h7xx_hal_qspi.c:372:5
	ldr	r1, [r0]
	movt	r2, #255
	ldr	r3, [r4, #4]
	and.w	lr, r1, r2
	ldr	r2, [r4, #12]
	orr.w	r2, r2, lr
	.loc	7 377 5                         @ ../Drivers/STM32H7xx_HAL_Driver/Src/stm32h7xx_hal_qspi.c:377:5
	ldr.w	lr, [r4, #16]
	.loc	7 372 5                         @ ../Drivers/STM32H7xx_HAL_Driver/Src/stm32h7xx_hal_qspi.c:372:5
	ldrd	r12, r1, [r4, #28]
	orr.w	r2, r2, r3, lsl #24
	.loc	7 377 5                         @ ../Drivers/STM32H7xx_HAL_Driver/Src/stm32h7xx_hal_qspi.c:377:5
	ldr	r3, [r4, #20]
	.loc	7 372 5                         @ ../Drivers/STM32H7xx_HAL_Driver/Src/stm32h7xx_hal_qspi.c:372:5
	orr.w	r2, r2, r12
	orrs	r1, r2
	str	r1, [r0]
	movw	r2, #63742
	.loc	7 377 5                         @ ../Drivers/STM32H7xx_HAL_Driver/Src/stm32h7xx_hal_qspi.c:377:5
	ldr	r1, [r0, #4]
	movt	r2, #65504
	ands	r1, r2
	ldr	r2, [r4, #24]
	orrs	r1, r3
	orr.w	r1, r1, lr, lsl #16
	orrs	r1, r2
	str	r1, [r0, #4]
	.loc	7 382 5                         @ ../Drivers/STM32H7xx_HAL_Driver/Src/stm32h7xx_hal_qspi.c:382:5
	ldr	r1, [r0]
	orr	r1, r1, #1
	str	r1, [r0]
	movs	r0, #0
	.loc	7 385 22                        @ ../Drivers/STM32H7xx_HAL_Driver/Src/stm32h7xx_hal_qspi.c:385:22
	str	r0, [r4, #68]
	movs	r1, #1
	.loc	7 388 18                        @ ../Drivers/STM32H7xx_HAL_Driver/Src/stm32h7xx_hal_qspi.c:388:18
	strb.w	r1, [r4, #65]
.Ltmp13:
	.loc	7 393 1                         @ ../Drivers/STM32H7xx_HAL_Driver/Src/stm32h7xx_hal_qspi.c:393:1
	pop	{r4, pc}
.Ltmp14:
	.p2align	2
.LBB0_8:
	@DEBUG_VALUE: HAL_QSPI_Init:hqspi <- $r4
	.loc	7 0 1 is_stmt 0                 @ ../Drivers/STM32H7xx_HAL_Driver/Src/stm32h7xx_hal_qspi.c:0:1
	movs	r0, #1
	.loc	7 393 1                         @ ../Drivers/STM32H7xx_HAL_Driver/Src/stm32h7xx_hal_qspi.c:393:1
	pop	{r4, pc}
.Ltmp15:
.Lfunc_end0:
	.size	HAL_QSPI_Init, .Lfunc_end0-HAL_QSPI_Init
	.cfi_endproc
	.cantunwind
	.fnend
                                        @ -- End function
	.hidden	HAL_QSPI_MspInit                @ -- Begin function HAL_QSPI_MspInit
	.weak	HAL_QSPI_MspInit
	.p2align	3
	.type	HAL_QSPI_MspInit,%function
	.code	16                              @ @HAL_QSPI_MspInit
	.thumb_func
HAL_QSPI_MspInit:
.Lfunc_begin1:
	.loc	7 439 0 is_stmt 1               @ ../Drivers/STM32H7xx_HAL_Driver/Src/stm32h7xx_hal_qspi.c:439:0
	.fnstart
	.cfi_startproc
@ %bb.0:
	@DEBUG_VALUE: HAL_QSPI_MspInit:hqspi <- $r0
	.loc	7 446 1 prologue_end            @ ../Drivers/STM32H7xx_HAL_Driver/Src/stm32h7xx_hal_qspi.c:446:1
	bx	lr
.Ltmp16:
.Lfunc_end1:
	.size	HAL_QSPI_MspInit, .Lfunc_end1-HAL_QSPI_MspInit
	.cfi_endproc
	.cantunwind
	.fnend
                                        @ -- End function
	.hidden	HAL_QSPI_SetTimeout             @ -- Begin function HAL_QSPI_SetTimeout
	.globl	HAL_QSPI_SetTimeout
	.p2align	3
	.type	HAL_QSPI_SetTimeout,%function
	.code	16                              @ @HAL_QSPI_SetTimeout
	.thumb_func
HAL_QSPI_SetTimeout:
.Lfunc_begin2:
	.loc	7 2285 0                        @ ../Drivers/STM32H7xx_HAL_Driver/Src/stm32h7xx_hal_qspi.c:2285:0
	.fnstart
	.cfi_startproc
@ %bb.0:
	@DEBUG_VALUE: HAL_QSPI_SetTimeout:hqspi <- $r0
	@DEBUG_VALUE: HAL_QSPI_SetTimeout:Timeout <- $r1
	.loc	7 2286 18 prologue_end          @ ../Drivers/STM32H7xx_HAL_Driver/Src/stm32h7xx_hal_qspi.c:2286:18
	str	r1, [r0, #72]
	.loc	7 2287 1                        @ ../Drivers/STM32H7xx_HAL_Driver/Src/stm32h7xx_hal_qspi.c:2287:1
	bx	lr
.Ltmp17:
.Lfunc_end2:
	.size	HAL_QSPI_SetTimeout, .Lfunc_end2-HAL_QSPI_SetTimeout
	.cfi_endproc
	.cantunwind
	.fnend
                                        @ -- End function
	.hidden	HAL_QSPI_DeInit                 @ -- Begin function HAL_QSPI_DeInit
	.globl	HAL_QSPI_DeInit
	.p2align	3
	.type	HAL_QSPI_DeInit,%function
	.code	16                              @ @HAL_QSPI_DeInit
	.thumb_func
HAL_QSPI_DeInit:
.Lfunc_begin3:
	.loc	7 401 0                         @ ../Drivers/STM32H7xx_HAL_Driver/Src/stm32h7xx_hal_qspi.c:401:0
	.fnstart
	.cfi_startproc
@ %bb.0:
	@DEBUG_VALUE: HAL_QSPI_DeInit:hqspi <- $r0
	@DEBUG_VALUE: HAL_QSPI_DeInit:hqspi <- $r0
	.loc	7 403 6 prologue_end            @ ../Drivers/STM32H7xx_HAL_Driver/Src/stm32h7xx_hal_qspi.c:403:6
	cbz	r0, .LBB3_2
.Ltmp18:
@ %bb.1:
	@DEBUG_VALUE: HAL_QSPI_DeInit:hqspi <- $r0
	.save	{r4, lr}
	push	{r4, lr}
	.cfi_def_cfa_offset 8
	.cfi_offset lr, -4
	.cfi_offset r4, -8
	mov	r4, r0
.Ltmp19:
	@DEBUG_VALUE: HAL_QSPI_DeInit:hqspi <- $r4
	.loc	7 409 3                         @ ../Drivers/STM32H7xx_HAL_Driver/Src/stm32h7xx_hal_qspi.c:409:3
	ldr	r0, [r0]
	ldr	r1, [r0]
	bic	r1, r1, #1
	str	r1, [r0]
	.loc	7 421 3                         @ ../Drivers/STM32H7xx_HAL_Driver/Src/stm32h7xx_hal_qspi.c:421:3
	mov	r0, r4
	bl	HAL_QSPI_MspDeInit
.Ltmp20:
	.loc	7 0 3 is_stmt 0                 @ ../Drivers/STM32H7xx_HAL_Driver/Src/stm32h7xx_hal_qspi.c:0:3
	movs	r0, #0
	.loc	7 425 20 is_stmt 1              @ ../Drivers/STM32H7xx_HAL_Driver/Src/stm32h7xx_hal_qspi.c:425:20
	str	r0, [r4, #68]
	.loc	7 428 16                        @ ../Drivers/STM32H7xx_HAL_Driver/Src/stm32h7xx_hal_qspi.c:428:16
	strb.w	r0, [r4, #65]
	pop	{r4, pc}
.Ltmp21:
	.p2align	2
.LBB3_2:
	@DEBUG_VALUE: HAL_QSPI_DeInit:hqspi <- $r0
	.loc	7 0 16 is_stmt 0                @ ../Drivers/STM32H7xx_HAL_Driver/Src/stm32h7xx_hal_qspi.c:0:16
	movs	r0, #1
.Ltmp22:
	@DEBUG_VALUE: HAL_QSPI_DeInit:hqspi <- [DW_OP_LLVM_entry_value 1] $r0
	.loc	7 431 1 is_stmt 1               @ ../Drivers/STM32H7xx_HAL_Driver/Src/stm32h7xx_hal_qspi.c:431:1
	bx	lr
.Ltmp23:
.Lfunc_end3:
	.size	HAL_QSPI_DeInit, .Lfunc_end3-HAL_QSPI_DeInit
	.cfi_endproc
	.cantunwind
	.fnend
                                        @ -- End function
	.hidden	HAL_QSPI_MspDeInit              @ -- Begin function HAL_QSPI_MspDeInit
	.weak	HAL_QSPI_MspDeInit
	.p2align	3
	.type	HAL_QSPI_MspDeInit,%function
	.code	16                              @ @HAL_QSPI_MspDeInit
	.thumb_func
HAL_QSPI_MspDeInit:
.Lfunc_begin4:
	.loc	7 454 0                         @ ../Drivers/STM32H7xx_HAL_Driver/Src/stm32h7xx_hal_qspi.c:454:0
	.fnstart
	.cfi_startproc
@ %bb.0:
	@DEBUG_VALUE: HAL_QSPI_MspDeInit:hqspi <- $r0
	.loc	7 461 1 prologue_end            @ ../Drivers/STM32H7xx_HAL_Driver/Src/stm32h7xx_hal_qspi.c:461:1
	bx	lr
.Ltmp24:
.Lfunc_end4:
	.size	HAL_QSPI_MspDeInit, .Lfunc_end4-HAL_QSPI_MspDeInit
	.cfi_endproc
	.cantunwind
	.fnend
                                        @ -- End function
	.hidden	HAL_QSPI_IRQHandler             @ -- Begin function HAL_QSPI_IRQHandler
	.globl	HAL_QSPI_IRQHandler
	.p2align	3
	.type	HAL_QSPI_IRQHandler,%function
	.code	16                              @ @HAL_QSPI_IRQHandler
	.thumb_func
HAL_QSPI_IRQHandler:
.Lfunc_begin5:
	.loc	7 493 0                         @ ../Drivers/STM32H7xx_HAL_Driver/Src/stm32h7xx_hal_qspi.c:493:0
	.fnstart
	.cfi_startproc
@ %bb.0:
	@DEBUG_VALUE: HAL_QSPI_IRQHandler:hqspi <- $r0
	.save	{r4, lr}
	push	{r4, lr}
	.cfi_def_cfa_offset 8
	.cfi_offset lr, -4
	.cfi_offset r4, -8
	mov	r4, r0
.Ltmp25:
	@DEBUG_VALUE: HAL_QSPI_IRQHandler:hqspi <- $r4
	.loc	7 495 19 prologue_end           @ ../Drivers/STM32H7xx_HAL_Driver/Src/stm32h7xx_hal_qspi.c:495:19
	ldr	r0, [r0]
	ldr	r2, [r0, #8]
.Ltmp26:
	@DEBUG_VALUE: HAL_QSPI_IRQHandler:flag <- $r2
	.loc	7 499 36                        @ ../Drivers/STM32H7xx_HAL_Driver/Src/stm32h7xx_hal_qspi.c:499:36
	lsls	r1, r2, #29
.Ltmp27:
	.loc	7 496 23                        @ ../Drivers/STM32H7xx_HAL_Driver/Src/stm32h7xx_hal_qspi.c:496:23
	ldr	r1, [r0]
.Ltmp28:
	@DEBUG_VALUE: HAL_QSPI_IRQHandler:itsource <- $r1
	.loc	7 499 36                        @ ../Drivers/STM32H7xx_HAL_Driver/Src/stm32h7xx_hal_qspi.c:499:36
	bpl	.LBB5_7
.Ltmp29:
@ %bb.1:
	@DEBUG_VALUE: HAL_QSPI_IRQHandler:itsource <- $r1
	@DEBUG_VALUE: HAL_QSPI_IRQHandler:flag <- $r2
	@DEBUG_VALUE: HAL_QSPI_IRQHandler:hqspi <- $r4
	.loc	7 0 36 is_stmt 0                @ ../Drivers/STM32H7xx_HAL_Driver/Src/stm32h7xx_hal_qspi.c:0:36
	ands	r3, r1, #262144
	.loc	7 499 36                        @ ../Drivers/STM32H7xx_HAL_Driver/Src/stm32h7xx_hal_qspi.c:499:36
	beq	.LBB5_7
.Ltmp30:
@ %bb.2:
	@DEBUG_VALUE: HAL_QSPI_IRQHandler:itsource <- $r1
	@DEBUG_VALUE: HAL_QSPI_IRQHandler:flag <- $r2
	@DEBUG_VALUE: HAL_QSPI_IRQHandler:hqspi <- $r4
	@DEBUG_VALUE: HAL_QSPI_IRQHandler:data_reg <- [DW_OP_plus_uconst 32, DW_OP_stack_value] $r0
	.loc	7 503 15 is_stmt 1              @ ../Drivers/STM32H7xx_HAL_Driver/Src/stm32h7xx_hal_qspi.c:503:15
	ldrb.w	r1, [r4, #65]
.Ltmp31:
	.loc	7 503 8 is_stmt 0               @ ../Drivers/STM32H7xx_HAL_Driver/Src/stm32h7xx_hal_qspi.c:503:8
	cmp	r1, #18
	bne	.LBB5_13
.Ltmp32:
@ %bb.3:
	@DEBUG_VALUE: HAL_QSPI_IRQHandler:data_reg <- [DW_OP_plus_uconst 32, DW_OP_stack_value] $r0
	@DEBUG_VALUE: HAL_QSPI_IRQHandler:flag <- $r2
	@DEBUG_VALUE: HAL_QSPI_IRQHandler:hqspi <- $r4
	.loc	7 506 13 is_stmt 1              @ ../Drivers/STM32H7xx_HAL_Driver/Src/stm32h7xx_hal_qspi.c:506:13
	ldr	r1, [r0, #8]
	.loc	7 506 7 is_stmt 0               @ ../Drivers/STM32H7xx_HAL_Driver/Src/stm32h7xx_hal_qspi.c:506:7
	lsls	r1, r1, #29
	bpl.w	.LBB5_32
.Ltmp33:
@ %bb.4:
	@DEBUG_VALUE: HAL_QSPI_IRQHandler:data_reg <- [DW_OP_plus_uconst 32, DW_OP_stack_value] $r0
	@DEBUG_VALUE: HAL_QSPI_IRQHandler:flag <- $r2
	@DEBUG_VALUE: HAL_QSPI_IRQHandler:hqspi <- $r4
	.loc	7 508 20 is_stmt 1              @ ../Drivers/STM32H7xx_HAL_Driver/Src/stm32h7xx_hal_qspi.c:508:20
	ldr	r1, [r4, #44]
.Ltmp34:
	.loc	7 508 13 is_stmt 0              @ ../Drivers/STM32H7xx_HAL_Driver/Src/stm32h7xx_hal_qspi.c:508:13
	cmp	r1, #0
	beq.w	.LBB5_30
.Ltmp35:
	.p2align	2
.LBB5_5:                                @ =>This Inner Loop Header: Depth=1
	@DEBUG_VALUE: HAL_QSPI_IRQHandler:data_reg <- [DW_OP_plus_uconst 32, DW_OP_stack_value] $r0
	@DEBUG_VALUE: HAL_QSPI_IRQHandler:hqspi <- $r4
	.loc	7 511 49 is_stmt 1              @ ../Drivers/STM32H7xx_HAL_Driver/Src/stm32h7xx_hal_qspi.c:511:49
	ldr	r1, [r4, #36]
	.loc	7 511 41 is_stmt 0              @ ../Drivers/STM32H7xx_HAL_Driver/Src/stm32h7xx_hal_qspi.c:511:41
	ldrb	r1, [r1]
	.loc	7 511 39                        @ ../Drivers/STM32H7xx_HAL_Driver/Src/stm32h7xx_hal_qspi.c:511:39
	strb.w	r1, [r0, #32]
.Ltmp36:
	.loc	7 506 13 is_stmt 1              @ ../Drivers/STM32H7xx_HAL_Driver/Src/stm32h7xx_hal_qspi.c:506:13
	ldr	r1, [r4]
.Ltmp37:
	.loc	7 512 28                        @ ../Drivers/STM32H7xx_HAL_Driver/Src/stm32h7xx_hal_qspi.c:512:28
	ldr	r2, [r4, #36]
	.loc	7 513 29                        @ ../Drivers/STM32H7xx_HAL_Driver/Src/stm32h7xx_hal_qspi.c:513:29
	ldr	r3, [r4, #44]
	.loc	7 512 28                        @ ../Drivers/STM32H7xx_HAL_Driver/Src/stm32h7xx_hal_qspi.c:512:28
	adds	r2, #1
	str	r2, [r4, #36]
	.loc	7 513 29                        @ ../Drivers/STM32H7xx_HAL_Driver/Src/stm32h7xx_hal_qspi.c:513:29
	subs	r2, r3, #1
	str	r2, [r4, #44]
.Ltmp38:
	.loc	7 506 13                        @ ../Drivers/STM32H7xx_HAL_Driver/Src/stm32h7xx_hal_qspi.c:506:13
	ldr	r2, [r1, #8]
	.loc	7 506 7 is_stmt 0               @ ../Drivers/STM32H7xx_HAL_Driver/Src/stm32h7xx_hal_qspi.c:506:7
	lsls	r2, r2, #29
	bpl.w	.LBB5_32
.Ltmp39:
@ %bb.6:                                @   in Loop: Header=BB5_5 Depth=1
	@DEBUG_VALUE: HAL_QSPI_IRQHandler:data_reg <- [DW_OP_plus_uconst 32, DW_OP_stack_value] $r0
	@DEBUG_VALUE: HAL_QSPI_IRQHandler:hqspi <- $r4
	.loc	7 508 20 is_stmt 1              @ ../Drivers/STM32H7xx_HAL_Driver/Src/stm32h7xx_hal_qspi.c:508:20
	ldr	r2, [r4, #44]
.Ltmp40:
	.loc	7 508 13 is_stmt 0              @ ../Drivers/STM32H7xx_HAL_Driver/Src/stm32h7xx_hal_qspi.c:508:13
	cmp	r2, #0
	bne	.LBB5_5
	b	.LBB5_31
.Ltmp41:
	.p2align	2
.LBB5_7:
	@DEBUG_VALUE: HAL_QSPI_IRQHandler:itsource <- $r1
	@DEBUG_VALUE: HAL_QSPI_IRQHandler:flag <- $r2
	@DEBUG_VALUE: HAL_QSPI_IRQHandler:hqspi <- $r4
	.loc	7 559 41 is_stmt 1              @ ../Drivers/STM32H7xx_HAL_Driver/Src/stm32h7xx_hal_qspi.c:559:41
	lsls	r3, r2, #30
	bpl	.LBB5_18
.Ltmp42:
@ %bb.8:
	@DEBUG_VALUE: HAL_QSPI_IRQHandler:itsource <- $r1
	@DEBUG_VALUE: HAL_QSPI_IRQHandler:flag <- $r2
	@DEBUG_VALUE: HAL_QSPI_IRQHandler:hqspi <- $r4
	.loc	7 0 41 is_stmt 0                @ ../Drivers/STM32H7xx_HAL_Driver/Src/stm32h7xx_hal_qspi.c:0:41
	ands	r3, r1, #131072
	.loc	7 559 41                        @ ../Drivers/STM32H7xx_HAL_Driver/Src/stm32h7xx_hal_qspi.c:559:41
	beq	.LBB5_18
.Ltmp43:
@ %bb.9:
	@DEBUG_VALUE: HAL_QSPI_IRQHandler:itsource <- $r1
	@DEBUG_VALUE: HAL_QSPI_IRQHandler:flag <- $r2
	@DEBUG_VALUE: HAL_QSPI_IRQHandler:hqspi <- $r4
	.loc	7 0 41                          @ ../Drivers/STM32H7xx_HAL_Driver/Src/stm32h7xx_hal_qspi.c:0:41
	movs	r1, #2
.Ltmp44:
	.loc	7 562 5 is_stmt 1               @ ../Drivers/STM32H7xx_HAL_Driver/Src/stm32h7xx_hal_qspi.c:562:5
	str	r1, [r0, #12]
	.loc	7 565 5                         @ ../Drivers/STM32H7xx_HAL_Driver/Src/stm32h7xx_hal_qspi.c:565:5
	ldr	r1, [r0]
	bic	r1, r1, #458752
	str	r1, [r0]
.Ltmp45:
	.loc	7 568 15                        @ ../Drivers/STM32H7xx_HAL_Driver/Src/stm32h7xx_hal_qspi.c:568:15
	ldrb.w	r1, [r4, #65]
.Ltmp46:
	.loc	7 568 8 is_stmt 0               @ ../Drivers/STM32H7xx_HAL_Driver/Src/stm32h7xx_hal_qspi.c:568:8
	cmp	r1, #18
	bne	.LBB5_23
.Ltmp47:
@ %bb.10:
	@DEBUG_VALUE: HAL_QSPI_IRQHandler:flag <- $r2
	@DEBUG_VALUE: HAL_QSPI_IRQHandler:hqspi <- $r4
	.loc	7 570 29 is_stmt 1              @ ../Drivers/STM32H7xx_HAL_Driver/Src/stm32h7xx_hal_qspi.c:570:29
	ldr	r1, [r0]
.Ltmp48:
	.loc	7 570 11 is_stmt 0              @ ../Drivers/STM32H7xx_HAL_Driver/Src/stm32h7xx_hal_qspi.c:570:11
	lsls	r1, r1, #29
	bpl	.LBB5_12
.Ltmp49:
@ %bb.11:
	@DEBUG_VALUE: HAL_QSPI_IRQHandler:flag <- $r2
	@DEBUG_VALUE: HAL_QSPI_IRQHandler:hqspi <- $r4
	.loc	7 574 9 is_stmt 1               @ ../Drivers/STM32H7xx_HAL_Driver/Src/stm32h7xx_hal_qspi.c:574:9
	ldr	r1, [r0]
	bic	r1, r1, #4
	str	r1, [r0]
	.loc	7 577 9                         @ ../Drivers/STM32H7xx_HAL_Driver/Src/stm32h7xx_hal_qspi.c:577:9
	ldr	r0, [r4, #60]
	ldr	r0, [r0]
	ldr	r1, [r0, #12]
	bic	r1, r1, #1
	str	r1, [r0, #12]
.Ltmp50:
.LBB5_12:
	@DEBUG_VALUE: HAL_QSPI_IRQHandler:flag <- $r2
	@DEBUG_VALUE: HAL_QSPI_IRQHandler:hqspi <- $r4
	.loc	7 0 9 is_stmt 0                 @ ../Drivers/STM32H7xx_HAL_Driver/Src/stm32h7xx_hal_qspi.c:0:9
	movs	r0, #1
	.loc	7 582 20 is_stmt 1              @ ../Drivers/STM32H7xx_HAL_Driver/Src/stm32h7xx_hal_qspi.c:582:20
	strb.w	r0, [r4, #65]
	.loc	7 588 7                         @ ../Drivers/STM32H7xx_HAL_Driver/Src/stm32h7xx_hal_qspi.c:588:7
	mov	r0, r4
	pop.w	{r4, lr}
.Ltmp51:
	@DEBUG_VALUE: HAL_QSPI_IRQHandler:hqspi <- [DW_OP_LLVM_entry_value 1] $r0
	b	HAL_QSPI_TxCpltCallback
.Ltmp52:
	.p2align	2
.LBB5_13:
	@DEBUG_VALUE: HAL_QSPI_IRQHandler:data_reg <- [DW_OP_plus_uconst 32, DW_OP_stack_value] $r0
	@DEBUG_VALUE: HAL_QSPI_IRQHandler:flag <- $r2
	@DEBUG_VALUE: HAL_QSPI_IRQHandler:hqspi <- $r4
	.loc	7 524 20                        @ ../Drivers/STM32H7xx_HAL_Driver/Src/stm32h7xx_hal_qspi.c:524:20
	ldrb.w	r1, [r4, #65]
.Ltmp53:
	.loc	7 524 13 is_stmt 0              @ ../Drivers/STM32H7xx_HAL_Driver/Src/stm32h7xx_hal_qspi.c:524:13
	cmp	r1, #34
	bne	.LBB5_32
.Ltmp54:
@ %bb.14:
	@DEBUG_VALUE: HAL_QSPI_IRQHandler:data_reg <- [DW_OP_plus_uconst 32, DW_OP_stack_value] $r0
	@DEBUG_VALUE: HAL_QSPI_IRQHandler:flag <- $r2
	@DEBUG_VALUE: HAL_QSPI_IRQHandler:hqspi <- $r4
	.loc	7 527 13 is_stmt 1              @ ../Drivers/STM32H7xx_HAL_Driver/Src/stm32h7xx_hal_qspi.c:527:13
	ldr	r1, [r0, #8]
	.loc	7 527 7 is_stmt 0               @ ../Drivers/STM32H7xx_HAL_Driver/Src/stm32h7xx_hal_qspi.c:527:7
	lsls	r1, r1, #29
	bpl	.LBB5_32
.Ltmp55:
@ %bb.15:
	@DEBUG_VALUE: HAL_QSPI_IRQHandler:data_reg <- [DW_OP_plus_uconst 32, DW_OP_stack_value] $r0
	@DEBUG_VALUE: HAL_QSPI_IRQHandler:flag <- $r2
	@DEBUG_VALUE: HAL_QSPI_IRQHandler:hqspi <- $r4
	.loc	7 529 20 is_stmt 1              @ ../Drivers/STM32H7xx_HAL_Driver/Src/stm32h7xx_hal_qspi.c:529:20
	ldr	r1, [r4, #56]
.Ltmp56:
	.loc	7 529 13 is_stmt 0              @ ../Drivers/STM32H7xx_HAL_Driver/Src/stm32h7xx_hal_qspi.c:529:13
	cmp	r1, #0
	beq	.LBB5_30
.Ltmp57:
	.p2align	2
.LBB5_16:                               @ =>This Inner Loop Header: Depth=1
	@DEBUG_VALUE: HAL_QSPI_IRQHandler:data_reg <- [DW_OP_plus_uconst 32, DW_OP_stack_value] $r0
	@DEBUG_VALUE: HAL_QSPI_IRQHandler:hqspi <- $r4
	.loc	7 532 32 is_stmt 1              @ ../Drivers/STM32H7xx_HAL_Driver/Src/stm32h7xx_hal_qspi.c:532:32
	ldrb.w	r1, [r0, #32]
	.loc	7 532 19 is_stmt 0              @ ../Drivers/STM32H7xx_HAL_Driver/Src/stm32h7xx_hal_qspi.c:532:19
	ldr	r2, [r4, #48]
	.loc	7 532 30                        @ ../Drivers/STM32H7xx_HAL_Driver/Src/stm32h7xx_hal_qspi.c:532:30
	strb	r1, [r2]
.Ltmp58:
	.loc	7 527 13 is_stmt 1              @ ../Drivers/STM32H7xx_HAL_Driver/Src/stm32h7xx_hal_qspi.c:527:13
	ldr	r1, [r4]
.Ltmp59:
	.loc	7 533 28                        @ ../Drivers/STM32H7xx_HAL_Driver/Src/stm32h7xx_hal_qspi.c:533:28
	ldr	r2, [r4, #48]
	.loc	7 534 29                        @ ../Drivers/STM32H7xx_HAL_Driver/Src/stm32h7xx_hal_qspi.c:534:29
	ldr	r3, [r4, #56]
	.loc	7 533 28                        @ ../Drivers/STM32H7xx_HAL_Driver/Src/stm32h7xx_hal_qspi.c:533:28
	adds	r2, #1
	str	r2, [r4, #48]
	.loc	7 534 29                        @ ../Drivers/STM32H7xx_HAL_Driver/Src/stm32h7xx_hal_qspi.c:534:29
	subs	r2, r3, #1
	str	r2, [r4, #56]
.Ltmp60:
	.loc	7 527 13                        @ ../Drivers/STM32H7xx_HAL_Driver/Src/stm32h7xx_hal_qspi.c:527:13
	ldr	r2, [r1, #8]
	.loc	7 527 7 is_stmt 0               @ ../Drivers/STM32H7xx_HAL_Driver/Src/stm32h7xx_hal_qspi.c:527:7
	lsls	r2, r2, #29
	bpl	.LBB5_32
.Ltmp61:
@ %bb.17:                               @   in Loop: Header=BB5_16 Depth=1
	@DEBUG_VALUE: HAL_QSPI_IRQHandler:data_reg <- [DW_OP_plus_uconst 32, DW_OP_stack_value] $r0
	@DEBUG_VALUE: HAL_QSPI_IRQHandler:hqspi <- $r4
	.loc	7 529 20 is_stmt 1              @ ../Drivers/STM32H7xx_HAL_Driver/Src/stm32h7xx_hal_qspi.c:529:20
	ldr	r2, [r4, #56]
.Ltmp62:
	.loc	7 529 13 is_stmt 0              @ ../Drivers/STM32H7xx_HAL_Driver/Src/stm32h7xx_hal_qspi.c:529:13
	cmp	r2, #0
	bne	.LBB5_16
	b	.LBB5_31
.Ltmp63:
	.p2align	2
.LBB5_18:
	@DEBUG_VALUE: HAL_QSPI_IRQHandler:itsource <- $r1
	@DEBUG_VALUE: HAL_QSPI_IRQHandler:flag <- $r2
	@DEBUG_VALUE: HAL_QSPI_IRQHandler:hqspi <- $r4
	.loc	7 683 41 is_stmt 1              @ ../Drivers/STM32H7xx_HAL_Driver/Src/stm32h7xx_hal_qspi.c:683:41
	lsls	r3, r2, #28
	bpl	.LBB5_26
.Ltmp64:
@ %bb.19:
	@DEBUG_VALUE: HAL_QSPI_IRQHandler:itsource <- $r1
	@DEBUG_VALUE: HAL_QSPI_IRQHandler:flag <- $r2
	@DEBUG_VALUE: HAL_QSPI_IRQHandler:hqspi <- $r4
	.loc	7 0 41 is_stmt 0                @ ../Drivers/STM32H7xx_HAL_Driver/Src/stm32h7xx_hal_qspi.c:0:41
	ands	r3, r1, #524288
	.loc	7 683 41                        @ ../Drivers/STM32H7xx_HAL_Driver/Src/stm32h7xx_hal_qspi.c:683:41
	beq	.LBB5_26
.Ltmp65:
@ %bb.20:
	@DEBUG_VALUE: HAL_QSPI_IRQHandler:itsource <- $r1
	@DEBUG_VALUE: HAL_QSPI_IRQHandler:flag <- $r2
	@DEBUG_VALUE: HAL_QSPI_IRQHandler:hqspi <- $r4
	.loc	7 0 41                          @ ../Drivers/STM32H7xx_HAL_Driver/Src/stm32h7xx_hal_qspi.c:0:41
	movs	r1, #8
.Ltmp66:
	.loc	7 686 5 is_stmt 1               @ ../Drivers/STM32H7xx_HAL_Driver/Src/stm32h7xx_hal_qspi.c:686:5
	str	r1, [r0, #12]
.Ltmp67:
	.loc	7 689 8                         @ ../Drivers/STM32H7xx_HAL_Driver/Src/stm32h7xx_hal_qspi.c:689:8
	ldr	r1, [r0]
.Ltmp68:
	.loc	7 689 8 is_stmt 0               @ ../Drivers/STM32H7xx_HAL_Driver/Src/stm32h7xx_hal_qspi.c:689:8
	lsls	r1, r1, #9
	bpl	.LBB5_22
.Ltmp69:
@ %bb.21:
	@DEBUG_VALUE: HAL_QSPI_IRQHandler:flag <- $r2
	@DEBUG_VALUE: HAL_QSPI_IRQHandler:hqspi <- $r4
	.loc	7 692 7 is_stmt 1               @ ../Drivers/STM32H7xx_HAL_Driver/Src/stm32h7xx_hal_qspi.c:692:7
	ldr	r1, [r0]
	bic	r1, r1, #589824
	str	r1, [r0]
	movs	r0, #1
	.loc	7 695 20                        @ ../Drivers/STM32H7xx_HAL_Driver/Src/stm32h7xx_hal_qspi.c:695:20
	strb.w	r0, [r4, #65]
.Ltmp70:
.LBB5_22:
	@DEBUG_VALUE: HAL_QSPI_IRQHandler:flag <- $r2
	@DEBUG_VALUE: HAL_QSPI_IRQHandler:hqspi <- $r4
	.loc	7 702 5                         @ ../Drivers/STM32H7xx_HAL_Driver/Src/stm32h7xx_hal_qspi.c:702:5
	mov	r0, r4
	pop.w	{r4, lr}
.Ltmp71:
	@DEBUG_VALUE: HAL_QSPI_IRQHandler:hqspi <- [DW_OP_LLVM_entry_value 1] $r0
	b	HAL_QSPI_StatusMatchCallback
.Ltmp72:
	.p2align	2
.LBB5_23:
	@DEBUG_VALUE: HAL_QSPI_IRQHandler:flag <- $r2
	@DEBUG_VALUE: HAL_QSPI_IRQHandler:hqspi <- $r4
	.loc	7 591 20                        @ ../Drivers/STM32H7xx_HAL_Driver/Src/stm32h7xx_hal_qspi.c:591:20
	ldrb.w	r1, [r4, #65]
.Ltmp73:
	.loc	7 591 13 is_stmt 0              @ ../Drivers/STM32H7xx_HAL_Driver/Src/stm32h7xx_hal_qspi.c:591:13
	cmp	r1, #34
	bne	.LBB5_33
.Ltmp74:
@ %bb.24:
	@DEBUG_VALUE: HAL_QSPI_IRQHandler:flag <- $r2
	@DEBUG_VALUE: HAL_QSPI_IRQHandler:hqspi <- $r4
	.loc	7 593 29 is_stmt 1              @ ../Drivers/STM32H7xx_HAL_Driver/Src/stm32h7xx_hal_qspi.c:593:29
	ldr	r1, [r0]
.Ltmp75:
	.loc	7 593 11 is_stmt 0              @ ../Drivers/STM32H7xx_HAL_Driver/Src/stm32h7xx_hal_qspi.c:593:11
	lsls	r1, r1, #29
	bmi	.LBB5_38
.Ltmp76:
@ %bb.25:
	@DEBUG_VALUE: HAL_QSPI_IRQHandler:flag <- $r2
	@DEBUG_VALUE: HAL_QSPI_IRQHandler:hqspi <- $r4
	@DEBUG_VALUE: HAL_QSPI_IRQHandler:data_reg <- [DW_OP_plus_uconst 32, DW_OP_stack_value] $r0
	.loc	7 605 15 is_stmt 1              @ ../Drivers/STM32H7xx_HAL_Driver/Src/stm32h7xx_hal_qspi.c:605:15
	ldr	r1, [r0, #8]
	b	.LBB5_44
.Ltmp77:
	.p2align	2
.LBB5_26:
	@DEBUG_VALUE: HAL_QSPI_IRQHandler:itsource <- $r1
	@DEBUG_VALUE: HAL_QSPI_IRQHandler:flag <- $r2
	@DEBUG_VALUE: HAL_QSPI_IRQHandler:hqspi <- $r4
	.loc	7 707 41                        @ ../Drivers/STM32H7xx_HAL_Driver/Src/stm32h7xx_hal_qspi.c:707:41
	lsls	r3, r2, #31
	it	ne
	andsne	r3, r1, #65536
	bne	.LBB5_35
.Ltmp78:
@ %bb.27:
	@DEBUG_VALUE: HAL_QSPI_IRQHandler:itsource <- $r1
	@DEBUG_VALUE: HAL_QSPI_IRQHandler:flag <- $r2
	@DEBUG_VALUE: HAL_QSPI_IRQHandler:hqspi <- $r4
	.loc	7 757 41                        @ ../Drivers/STM32H7xx_HAL_Driver/Src/stm32h7xx_hal_qspi.c:757:41
	lsls	r2, r2, #27
.Ltmp79:
	bpl	.LBB5_42
.Ltmp80:
@ %bb.28:
	@DEBUG_VALUE: HAL_QSPI_IRQHandler:itsource <- $r1
	@DEBUG_VALUE: HAL_QSPI_IRQHandler:hqspi <- $r4
	.loc	7 0 41 is_stmt 0                @ ../Drivers/STM32H7xx_HAL_Driver/Src/stm32h7xx_hal_qspi.c:0:41
	ands	r1, r1, #1048576
.Ltmp81:
	.loc	7 757 41                        @ ../Drivers/STM32H7xx_HAL_Driver/Src/stm32h7xx_hal_qspi.c:757:41
	beq	.LBB5_42
.Ltmp82:
@ %bb.29:
	@DEBUG_VALUE: HAL_QSPI_IRQHandler:hqspi <- $r4
	.loc	7 0 41                          @ ../Drivers/STM32H7xx_HAL_Driver/Src/stm32h7xx_hal_qspi.c:0:41
	movs	r1, #16
.Ltmp83:
	.loc	7 760 5 is_stmt 1               @ ../Drivers/STM32H7xx_HAL_Driver/Src/stm32h7xx_hal_qspi.c:760:5
	str	r1, [r0, #12]
	.loc	7 766 5                         @ ../Drivers/STM32H7xx_HAL_Driver/Src/stm32h7xx_hal_qspi.c:766:5
	mov	r0, r4
	pop.w	{r4, lr}
.Ltmp84:
	@DEBUG_VALUE: HAL_QSPI_IRQHandler:hqspi <- [DW_OP_LLVM_entry_value 1] $r0
	b	HAL_QSPI_TimeOutCallback
.Ltmp85:
	.p2align	2
.LBB5_30:
	@DEBUG_VALUE: HAL_QSPI_IRQHandler:data_reg <- [DW_OP_plus_uconst 32, DW_OP_stack_value] $r0
	@DEBUG_VALUE: HAL_QSPI_IRQHandler:flag <- $r2
	@DEBUG_VALUE: HAL_QSPI_IRQHandler:hqspi <- $r4
	.loc	7 0 5 is_stmt 0                 @ ../Drivers/STM32H7xx_HAL_Driver/Src/stm32h7xx_hal_qspi.c:0:5
	mov	r1, r0
.Ltmp86:
.LBB5_31:
	@DEBUG_VALUE: HAL_QSPI_IRQHandler:data_reg <- [DW_OP_plus_uconst 32, DW_OP_stack_value] $r0
	@DEBUG_VALUE: HAL_QSPI_IRQHandler:hqspi <- $r4
	ldr	r0, [r1]
.Ltmp87:
	bic	r0, r0, #262144
	str	r0, [r1]
.Ltmp88:
.LBB5_32:
	@DEBUG_VALUE: HAL_QSPI_IRQHandler:hqspi <- $r4
	.loc	7 554 5 is_stmt 1               @ ../Drivers/STM32H7xx_HAL_Driver/Src/stm32h7xx_hal_qspi.c:554:5
	mov	r0, r4
	pop.w	{r4, lr}
.Ltmp89:
	@DEBUG_VALUE: HAL_QSPI_IRQHandler:hqspi <- [DW_OP_LLVM_entry_value 1] $r0
	b	HAL_QSPI_FifoThresholdCallback
.Ltmp90:
	.p2align	2
.LBB5_33:
	@DEBUG_VALUE: HAL_QSPI_IRQHandler:flag <- $r2
	@DEBUG_VALUE: HAL_QSPI_IRQHandler:hqspi <- $r4
	.loc	7 633 20                        @ ../Drivers/STM32H7xx_HAL_Driver/Src/stm32h7xx_hal_qspi.c:633:20
	ldrb.w	r1, [r4, #65]
.Ltmp91:
	.loc	7 633 13 is_stmt 0              @ ../Drivers/STM32H7xx_HAL_Driver/Src/stm32h7xx_hal_qspi.c:633:13
	cmp	r1, #2
	bne	.LBB5_39
.Ltmp92:
@ %bb.34:
	@DEBUG_VALUE: HAL_QSPI_IRQHandler:flag <- $r2
	@DEBUG_VALUE: HAL_QSPI_IRQHandler:hqspi <- $r4
	.loc	7 0 13                          @ ../Drivers/STM32H7xx_HAL_Driver/Src/stm32h7xx_hal_qspi.c:0:13
	movs	r0, #1
.Ltmp93:
	.loc	7 636 20 is_stmt 1              @ ../Drivers/STM32H7xx_HAL_Driver/Src/stm32h7xx_hal_qspi.c:636:20
	strb.w	r0, [r4, #65]
	.loc	7 642 7                         @ ../Drivers/STM32H7xx_HAL_Driver/Src/stm32h7xx_hal_qspi.c:642:7
	mov	r0, r4
	pop.w	{r4, lr}
.Ltmp94:
	@DEBUG_VALUE: HAL_QSPI_IRQHandler:hqspi <- [DW_OP_LLVM_entry_value 1] $r0
	b	HAL_QSPI_CmdCpltCallback
.Ltmp95:
	.p2align	2
.LBB5_35:
	@DEBUG_VALUE: HAL_QSPI_IRQHandler:itsource <- $r1
	@DEBUG_VALUE: HAL_QSPI_IRQHandler:flag <- $r2
	@DEBUG_VALUE: HAL_QSPI_IRQHandler:hqspi <- $r4
	.loc	7 0 7 is_stmt 0                 @ ../Drivers/STM32H7xx_HAL_Driver/Src/stm32h7xx_hal_qspi.c:0:7
	movs	r1, #1
.Ltmp96:
	.loc	7 710 5 is_stmt 1               @ ../Drivers/STM32H7xx_HAL_Driver/Src/stm32h7xx_hal_qspi.c:710:5
	str	r1, [r0, #12]
	.loc	7 713 5                         @ ../Drivers/STM32H7xx_HAL_Driver/Src/stm32h7xx_hal_qspi.c:713:5
	ldr	r2, [r0]
.Ltmp97:
	bic	r2, r2, #983040
	str	r2, [r0]
	.loc	7 716 22                        @ ../Drivers/STM32H7xx_HAL_Driver/Src/stm32h7xx_hal_qspi.c:716:22
	ldr	r2, [r4, #68]
	orr	r2, r2, #2
	str	r2, [r4, #68]
.Ltmp98:
	.loc	7 718 27                        @ ../Drivers/STM32H7xx_HAL_Driver/Src/stm32h7xx_hal_qspi.c:718:27
	ldr	r2, [r0]
.Ltmp99:
	.loc	7 718 9 is_stmt 0               @ ../Drivers/STM32H7xx_HAL_Driver/Src/stm32h7xx_hal_qspi.c:718:9
	lsls	r2, r2, #29
	bmi	.LBB5_46
.Ltmp100:
@ %bb.36:
	@DEBUG_VALUE: HAL_QSPI_IRQHandler:hqspi <- $r4
	.loc	7 745 20 is_stmt 1              @ ../Drivers/STM32H7xx_HAL_Driver/Src/stm32h7xx_hal_qspi.c:745:20
	strb.w	r1, [r4, #65]
.Ltmp101:
.LBB5_37:
	@DEBUG_VALUE: HAL_QSPI_IRQHandler:hqspi <- $r4
	.loc	7 0 0 is_stmt 0                 @ ../Drivers/STM32H7xx_HAL_Driver/Src/stm32h7xx_hal_qspi.c:0:0
	mov	r0, r4
	pop.w	{r4, lr}
.Ltmp102:
	@DEBUG_VALUE: HAL_QSPI_IRQHandler:hqspi <- [DW_OP_LLVM_entry_value 1] $r0
	b	HAL_QSPI_ErrorCallback
.Ltmp103:
	.p2align	2
.LBB5_38:
	@DEBUG_VALUE: HAL_QSPI_IRQHandler:flag <- $r2
	@DEBUG_VALUE: HAL_QSPI_IRQHandler:hqspi <- $r4
	.loc	7 597 9 is_stmt 1               @ ../Drivers/STM32H7xx_HAL_Driver/Src/stm32h7xx_hal_qspi.c:597:9
	ldr	r1, [r0]
	bic	r1, r1, #4
	str	r1, [r0]
	.loc	7 600 9                         @ ../Drivers/STM32H7xx_HAL_Driver/Src/stm32h7xx_hal_qspi.c:600:9
	ldr	r0, [r4, #60]
	ldr	r0, [r0]
	ldr	r1, [r0, #12]
	bic	r1, r1, #1
	str	r1, [r0, #12]
	b	.LBB5_45
.Ltmp104:
	.p2align	2
.LBB5_39:
	@DEBUG_VALUE: HAL_QSPI_IRQHandler:flag <- $r2
	@DEBUG_VALUE: HAL_QSPI_IRQHandler:hqspi <- $r4
	.loc	7 645 20                        @ ../Drivers/STM32H7xx_HAL_Driver/Src/stm32h7xx_hal_qspi.c:645:20
	ldrb.w	r1, [r4, #65]
.Ltmp105:
	.loc	7 645 13 is_stmt 0              @ ../Drivers/STM32H7xx_HAL_Driver/Src/stm32h7xx_hal_qspi.c:645:13
	cmp	r1, #8
	bne	.LBB5_42
.Ltmp106:
@ %bb.40:
	@DEBUG_VALUE: HAL_QSPI_IRQHandler:flag <- $r2
	@DEBUG_VALUE: HAL_QSPI_IRQHandler:hqspi <- $r4
	.loc	7 648 7 is_stmt 1               @ ../Drivers/STM32H7xx_HAL_Driver/Src/stm32h7xx_hal_qspi.c:648:7
	ldr	r1, [r0, #20]
	bic	r1, r1, #201326592
	str	r1, [r0, #20]
	movs	r0, #1
	.loc	7 651 20                        @ ../Drivers/STM32H7xx_HAL_Driver/Src/stm32h7xx_hal_qspi.c:651:20
	strb.w	r0, [r4, #65]
.Ltmp107:
	.loc	7 653 18                        @ ../Drivers/STM32H7xx_HAL_Driver/Src/stm32h7xx_hal_qspi.c:653:18
	ldr	r0, [r4, #68]
.Ltmp108:
	.loc	7 653 11 is_stmt 0              @ ../Drivers/STM32H7xx_HAL_Driver/Src/stm32h7xx_hal_qspi.c:653:11
	cmp	r0, #0
	bne	.LBB5_37
.Ltmp109:
@ %bb.41:
	@DEBUG_VALUE: HAL_QSPI_IRQHandler:flag <- $r2
	@DEBUG_VALUE: HAL_QSPI_IRQHandler:hqspi <- $r4
	.loc	7 661 9 is_stmt 1               @ ../Drivers/STM32H7xx_HAL_Driver/Src/stm32h7xx_hal_qspi.c:661:9
	mov	r0, r4
	pop.w	{r4, lr}
.Ltmp110:
	@DEBUG_VALUE: HAL_QSPI_IRQHandler:hqspi <- [DW_OP_LLVM_entry_value 1] $r0
	b	HAL_QSPI_AbortCpltCallback
.Ltmp111:
	.p2align	2
.LBB5_42:
	@DEBUG_VALUE: HAL_QSPI_IRQHandler:hqspi <- $r4
	.loc	7 774 1                         @ ../Drivers/STM32H7xx_HAL_Driver/Src/stm32h7xx_hal_qspi.c:774:1
	pop	{r4, pc}
.Ltmp112:
	.p2align	2
.LBB5_43:                               @   in Loop: Header=BB5_44 Depth=1
	@DEBUG_VALUE: HAL_QSPI_IRQHandler:data_reg <- [DW_OP_plus_uconst 32, DW_OP_stack_value] $r0
	@DEBUG_VALUE: HAL_QSPI_IRQHandler:hqspi <- $r4
	.loc	7 610 34                        @ ../Drivers/STM32H7xx_HAL_Driver/Src/stm32h7xx_hal_qspi.c:610:34
	ldrb.w	r1, [r0, #32]
	.loc	7 610 21 is_stmt 0              @ ../Drivers/STM32H7xx_HAL_Driver/Src/stm32h7xx_hal_qspi.c:610:21
	ldr	r2, [r4, #48]
	.loc	7 610 32                        @ ../Drivers/STM32H7xx_HAL_Driver/Src/stm32h7xx_hal_qspi.c:610:32
	strb	r1, [r2]
.Ltmp113:
	.loc	7 605 15 is_stmt 1              @ ../Drivers/STM32H7xx_HAL_Driver/Src/stm32h7xx_hal_qspi.c:605:15
	ldr	r1, [r4]
.Ltmp114:
	.loc	7 611 30                        @ ../Drivers/STM32H7xx_HAL_Driver/Src/stm32h7xx_hal_qspi.c:611:30
	ldr	r2, [r4, #48]
	.loc	7 612 31                        @ ../Drivers/STM32H7xx_HAL_Driver/Src/stm32h7xx_hal_qspi.c:612:31
	ldr	r3, [r4, #56]
	.loc	7 611 30                        @ ../Drivers/STM32H7xx_HAL_Driver/Src/stm32h7xx_hal_qspi.c:611:30
	adds	r2, #1
	str	r2, [r4, #48]
	.loc	7 612 31                        @ ../Drivers/STM32H7xx_HAL_Driver/Src/stm32h7xx_hal_qspi.c:612:31
	subs	r2, r3, #1
	str	r2, [r4, #56]
.Ltmp115:
	.loc	7 605 15                        @ ../Drivers/STM32H7xx_HAL_Driver/Src/stm32h7xx_hal_qspi.c:605:15
	ldr	r1, [r1, #8]
.Ltmp116:
.LBB5_44:                               @ =>This Inner Loop Header: Depth=1
	@DEBUG_VALUE: HAL_QSPI_IRQHandler:data_reg <- [DW_OP_plus_uconst 32, DW_OP_stack_value] $r0
	@DEBUG_VALUE: HAL_QSPI_IRQHandler:hqspi <- $r4
	.loc	7 605 9 is_stmt 0               @ ../Drivers/STM32H7xx_HAL_Driver/Src/stm32h7xx_hal_qspi.c:605:9
	tst.w	r1, #16128
.Ltmp117:
	.loc	7 607 22 is_stmt 1              @ ../Drivers/STM32H7xx_HAL_Driver/Src/stm32h7xx_hal_qspi.c:607:22
	itt	ne
	ldrne	r1, [r4, #56]
.Ltmp118:
	.loc	7 607 15 is_stmt 0              @ ../Drivers/STM32H7xx_HAL_Driver/Src/stm32h7xx_hal_qspi.c:607:15
	cmpne	r1, #0
	bne	.LBB5_43
.Ltmp119:
.LBB5_45:
	@DEBUG_VALUE: HAL_QSPI_IRQHandler:hqspi <- $r4
	.loc	7 0 15                          @ ../Drivers/STM32H7xx_HAL_Driver/Src/stm32h7xx_hal_qspi.c:0:15
	movs	r0, #1
	.loc	7 624 20 is_stmt 1              @ ../Drivers/STM32H7xx_HAL_Driver/Src/stm32h7xx_hal_qspi.c:624:20
	strb.w	r0, [r4, #65]
	.loc	7 630 7                         @ ../Drivers/STM32H7xx_HAL_Driver/Src/stm32h7xx_hal_qspi.c:630:7
	mov	r0, r4
	pop.w	{r4, lr}
.Ltmp120:
	@DEBUG_VALUE: HAL_QSPI_IRQHandler:hqspi <- [DW_OP_LLVM_entry_value 1] $r0
	@DEBUG_VALUE: HAL_QSPI_IRQHandler:hqspi <- [DW_OP_LLVM_entry_value 1] $r0
	b	HAL_QSPI_RxCpltCallback
.Ltmp121:
	.p2align	2
.LBB5_46:
	@DEBUG_VALUE: HAL_QSPI_IRQHandler:hqspi <- $r4
	.loc	7 722 7                         @ ../Drivers/STM32H7xx_HAL_Driver/Src/stm32h7xx_hal_qspi.c:722:7
	ldr	r1, [r0]
	bic	r1, r1, #4
	str	r1, [r0]
	.loc	7 725 14                        @ ../Drivers/STM32H7xx_HAL_Driver/Src/stm32h7xx_hal_qspi.c:725:14
	ldr	r0, [r4, #60]
	.loc	7 725 39 is_stmt 0              @ ../Drivers/STM32H7xx_HAL_Driver/Src/stm32h7xx_hal_qspi.c:725:39
	movw	r1, :lower16:(QSPI_DMAAbortCplt-(.LPC5_0+4))
	movt	r1, :upper16:(QSPI_DMAAbortCplt-(.LPC5_0+4))
.LPC5_0:
	add	r1, pc
	str	r1, [r0, #88]
.Ltmp122:
	.loc	7 726 11 is_stmt 1              @ ../Drivers/STM32H7xx_HAL_Driver/Src/stm32h7xx_hal_qspi.c:726:11
	bl	HAL_MDMA_Abort_IT
.Ltmp123:
	.loc	7 726 11 is_stmt 0              @ ../Drivers/STM32H7xx_HAL_Driver/Src/stm32h7xx_hal_qspi.c:726:11
	cmp	r0, #0
.Ltmp124:
	.loc	7 774 1 is_stmt 1               @ ../Drivers/STM32H7xx_HAL_Driver/Src/stm32h7xx_hal_qspi.c:774:1
	it	eq
	popeq	{r4, pc}
.Ltmp125:
.LBB5_47:
	.loc	7 729 26                        @ ../Drivers/STM32H7xx_HAL_Driver/Src/stm32h7xx_hal_qspi.c:729:26
	ldr	r0, [r4, #68]
	orr	r0, r0, #4
	str	r0, [r4, #68]
	movs	r0, #1
	.loc	7 732 22                        @ ../Drivers/STM32H7xx_HAL_Driver/Src/stm32h7xx_hal_qspi.c:732:22
	strb.w	r0, [r4, #65]
.Ltmp126:
	.loc	7 0 0 is_stmt 0                 @ ../Drivers/STM32H7xx_HAL_Driver/Src/stm32h7xx_hal_qspi.c:0:0
	mov	r0, r4
	pop.w	{r4, lr}
.Ltmp127:
	b	HAL_QSPI_ErrorCallback
.Ltmp128:
.Lfunc_end5:
	.size	HAL_QSPI_IRQHandler, .Lfunc_end5-HAL_QSPI_IRQHandler
	.cfi_endproc
	.cantunwind
	.fnend
                                        @ -- End function
	.hidden	HAL_QSPI_FifoThresholdCallback  @ -- Begin function HAL_QSPI_FifoThresholdCallback
	.weak	HAL_QSPI_FifoThresholdCallback
	.p2align	3
	.type	HAL_QSPI_FifoThresholdCallback,%function
	.code	16                              @ @HAL_QSPI_FifoThresholdCallback
	.thumb_func
HAL_QSPI_FifoThresholdCallback:
.Lfunc_begin6:
	.loc	7 1862 0 is_stmt 1              @ ../Drivers/STM32H7xx_HAL_Driver/Src/stm32h7xx_hal_qspi.c:1862:0
	.fnstart
	.cfi_startproc
@ %bb.0:
	@DEBUG_VALUE: HAL_QSPI_FifoThresholdCallback:hqspi <- $r0
	.loc	7 1869 1 prologue_end           @ ../Drivers/STM32H7xx_HAL_Driver/Src/stm32h7xx_hal_qspi.c:1869:1
	bx	lr
.Ltmp129:
.Lfunc_end6:
	.size	HAL_QSPI_FifoThresholdCallback, .Lfunc_end6-HAL_QSPI_FifoThresholdCallback
	.cfi_endproc
	.cantunwind
	.fnend
                                        @ -- End function
	.hidden	HAL_QSPI_TxCpltCallback         @ -- Begin function HAL_QSPI_TxCpltCallback
	.weak	HAL_QSPI_TxCpltCallback
	.p2align	3
	.type	HAL_QSPI_TxCpltCallback,%function
	.code	16                              @ @HAL_QSPI_TxCpltCallback
	.thumb_func
HAL_QSPI_TxCpltCallback:
.Lfunc_begin7:
	.loc	7 1846 0                        @ ../Drivers/STM32H7xx_HAL_Driver/Src/stm32h7xx_hal_qspi.c:1846:0
	.fnstart
	.cfi_startproc
@ %bb.0:
	@DEBUG_VALUE: HAL_QSPI_TxCpltCallback:hqspi <- $r0
	.loc	7 1853 1 prologue_end           @ ../Drivers/STM32H7xx_HAL_Driver/Src/stm32h7xx_hal_qspi.c:1853:1
	bx	lr
.Ltmp130:
.Lfunc_end7:
	.size	HAL_QSPI_TxCpltCallback, .Lfunc_end7-HAL_QSPI_TxCpltCallback
	.cfi_endproc
	.cantunwind
	.fnend
                                        @ -- End function
	.hidden	HAL_QSPI_RxCpltCallback         @ -- Begin function HAL_QSPI_RxCpltCallback
	.weak	HAL_QSPI_RxCpltCallback
	.p2align	3
	.type	HAL_QSPI_RxCpltCallback,%function
	.code	16                              @ @HAL_QSPI_RxCpltCallback
	.thumb_func
HAL_QSPI_RxCpltCallback:
.Lfunc_begin8:
	.loc	7 1831 0                        @ ../Drivers/STM32H7xx_HAL_Driver/Src/stm32h7xx_hal_qspi.c:1831:0
	.fnstart
	.cfi_startproc
@ %bb.0:
	@DEBUG_VALUE: HAL_QSPI_RxCpltCallback:hqspi <- $r0
	.loc	7 1838 1 prologue_end           @ ../Drivers/STM32H7xx_HAL_Driver/Src/stm32h7xx_hal_qspi.c:1838:1
	bx	lr
.Ltmp131:
.Lfunc_end8:
	.size	HAL_QSPI_RxCpltCallback, .Lfunc_end8-HAL_QSPI_RxCpltCallback
	.cfi_endproc
	.cantunwind
	.fnend
                                        @ -- End function
	.hidden	HAL_QSPI_CmdCpltCallback        @ -- Begin function HAL_QSPI_CmdCpltCallback
	.weak	HAL_QSPI_CmdCpltCallback
	.p2align	3
	.type	HAL_QSPI_CmdCpltCallback,%function
	.code	16                              @ @HAL_QSPI_CmdCpltCallback
	.thumb_func
HAL_QSPI_CmdCpltCallback:
.Lfunc_begin9:
	.loc	7 1816 0                        @ ../Drivers/STM32H7xx_HAL_Driver/Src/stm32h7xx_hal_qspi.c:1816:0
	.fnstart
	.cfi_startproc
@ %bb.0:
	@DEBUG_VALUE: HAL_QSPI_CmdCpltCallback:hqspi <- $r0
	.loc	7 1823 1 prologue_end           @ ../Drivers/STM32H7xx_HAL_Driver/Src/stm32h7xx_hal_qspi.c:1823:1
	bx	lr
.Ltmp132:
.Lfunc_end9:
	.size	HAL_QSPI_CmdCpltCallback, .Lfunc_end9-HAL_QSPI_CmdCpltCallback
	.cfi_endproc
	.cantunwind
	.fnend
                                        @ -- End function
	.hidden	HAL_QSPI_AbortCpltCallback      @ -- Begin function HAL_QSPI_AbortCpltCallback
	.weak	HAL_QSPI_AbortCpltCallback
	.p2align	3
	.type	HAL_QSPI_AbortCpltCallback,%function
	.code	16                              @ @HAL_QSPI_AbortCpltCallback
	.thumb_func
HAL_QSPI_AbortCpltCallback:
.Lfunc_begin10:
	.loc	7 1801 0                        @ ../Drivers/STM32H7xx_HAL_Driver/Src/stm32h7xx_hal_qspi.c:1801:0
	.fnstart
	.cfi_startproc
@ %bb.0:
	@DEBUG_VALUE: HAL_QSPI_AbortCpltCallback:hqspi <- $r0
	.loc	7 1808 1 prologue_end           @ ../Drivers/STM32H7xx_HAL_Driver/Src/stm32h7xx_hal_qspi.c:1808:1
	bx	lr
.Ltmp133:
.Lfunc_end10:
	.size	HAL_QSPI_AbortCpltCallback, .Lfunc_end10-HAL_QSPI_AbortCpltCallback
	.cfi_endproc
	.cantunwind
	.fnend
                                        @ -- End function
	.hidden	HAL_QSPI_ErrorCallback          @ -- Begin function HAL_QSPI_ErrorCallback
	.weak	HAL_QSPI_ErrorCallback
	.p2align	3
	.type	HAL_QSPI_ErrorCallback,%function
	.code	16                              @ @HAL_QSPI_ErrorCallback
	.thumb_func
HAL_QSPI_ErrorCallback:
.Lfunc_begin11:
	.loc	7 1786 0                        @ ../Drivers/STM32H7xx_HAL_Driver/Src/stm32h7xx_hal_qspi.c:1786:0
	.fnstart
	.cfi_startproc
@ %bb.0:
	@DEBUG_VALUE: HAL_QSPI_ErrorCallback:hqspi <- $r0
	.loc	7 1793 1 prologue_end           @ ../Drivers/STM32H7xx_HAL_Driver/Src/stm32h7xx_hal_qspi.c:1793:1
	bx	lr
.Ltmp134:
.Lfunc_end11:
	.size	HAL_QSPI_ErrorCallback, .Lfunc_end11-HAL_QSPI_ErrorCallback
	.cfi_endproc
	.cantunwind
	.fnend
                                        @ -- End function
	.hidden	HAL_QSPI_StatusMatchCallback    @ -- Begin function HAL_QSPI_StatusMatchCallback
	.weak	HAL_QSPI_StatusMatchCallback
	.p2align	3
	.type	HAL_QSPI_StatusMatchCallback,%function
	.code	16                              @ @HAL_QSPI_StatusMatchCallback
	.thumb_func
HAL_QSPI_StatusMatchCallback:
.Lfunc_begin12:
	.loc	7 1877 0                        @ ../Drivers/STM32H7xx_HAL_Driver/Src/stm32h7xx_hal_qspi.c:1877:0
	.fnstart
	.cfi_startproc
@ %bb.0:
	@DEBUG_VALUE: HAL_QSPI_StatusMatchCallback:hqspi <- $r0
	.loc	7 1884 1 prologue_end           @ ../Drivers/STM32H7xx_HAL_Driver/Src/stm32h7xx_hal_qspi.c:1884:1
	bx	lr
.Ltmp135:
.Lfunc_end12:
	.size	HAL_QSPI_StatusMatchCallback, .Lfunc_end12-HAL_QSPI_StatusMatchCallback
	.cfi_endproc
	.cantunwind
	.fnend
                                        @ -- End function
	.p2align	3                               @ -- Begin function QSPI_DMAAbortCplt
	.type	QSPI_DMAAbortCplt,%function
	.code	16                              @ @QSPI_DMAAbortCplt
	.thumb_func
QSPI_DMAAbortCplt:
.Lfunc_begin13:
	.loc	7 2436 0                        @ ../Drivers/STM32H7xx_HAL_Driver/Src/stm32h7xx_hal_qspi.c:2436:0
	.fnstart
	.cfi_startproc
@ %bb.0:
	@DEBUG_VALUE: QSPI_DMAAbortCplt:hmdma <- $r0
	.loc	7 2437 62 prologue_end          @ ../Drivers/STM32H7xx_HAL_Driver/Src/stm32h7xx_hal_qspi.c:2437:62
	ldr	r0, [r0, #64]
.Ltmp136:
	@DEBUG_VALUE: QSPI_DMAAbortCplt:hmdma <- [DW_OP_LLVM_entry_value 1] $r0
	@DEBUG_VALUE: QSPI_DMAAbortCplt:hqspi <- $r0
	.loc	7 0 62 is_stmt 0                @ ../Drivers/STM32H7xx_HAL_Driver/Src/stm32h7xx_hal_qspi.c:0:62
	movs	r1, #0
	.loc	7 2439 22 is_stmt 1             @ ../Drivers/STM32H7xx_HAL_Driver/Src/stm32h7xx_hal_qspi.c:2439:22
	str	r1, [r0, #56]
	.loc	7 2440 22                       @ ../Drivers/STM32H7xx_HAL_Driver/Src/stm32h7xx_hal_qspi.c:2440:22
	str	r1, [r0, #44]
.Ltmp137:
	.loc	7 2442 13                       @ ../Drivers/STM32H7xx_HAL_Driver/Src/stm32h7xx_hal_qspi.c:2442:13
	ldrb.w	r1, [r0, #65]
.Ltmp138:
	.loc	7 2442 6 is_stmt 0              @ ../Drivers/STM32H7xx_HAL_Driver/Src/stm32h7xx_hal_qspi.c:2442:6
	cmp	r1, #8
	bne	.LBB13_2
.Ltmp139:
@ %bb.1:
	@DEBUG_VALUE: QSPI_DMAAbortCplt:hqspi <- $r0
	@DEBUG_VALUE: QSPI_DMAAbortCplt:hmdma <- [DW_OP_LLVM_entry_value 1] $r0
	.loc	7 2446 5 is_stmt 1              @ ../Drivers/STM32H7xx_HAL_Driver/Src/stm32h7xx_hal_qspi.c:2446:5
	ldr	r0, [r0]
.Ltmp140:
	.loc	7 0 5 is_stmt 0                 @ ../Drivers/STM32H7xx_HAL_Driver/Src/stm32h7xx_hal_qspi.c:0:5
	movs	r1, #2
	.loc	7 2446 5                        @ ../Drivers/STM32H7xx_HAL_Driver/Src/stm32h7xx_hal_qspi.c:2446:5
	str	r1, [r0, #12]
	.loc	7 2449 5 is_stmt 1              @ ../Drivers/STM32H7xx_HAL_Driver/Src/stm32h7xx_hal_qspi.c:2449:5
	ldr	r1, [r0]
	orr	r1, r1, #131072
	str	r1, [r0]
	.loc	7 2452 5                        @ ../Drivers/STM32H7xx_HAL_Driver/Src/stm32h7xx_hal_qspi.c:2452:5
	ldr	r1, [r0]
	orr	r1, r1, #2
	str	r1, [r0]
.Ltmp141:
	.loc	7 2467 1                        @ ../Drivers/STM32H7xx_HAL_Driver/Src/stm32h7xx_hal_qspi.c:2467:1
	bx	lr
.Ltmp142:
	.p2align	2
.LBB13_2:
	@DEBUG_VALUE: QSPI_DMAAbortCplt:hqspi <- $r0
	@DEBUG_VALUE: QSPI_DMAAbortCplt:hmdma <- [DW_OP_LLVM_entry_value 1] $r0
	.loc	7 0 1 is_stmt 0                 @ ../Drivers/STM32H7xx_HAL_Driver/Src/stm32h7xx_hal_qspi.c:0:1
	movs	r1, #1
.Ltmp143:
	.loc	7 2458 18 is_stmt 1             @ ../Drivers/STM32H7xx_HAL_Driver/Src/stm32h7xx_hal_qspi.c:2458:18
	strb.w	r1, [r0, #65]
.Ltmp144:
	.loc	7 2464 5                        @ ../Drivers/STM32H7xx_HAL_Driver/Src/stm32h7xx_hal_qspi.c:2464:5
	b	HAL_QSPI_ErrorCallback
.Ltmp145:
.Lfunc_end13:
	.size	QSPI_DMAAbortCplt, .Lfunc_end13-QSPI_DMAAbortCplt
	.cfi_endproc
	.cantunwind
	.fnend
                                        @ -- End function
	.hidden	HAL_QSPI_TimeOutCallback        @ -- Begin function HAL_QSPI_TimeOutCallback
	.weak	HAL_QSPI_TimeOutCallback
	.p2align	3
	.type	HAL_QSPI_TimeOutCallback,%function
	.code	16                              @ @HAL_QSPI_TimeOutCallback
	.thumb_func
HAL_QSPI_TimeOutCallback:
.Lfunc_begin14:
	.loc	7 1892 0                        @ ../Drivers/STM32H7xx_HAL_Driver/Src/stm32h7xx_hal_qspi.c:1892:0
	.fnstart
	.cfi_startproc
@ %bb.0:
	@DEBUG_VALUE: HAL_QSPI_TimeOutCallback:hqspi <- $r0
	.loc	7 1899 1 prologue_end           @ ../Drivers/STM32H7xx_HAL_Driver/Src/stm32h7xx_hal_qspi.c:1899:1
	bx	lr
.Ltmp146:
.Lfunc_end14:
	.size	HAL_QSPI_TimeOutCallback, .Lfunc_end14-HAL_QSPI_TimeOutCallback
	.cfi_endproc
	.cantunwind
	.fnend
                                        @ -- End function
	.hidden	HAL_QSPI_Command                @ -- Begin function HAL_QSPI_Command
	.globl	HAL_QSPI_Command
	.p2align	3
	.type	HAL_QSPI_Command,%function
	.code	16                              @ @HAL_QSPI_Command
	.thumb_func
HAL_QSPI_Command:
.Lfunc_begin15:
	.loc	7 785 0                         @ ../Drivers/STM32H7xx_HAL_Driver/Src/stm32h7xx_hal_qspi.c:785:0
	.fnstart
	.cfi_startproc
@ %bb.0:
	@DEBUG_VALUE: HAL_QSPI_Command:hqspi <- $r0
	@DEBUG_VALUE: HAL_QSPI_Command:cmd <- $r1
	@DEBUG_VALUE: HAL_QSPI_Command:Timeout <- $r2
	.save	{r4, r5, r7, lr}
	push	{r4, r5, r7, lr}
	.cfi_def_cfa_offset 16
	.cfi_offset lr, -4
	.cfi_offset r7, -8
	.cfi_offset r5, -12
	.cfi_offset r4, -16
	mov	r5, r1
.Ltmp147:
	@DEBUG_VALUE: HAL_QSPI_Command:cmd <- $r5
	@DEBUG_VALUE: HAL_QSPI_Command:cmd <- $r5
	mov	r4, r0
.Ltmp148:
	@DEBUG_VALUE: HAL_QSPI_Command:hqspi <- $r4
	@DEBUG_VALUE: HAL_QSPI_Command:hqspi <- $r4
	.loc	7 787 24 prologue_end           @ ../Drivers/STM32H7xx_HAL_Driver/Src/stm32h7xx_hal_qspi.c:787:24
	bl	HAL_GetTick
.Ltmp149:
	@DEBUG_VALUE: HAL_QSPI_Command:Timeout <- [DW_OP_LLVM_entry_value 1] $r2
	@DEBUG_VALUE: HAL_QSPI_Command:tickstart <- undef
	.loc	7 816 3                         @ ../Drivers/STM32H7xx_HAL_Driver/Src/stm32h7xx_hal_qspi.c:816:3
	ldrb.w	r0, [r4, #64]
.Ltmp150:
	.loc	7 816 3 is_stmt 0               @ ../Drivers/STM32H7xx_HAL_Driver/Src/stm32h7xx_hal_qspi.c:816:3
	cmp	r0, #1
	bne	.LBB15_2
.Ltmp151:
@ %bb.1:
	@DEBUG_VALUE: HAL_QSPI_Command:Timeout <- [DW_OP_LLVM_entry_value 1] $r2
	@DEBUG_VALUE: HAL_QSPI_Command:hqspi <- $r4
	@DEBUG_VALUE: HAL_QSPI_Command:cmd <- $r5
	.loc	7 0 3                           @ ../Drivers/STM32H7xx_HAL_Driver/Src/stm32h7xx_hal_qspi.c:0:3
	movs	r0, #2
	.loc	7 864 1 is_stmt 1               @ ../Drivers/STM32H7xx_HAL_Driver/Src/stm32h7xx_hal_qspi.c:864:1
	pop	{r4, r5, r7, pc}
.Ltmp152:
	.p2align	2
.LBB15_2:
	@DEBUG_VALUE: HAL_QSPI_Command:Timeout <- [DW_OP_LLVM_entry_value 1] $r2
	@DEBUG_VALUE: HAL_QSPI_Command:hqspi <- $r4
	@DEBUG_VALUE: HAL_QSPI_Command:cmd <- $r5
	.loc	7 0 1 is_stmt 0                 @ ../Drivers/STM32H7xx_HAL_Driver/Src/stm32h7xx_hal_qspi.c:0:1
	movs	r0, #1
.Ltmp153:
	.loc	7 816 3 is_stmt 1               @ ../Drivers/STM32H7xx_HAL_Driver/Src/stm32h7xx_hal_qspi.c:816:3
	strb.w	r0, [r4, #64]
.Ltmp154:
	.loc	7 818 13                        @ ../Drivers/STM32H7xx_HAL_Driver/Src/stm32h7xx_hal_qspi.c:818:13
	ldrb.w	r0, [r4, #65]
.Ltmp155:
	.loc	7 818 6 is_stmt 0               @ ../Drivers/STM32H7xx_HAL_Driver/Src/stm32h7xx_hal_qspi.c:818:6
	cmp	r0, #1
	mov.w	r0, #2
	bne	.LBB15_14
.Ltmp156:
@ %bb.3:
	@DEBUG_VALUE: HAL_QSPI_Command:Timeout <- [DW_OP_LLVM_entry_value 1] $r2
	@DEBUG_VALUE: HAL_QSPI_Command:hqspi <- $r4
	@DEBUG_VALUE: HAL_QSPI_Command:cmd <- $r5
	.loc	7 0 6                           @ ../Drivers/STM32H7xx_HAL_Driver/Src/stm32h7xx_hal_qspi.c:0:6
	movs	r1, #0
.Ltmp157:
	.loc	7 820 22 is_stmt 1              @ ../Drivers/STM32H7xx_HAL_Driver/Src/stm32h7xx_hal_qspi.c:820:22
	str	r1, [r4, #68]
	.loc	7 823 18                        @ ../Drivers/STM32H7xx_HAL_Driver/Src/stm32h7xx_hal_qspi.c:823:18
	strb.w	r0, [r4, #65]
	@DEBUG_VALUE: QSPI_WaitFlagStateUntilTimeout:Timeout <- undef
	@DEBUG_VALUE: QSPI_WaitFlagStateUntilTimeout:Tickstart <- undef
	@DEBUG_VALUE: QSPI_WaitFlagStateUntilTimeout:State <- 0
	@DEBUG_VALUE: QSPI_WaitFlagStateUntilTimeout:Flag <- 32
	@DEBUG_VALUE: QSPI_WaitFlagStateUntilTimeout:hqspi <- $r4
	ldr	r0, [r4]
.Ltmp158:
.LBB15_4:                               @ =>This Inner Loop Header: Depth=1
	@DEBUG_VALUE: QSPI_WaitFlagStateUntilTimeout:hqspi <- $r4
	@DEBUG_VALUE: QSPI_WaitFlagStateUntilTimeout:Flag <- 32
	@DEBUG_VALUE: QSPI_WaitFlagStateUntilTimeout:State <- 0
	@DEBUG_VALUE: HAL_QSPI_Command:Timeout <- [DW_OP_LLVM_entry_value 1] $r2
	@DEBUG_VALUE: HAL_QSPI_Command:hqspi <- $r4
	@DEBUG_VALUE: HAL_QSPI_Command:cmd <- $r5
	.loc	7 2482 10                       @ ../Drivers/STM32H7xx_HAL_Driver/Src/stm32h7xx_hal_qspi.c:2482:10
	ldr	r1, [r0, #8]
	.loc	7 2482 3 is_stmt 0              @ ../Drivers/STM32H7xx_HAL_Driver/Src/stm32h7xx_hal_qspi.c:2482:3
	lsls	r1, r1, #26
	bpl	.LBB15_7
.Ltmp159:
@ %bb.5:                                @   in Loop: Header=BB15_4 Depth=1
	@DEBUG_VALUE: QSPI_WaitFlagStateUntilTimeout:hqspi <- $r4
	@DEBUG_VALUE: QSPI_WaitFlagStateUntilTimeout:Flag <- 32
	@DEBUG_VALUE: QSPI_WaitFlagStateUntilTimeout:State <- 0
	@DEBUG_VALUE: HAL_QSPI_Command:Timeout <- [DW_OP_LLVM_entry_value 1] $r2
	@DEBUG_VALUE: HAL_QSPI_Command:hqspi <- $r4
	@DEBUG_VALUE: HAL_QSPI_Command:cmd <- $r5
	.loc	7 2482 10                       @ ../Drivers/STM32H7xx_HAL_Driver/Src/stm32h7xx_hal_qspi.c:2482:10
	ldr	r1, [r0, #8]
	.loc	7 2482 3                        @ ../Drivers/STM32H7xx_HAL_Driver/Src/stm32h7xx_hal_qspi.c:2482:3
	lsls	r1, r1, #26
	.loc	7 2482 10                       @ ../Drivers/STM32H7xx_HAL_Driver/Src/stm32h7xx_hal_qspi.c:2482:10
	itt	mi
	ldrmi	r1, [r0, #8]
	.loc	7 2482 3                        @ ../Drivers/STM32H7xx_HAL_Driver/Src/stm32h7xx_hal_qspi.c:2482:3
	lslsmi.w	r1, r1, #26
	bpl	.LBB15_7
.Ltmp160:
@ %bb.6:                                @   in Loop: Header=BB15_4 Depth=1
	@DEBUG_VALUE: QSPI_WaitFlagStateUntilTimeout:hqspi <- $r4
	@DEBUG_VALUE: QSPI_WaitFlagStateUntilTimeout:Flag <- 32
	@DEBUG_VALUE: QSPI_WaitFlagStateUntilTimeout:State <- 0
	@DEBUG_VALUE: HAL_QSPI_Command:Timeout <- [DW_OP_LLVM_entry_value 1] $r2
	@DEBUG_VALUE: HAL_QSPI_Command:hqspi <- $r4
	@DEBUG_VALUE: HAL_QSPI_Command:cmd <- $r5
	.loc	7 2482 10                       @ ../Drivers/STM32H7xx_HAL_Driver/Src/stm32h7xx_hal_qspi.c:2482:10
	ldr	r1, [r0, #8]
	.loc	7 2482 3                        @ ../Drivers/STM32H7xx_HAL_Driver/Src/stm32h7xx_hal_qspi.c:2482:3
	lsls	r1, r1, #26
	bmi	.LBB15_4
.Ltmp161:
.LBB15_7:
	@DEBUG_VALUE: HAL_QSPI_Command:Timeout <- [DW_OP_LLVM_entry_value 1] $r2
	@DEBUG_VALUE: HAL_QSPI_Command:hqspi <- $r4
	@DEBUG_VALUE: HAL_QSPI_Command:cmd <- $r5
	@DEBUG_VALUE: HAL_QSPI_Command:status <- 0
	.loc	7 831 7 is_stmt 1               @ ../Drivers/STM32H7xx_HAL_Driver/Src/stm32h7xx_hal_qspi.c:831:7
	movs	r2, #0
	mov	r0, r4
	mov	r1, r5
	bl	QSPI_Config
.Ltmp162:
	.loc	7 833 16                        @ ../Drivers/STM32H7xx_HAL_Driver/Src/stm32h7xx_hal_qspi.c:833:16
	ldr	r0, [r5, #36]
.Ltmp163:
	.loc	7 833 11 is_stmt 0              @ ../Drivers/STM32H7xx_HAL_Driver/Src/stm32h7xx_hal_qspi.c:833:11
	cbnz	r0, .LBB15_13
.Ltmp164:
@ %bb.8:
	@DEBUG_VALUE: HAL_QSPI_Command:status <- 0
	@DEBUG_VALUE: HAL_QSPI_Command:Timeout <- [DW_OP_LLVM_entry_value 1] $r2
	@DEBUG_VALUE: HAL_QSPI_Command:hqspi <- $r4
	@DEBUG_VALUE: HAL_QSPI_Command:cmd <- $r5
	@DEBUG_VALUE: QSPI_WaitFlagStateUntilTimeout:hqspi <- $r4
	@DEBUG_VALUE: QSPI_WaitFlagStateUntilTimeout:Flag <- 2
	@DEBUG_VALUE: QSPI_WaitFlagStateUntilTimeout:State <- 1
	@DEBUG_VALUE: QSPI_WaitFlagStateUntilTimeout:Tickstart <- undef
	@DEBUG_VALUE: QSPI_WaitFlagStateUntilTimeout:Timeout <- undef
	.loc	7 0 11                          @ ../Drivers/STM32H7xx_HAL_Driver/Src/stm32h7xx_hal_qspi.c:0:11
	ldr	r0, [r4]
.Ltmp165:
.LBB15_9:                               @ =>This Inner Loop Header: Depth=1
	@DEBUG_VALUE: QSPI_WaitFlagStateUntilTimeout:State <- 1
	@DEBUG_VALUE: QSPI_WaitFlagStateUntilTimeout:Flag <- 2
	@DEBUG_VALUE: QSPI_WaitFlagStateUntilTimeout:hqspi <- $r4
	@DEBUG_VALUE: HAL_QSPI_Command:status <- 0
	@DEBUG_VALUE: HAL_QSPI_Command:Timeout <- [DW_OP_LLVM_entry_value 1] $r2
	@DEBUG_VALUE: HAL_QSPI_Command:hqspi <- $r4
	@DEBUG_VALUE: HAL_QSPI_Command:cmd <- $r5
	.loc	7 2482 10 is_stmt 1             @ ../Drivers/STM32H7xx_HAL_Driver/Src/stm32h7xx_hal_qspi.c:2482:10
	ldr	r1, [r0, #8]
	.loc	7 2482 3 is_stmt 0              @ ../Drivers/STM32H7xx_HAL_Driver/Src/stm32h7xx_hal_qspi.c:2482:3
	lsls	r1, r1, #30
	bmi	.LBB15_12
.Ltmp166:
@ %bb.10:                               @   in Loop: Header=BB15_9 Depth=1
	@DEBUG_VALUE: QSPI_WaitFlagStateUntilTimeout:State <- 1
	@DEBUG_VALUE: QSPI_WaitFlagStateUntilTimeout:Flag <- 2
	@DEBUG_VALUE: QSPI_WaitFlagStateUntilTimeout:hqspi <- $r4
	@DEBUG_VALUE: HAL_QSPI_Command:status <- 0
	@DEBUG_VALUE: HAL_QSPI_Command:Timeout <- [DW_OP_LLVM_entry_value 1] $r2
	@DEBUG_VALUE: HAL_QSPI_Command:hqspi <- $r4
	@DEBUG_VALUE: HAL_QSPI_Command:cmd <- $r5
	.loc	7 2482 10                       @ ../Drivers/STM32H7xx_HAL_Driver/Src/stm32h7xx_hal_qspi.c:2482:10
	ldr	r1, [r0, #8]
	.loc	7 2482 3                        @ ../Drivers/STM32H7xx_HAL_Driver/Src/stm32h7xx_hal_qspi.c:2482:3
	lsls	r1, r1, #30
	.loc	7 2482 10                       @ ../Drivers/STM32H7xx_HAL_Driver/Src/stm32h7xx_hal_qspi.c:2482:10
	itt	pl
	ldrpl	r1, [r0, #8]
	.loc	7 2482 3                        @ ../Drivers/STM32H7xx_HAL_Driver/Src/stm32h7xx_hal_qspi.c:2482:3
	lslspl.w	r1, r1, #30
	bmi	.LBB15_12
.Ltmp167:
@ %bb.11:                               @   in Loop: Header=BB15_9 Depth=1
	@DEBUG_VALUE: QSPI_WaitFlagStateUntilTimeout:State <- 1
	@DEBUG_VALUE: QSPI_WaitFlagStateUntilTimeout:Flag <- 2
	@DEBUG_VALUE: QSPI_WaitFlagStateUntilTimeout:hqspi <- $r4
	@DEBUG_VALUE: HAL_QSPI_Command:status <- 0
	@DEBUG_VALUE: HAL_QSPI_Command:Timeout <- [DW_OP_LLVM_entry_value 1] $r2
	@DEBUG_VALUE: HAL_QSPI_Command:hqspi <- $r4
	@DEBUG_VALUE: HAL_QSPI_Command:cmd <- $r5
	.loc	7 2482 10                       @ ../Drivers/STM32H7xx_HAL_Driver/Src/stm32h7xx_hal_qspi.c:2482:10
	ldr	r1, [r0, #8]
	.loc	7 2482 3                        @ ../Drivers/STM32H7xx_HAL_Driver/Src/stm32h7xx_hal_qspi.c:2482:3
	lsls	r1, r1, #30
	bpl	.LBB15_9
.Ltmp168:
.LBB15_12:
	@DEBUG_VALUE: HAL_QSPI_Command:status <- 0
	@DEBUG_VALUE: HAL_QSPI_Command:Timeout <- [DW_OP_LLVM_entry_value 1] $r2
	@DEBUG_VALUE: HAL_QSPI_Command:hqspi <- $r4
	@DEBUG_VALUE: HAL_QSPI_Command:cmd <- $r5
	@DEBUG_VALUE: HAL_QSPI_Command:status <- 0
	.loc	7 0 3                           @ ../Drivers/STM32H7xx_HAL_Driver/Src/stm32h7xx_hal_qspi.c:0:3
	movs	r1, #2
.Ltmp169:
	.loc	7 841 11 is_stmt 1              @ ../Drivers/STM32H7xx_HAL_Driver/Src/stm32h7xx_hal_qspi.c:841:11
	str	r1, [r0, #12]
.Ltmp170:
.LBB15_13:
	@DEBUG_VALUE: HAL_QSPI_Command:status <- 0
	@DEBUG_VALUE: HAL_QSPI_Command:Timeout <- [DW_OP_LLVM_entry_value 1] $r2
	@DEBUG_VALUE: HAL_QSPI_Command:hqspi <- $r4
	@DEBUG_VALUE: HAL_QSPI_Command:cmd <- $r5
	.loc	7 0 11 is_stmt 0                @ ../Drivers/STM32H7xx_HAL_Driver/Src/stm32h7xx_hal_qspi.c:0:11
	movs	r0, #1
	strb.w	r0, [r4, #65]
	movs	r0, #0
.Ltmp171:
.LBB15_14:
	@DEBUG_VALUE: HAL_QSPI_Command:Timeout <- [DW_OP_LLVM_entry_value 1] $r2
	@DEBUG_VALUE: HAL_QSPI_Command:hqspi <- $r4
	@DEBUG_VALUE: HAL_QSPI_Command:cmd <- $r5
	@DEBUG_VALUE: HAL_QSPI_Command:status <- $r0
	movs	r1, #0
.Ltmp172:
	.loc	7 860 3 is_stmt 1               @ ../Drivers/STM32H7xx_HAL_Driver/Src/stm32h7xx_hal_qspi.c:860:3
	strb.w	r1, [r4, #64]
.Ltmp173:
	.loc	7 864 1                         @ ../Drivers/STM32H7xx_HAL_Driver/Src/stm32h7xx_hal_qspi.c:864:1
	pop	{r4, r5, r7, pc}
.Ltmp174:
.Lfunc_end15:
	.size	HAL_QSPI_Command, .Lfunc_end15-HAL_QSPI_Command
	.cfi_endproc
	.cantunwind
	.fnend
                                        @ -- End function
	.p2align	3                               @ -- Begin function QSPI_Config
	.type	QSPI_Config,%function
	.code	16                              @ @QSPI_Config
	.thumb_func
QSPI_Config:
.Lfunc_begin16:
	.loc	7 2512 0                        @ ../Drivers/STM32H7xx_HAL_Driver/Src/stm32h7xx_hal_qspi.c:2512:0
	.fnstart
	.cfi_startproc
@ %bb.0:
	@DEBUG_VALUE: QSPI_Config:hqspi <- $r0
	@DEBUG_VALUE: QSPI_Config:cmd <- $r1
	@DEBUG_VALUE: QSPI_Config:FunctionalMode <- $r2
	.save	{r4, r5, r6, r7, r8, r10, r11, lr}
	push.w	{r4, r5, r6, r7, r8, r10, r11, lr}
	.cfi_def_cfa_offset 32
	.cfi_offset lr, -4
	.cfi_offset r11, -8
	.cfi_offset r10, -12
	.cfi_offset r8, -16
	.cfi_offset r7, -20
	.cfi_offset r6, -24
	.cfi_offset r5, -28
	.cfi_offset r4, -32
	.pad	#8
	sub	sp, #8
	.cfi_def_cfa_offset 40
.Ltmp175:
	.loc	7 2515 13 prologue_end          @ ../Drivers/STM32H7xx_HAL_Driver/Src/stm32h7xx_hal_qspi.c:2515:13
	ldr.w	r11, [r1, #36]
	.loc	7 2515 41 is_stmt 0             @ ../Drivers/STM32H7xx_HAL_Driver/Src/stm32h7xx_hal_qspi.c:2515:41
	cmp.w	r2, #201326592
	it	ne
	cmpne.w	r11, #0
	bne	.LBB16_6
.Ltmp176:
@ %bb.1:
	@DEBUG_VALUE: QSPI_Config:FunctionalMode <- $r2
	@DEBUG_VALUE: QSPI_Config:cmd <- $r1
	@DEBUG_VALUE: QSPI_Config:hqspi <- $r0
	.loc	7 2521 12 is_stmt 1             @ ../Drivers/STM32H7xx_HAL_Driver/Src/stm32h7xx_hal_qspi.c:2521:12
	ldr	r3, [r1, #24]
.Ltmp177:
	.loc	7 2521 7 is_stmt 0              @ ../Drivers/STM32H7xx_HAL_Driver/Src/stm32h7xx_hal_qspi.c:2521:7
	cmp	r3, #0
.Ltmp178:
	.loc	7 0 0                           @ ../Drivers/STM32H7xx_HAL_Driver/Src/stm32h7xx_hal_qspi.c:0:0
	ldr.w	lr, [r1, #32]
.Ltmp179:
	.loc	7 2521 7                        @ ../Drivers/STM32H7xx_HAL_Driver/Src/stm32h7xx_hal_qspi.c:2521:7
	beq	.LBB16_7
.Ltmp180:
.LBB16_2:
	@DEBUG_VALUE: QSPI_Config:FunctionalMode <- $r2
	@DEBUG_VALUE: QSPI_Config:cmd <- $r1
	@DEBUG_VALUE: QSPI_Config:hqspi <- $r0
	.loc	7 2523 9 is_stmt 1              @ ../Drivers/STM32H7xx_HAL_Driver/Src/stm32h7xx_hal_qspi.c:2523:9
	cmp.w	lr, #0
	beq	.LBB16_11
.Ltmp181:
@ %bb.3:
	@DEBUG_VALUE: QSPI_Config:FunctionalMode <- $r2
	@DEBUG_VALUE: QSPI_Config:cmd <- $r1
	@DEBUG_VALUE: QSPI_Config:hqspi <- $r0
	.loc	7 2526 7                        @ ../Drivers/STM32H7xx_HAL_Driver/Src/stm32h7xx_hal_qspi.c:2526:7
	ldr.w	r10, [r0]
	ldr	r0, [r1, #8]
.Ltmp182:
	@DEBUG_VALUE: QSPI_Config:hqspi <- [DW_OP_LLVM_entry_value 1] $r0
	.loc	7 0 0 is_stmt 0                 @ ../Drivers/STM32H7xx_HAL_Driver/Src/stm32h7xx_hal_qspi.c:0:0
	ldrd	r6, r7, [r1, #16]
	.loc	7 2528 16 is_stmt 1             @ ../Drivers/STM32H7xx_HAL_Driver/Src/stm32h7xx_hal_qspi.c:2528:16
	ldr	r5, [r1, #28]
.Ltmp183:
	.loc	7 2526 7                        @ ../Drivers/STM32H7xx_HAL_Driver/Src/stm32h7xx_hal_qspi.c:2526:7
	str.w	r0, [r10, #28]
.Ltmp184:
	.loc	7 0 0 is_stmt 0                 @ ../Drivers/STM32H7xx_HAL_Driver/Src/stm32h7xx_hal_qspi.c:0:0
	ldrd	r12, r0, [r1, #44]
.Ltmp185:
	.loc	7 2528 11 is_stmt 1             @ ../Drivers/STM32H7xx_HAL_Driver/Src/stm32h7xx_hal_qspi.c:2528:11
	cmp	r5, #0
.Ltmp186:
	.loc	7 0 0 is_stmt 0                 @ ../Drivers/STM32H7xx_HAL_Driver/Src/stm32h7xx_hal_qspi.c:0:0
	ldr	r4, [r1, #52]
	lsl.w	r7, r7, #18
.Ltmp187:
	.loc	7 2528 11                       @ ../Drivers/STM32H7xx_HAL_Driver/Src/stm32h7xx_hal_qspi.c:2528:11
	beq.w	.LBB16_14
.Ltmp188:
@ %bb.4:
	@DEBUG_VALUE: QSPI_Config:hqspi <- [DW_OP_LLVM_entry_value 1] $r0
	@DEBUG_VALUE: QSPI_Config:FunctionalMode <- $r2
	@DEBUG_VALUE: QSPI_Config:cmd <- $r1
	.loc	7 0 11                          @ ../Drivers/STM32H7xx_HAL_Driver/Src/stm32h7xx_hal_qspi.c:0:11
	str.w	r11, [sp, #4]                   @ 4-byte Spill
.Ltmp189:
	.loc	7 2532 9 is_stmt 1              @ ../Drivers/STM32H7xx_HAL_Driver/Src/stm32h7xx_hal_qspi.c:2532:9
	ldr.w	r11, [r1]
	ldr.w	r8, [r1, #12]
	str	r6, [sp]                        @ 4-byte Spill
	orr.w	r6, r8, r11
	.loc	7 2538 13                       @ ../Drivers/STM32H7xx_HAL_Driver/Src/stm32h7xx_hal_qspi.c:2538:13
	cmp.w	r2, #201326592
	.loc	7 2532 9                        @ ../Drivers/STM32H7xx_HAL_Driver/Src/stm32h7xx_hal_qspi.c:2532:9
	orr.w	r0, r0, r6
	orr.w	r0, r0, r12
	orr.w	r0, r0, r4
	orr.w	r0, r0, r7
	ldr	r7, [sp]                        @ 4-byte Reload
	orr.w	r0, r0, r7
	ldr	r7, [sp, #4]                    @ 4-byte Reload
	orr.w	r0, r0, r2
	orr.w	r0, r0, r7
	orr.w	r0, r0, r3
	orr.w	r0, r0, lr
	orr.w	r0, r0, r5
	str.w	r0, [r10, #20]
	.loc	7 2538 13                       @ ../Drivers/STM32H7xx_HAL_Driver/Src/stm32h7xx_hal_qspi.c:2538:13
	beq	.LBB16_13
.Ltmp190:
@ %bb.5:
	@DEBUG_VALUE: QSPI_Config:hqspi <- [DW_OP_LLVM_entry_value 1] $r0
	@DEBUG_VALUE: QSPI_Config:FunctionalMode <- $r2
	@DEBUG_VALUE: QSPI_Config:cmd <- $r1
	.loc	7 2541 11                       @ ../Drivers/STM32H7xx_HAL_Driver/Src/stm32h7xx_hal_qspi.c:2541:11
	ldr	r0, [r1, #4]
	str.w	r0, [r10, #24]
.Ltmp191:
	.loc	7 2647 1                        @ ../Drivers/STM32H7xx_HAL_Driver/Src/stm32h7xx_hal_qspi.c:2647:1
	add	sp, #8
	pop.w	{r4, r5, r6, r7, r8, r10, r11, pc}
.Ltmp192:
	.p2align	2
.LBB16_6:
	@DEBUG_VALUE: QSPI_Config:FunctionalMode <- $r2
	@DEBUG_VALUE: QSPI_Config:cmd <- $r1
	@DEBUG_VALUE: QSPI_Config:hqspi <- $r0
	.loc	7 2518 5                        @ ../Drivers/STM32H7xx_HAL_Driver/Src/stm32h7xx_hal_qspi.c:2518:5
	ldr	r3, [r0]
	ldr	r7, [r1, #40]
	subs	r7, #1
	str	r7, [r3, #16]
.Ltmp193:
	.loc	7 2521 12                       @ ../Drivers/STM32H7xx_HAL_Driver/Src/stm32h7xx_hal_qspi.c:2521:12
	ldr	r3, [r1, #24]
.Ltmp194:
	.loc	7 2521 7 is_stmt 0              @ ../Drivers/STM32H7xx_HAL_Driver/Src/stm32h7xx_hal_qspi.c:2521:7
	cmp	r3, #0
.Ltmp195:
	.loc	7 0 0                           @ ../Drivers/STM32H7xx_HAL_Driver/Src/stm32h7xx_hal_qspi.c:0:0
	ldr.w	lr, [r1, #32]
.Ltmp196:
	.loc	7 2521 7                        @ ../Drivers/STM32H7xx_HAL_Driver/Src/stm32h7xx_hal_qspi.c:2521:7
	bne	.LBB16_2
.Ltmp197:
.LBB16_7:
	@DEBUG_VALUE: QSPI_Config:FunctionalMode <- $r2
	@DEBUG_VALUE: QSPI_Config:cmd <- $r1
	@DEBUG_VALUE: QSPI_Config:hqspi <- $r0
	.loc	7 2585 9 is_stmt 1              @ ../Drivers/STM32H7xx_HAL_Driver/Src/stm32h7xx_hal_qspi.c:2585:9
	cmp.w	lr, #0
	beq	.LBB16_15
.Ltmp198:
@ %bb.8:
	@DEBUG_VALUE: QSPI_Config:FunctionalMode <- $r2
	@DEBUG_VALUE: QSPI_Config:cmd <- $r1
	@DEBUG_VALUE: QSPI_Config:hqspi <- $r0
	.loc	7 2588 7                        @ ../Drivers/STM32H7xx_HAL_Driver/Src/stm32h7xx_hal_qspi.c:2588:7
	ldr.w	r12, [r0]
	ldr	r7, [r1, #8]
.Ltmp199:
	.loc	7 0 0 is_stmt 0                 @ ../Drivers/STM32H7xx_HAL_Driver/Src/stm32h7xx_hal_qspi.c:0:0
	ldrd	r8, r6, [r1, #16]
	.loc	7 2590 16 is_stmt 1             @ ../Drivers/STM32H7xx_HAL_Driver/Src/stm32h7xx_hal_qspi.c:2590:16
	ldr	r3, [r1, #28]
.Ltmp200:
	.loc	7 2588 7                        @ ../Drivers/STM32H7xx_HAL_Driver/Src/stm32h7xx_hal_qspi.c:2588:7
	str.w	r7, [r12, #28]
.Ltmp201:
	.loc	7 0 0 is_stmt 0                 @ ../Drivers/STM32H7xx_HAL_Driver/Src/stm32h7xx_hal_qspi.c:0:0
	ldrd	r5, r7, [r1, #44]
.Ltmp202:
	.loc	7 2590 11 is_stmt 1             @ ../Drivers/STM32H7xx_HAL_Driver/Src/stm32h7xx_hal_qspi.c:2590:11
	cmp	r3, #0
.Ltmp203:
	.loc	7 0 0 is_stmt 0                 @ ../Drivers/STM32H7xx_HAL_Driver/Src/stm32h7xx_hal_qspi.c:0:0
	ldr	r4, [r1, #52]
	lsl.w	r6, r6, #18
.Ltmp204:
	.loc	7 2590 11                       @ ../Drivers/STM32H7xx_HAL_Driver/Src/stm32h7xx_hal_qspi.c:2590:11
	beq	.LBB16_18
.Ltmp205:
@ %bb.9:
	@DEBUG_VALUE: QSPI_Config:FunctionalMode <- $r2
	@DEBUG_VALUE: QSPI_Config:cmd <- $r1
	@DEBUG_VALUE: QSPI_Config:hqspi <- $r0
	.loc	7 2594 9 is_stmt 1              @ ../Drivers/STM32H7xx_HAL_Driver/Src/stm32h7xx_hal_qspi.c:2594:9
	ldr	r0, [r1, #12]
.Ltmp206:
	@DEBUG_VALUE: QSPI_Config:hqspi <- [DW_OP_LLVM_entry_value 1] $r0
	.loc	7 2600 13                       @ ../Drivers/STM32H7xx_HAL_Driver/Src/stm32h7xx_hal_qspi.c:2600:13
	cmp.w	r2, #201326592
	.loc	7 2594 9                        @ ../Drivers/STM32H7xx_HAL_Driver/Src/stm32h7xx_hal_qspi.c:2594:9
	orr.w	r0, r0, r7
	orr.w	r0, r0, r5
	orr.w	r0, r0, r4
	orr.w	r0, r0, r6
	orr.w	r0, r0, r8
	orr.w	r0, r0, r2
	orr.w	r0, r0, r11
	orr.w	r0, r0, lr
	orr.w	r0, r0, r3
	str.w	r0, [r12, #20]
	.loc	7 2600 13                       @ ../Drivers/STM32H7xx_HAL_Driver/Src/stm32h7xx_hal_qspi.c:2600:13
	beq	.LBB16_13
.Ltmp207:
@ %bb.10:
	@DEBUG_VALUE: QSPI_Config:hqspi <- [DW_OP_LLVM_entry_value 1] $r0
	@DEBUG_VALUE: QSPI_Config:FunctionalMode <- $r2
	@DEBUG_VALUE: QSPI_Config:cmd <- $r1
	.loc	7 2603 11                       @ ../Drivers/STM32H7xx_HAL_Driver/Src/stm32h7xx_hal_qspi.c:2603:11
	ldr	r0, [r1, #4]
	str.w	r0, [r12, #24]
.Ltmp208:
	.loc	7 2647 1                        @ ../Drivers/STM32H7xx_HAL_Driver/Src/stm32h7xx_hal_qspi.c:2647:1
	add	sp, #8
	pop.w	{r4, r5, r6, r7, r8, r10, r11, pc}
.Ltmp209:
	.p2align	2
.LBB16_11:
	@DEBUG_VALUE: QSPI_Config:FunctionalMode <- $r2
	@DEBUG_VALUE: QSPI_Config:cmd <- $r1
	@DEBUG_VALUE: QSPI_Config:hqspi <- $r0
	.loc	7 0 0 is_stmt 0                 @ ../Drivers/STM32H7xx_HAL_Driver/Src/stm32h7xx_hal_qspi.c:0:0
	ldr	r7, [r1, #20]
	.loc	7 2557 16 is_stmt 1             @ ../Drivers/STM32H7xx_HAL_Driver/Src/stm32h7xx_hal_qspi.c:2557:16
	ldr	r5, [r1, #28]
	.loc	7 0 0 is_stmt 0                 @ ../Drivers/STM32H7xx_HAL_Driver/Src/stm32h7xx_hal_qspi.c:0:0
	lsl.w	r8, r7, #18
	ldrd	lr, r6, [r1, #44]
.Ltmp210:
	.loc	7 2557 11                       @ ../Drivers/STM32H7xx_HAL_Driver/Src/stm32h7xx_hal_qspi.c:2557:11
	cmp	r5, #0
.Ltmp211:
	.loc	7 0 0                           @ ../Drivers/STM32H7xx_HAL_Driver/Src/stm32h7xx_hal_qspi.c:0:0
	ldr	r4, [r1, #52]
.Ltmp212:
	.loc	7 2557 11                       @ ../Drivers/STM32H7xx_HAL_Driver/Src/stm32h7xx_hal_qspi.c:2557:11
	beq	.LBB16_19
.Ltmp213:
@ %bb.12:
	@DEBUG_VALUE: QSPI_Config:FunctionalMode <- $r2
	@DEBUG_VALUE: QSPI_Config:cmd <- $r1
	@DEBUG_VALUE: QSPI_Config:hqspi <- $r0
	.loc	7 2561 9 is_stmt 1              @ ../Drivers/STM32H7xx_HAL_Driver/Src/stm32h7xx_hal_qspi.c:2561:9
	ldr.w	r12, [r1]
	ldr	r7, [r1, #12]
	orr.w	r7, r7, r12
	ldr	r0, [r0]
.Ltmp214:
	@DEBUG_VALUE: QSPI_Config:hqspi <- [DW_OP_LLVM_entry_value 1] $r0
	orrs	r7, r6
	.loc	7 2566 13                       @ ../Drivers/STM32H7xx_HAL_Driver/Src/stm32h7xx_hal_qspi.c:2566:13
	cmp.w	r2, #201326592
	.loc	7 2561 9                        @ ../Drivers/STM32H7xx_HAL_Driver/Src/stm32h7xx_hal_qspi.c:2561:9
	orr.w	r7, r7, lr
	orr.w	r7, r7, r4
	orr.w	r7, r7, r8
	orr.w	r7, r7, r2
	orr.w	r7, r7, r11
	orr.w	r3, r3, r7
	orr.w	r2, r3, r5
.Ltmp215:
	@DEBUG_VALUE: QSPI_Config:FunctionalMode <- [DW_OP_LLVM_entry_value 1] $r2
	str	r2, [r0, #20]
	.loc	7 2566 13                       @ ../Drivers/STM32H7xx_HAL_Driver/Src/stm32h7xx_hal_qspi.c:2566:13
	bne	.LBB16_17
.Ltmp216:
.LBB16_13:
	@DEBUG_VALUE: QSPI_Config:cmd <- $r1
	.loc	7 2647 1                        @ ../Drivers/STM32H7xx_HAL_Driver/Src/stm32h7xx_hal_qspi.c:2647:1
	add	sp, #8
	pop.w	{r4, r5, r6, r7, r8, r10, r11, pc}
.Ltmp217:
	.p2align	2
.LBB16_14:
	@DEBUG_VALUE: QSPI_Config:hqspi <- [DW_OP_LLVM_entry_value 1] $r0
	@DEBUG_VALUE: QSPI_Config:FunctionalMode <- $r2
	@DEBUG_VALUE: QSPI_Config:cmd <- $r1
	.loc	7 2548 9                        @ ../Drivers/STM32H7xx_HAL_Driver/Src/stm32h7xx_hal_qspi.c:2548:9
	ldr	r1, [r1]
.Ltmp218:
	@DEBUG_VALUE: QSPI_Config:cmd <- [DW_OP_LLVM_entry_value 1] $r1
	orrs	r0, r1
	orr.w	r0, r0, r12
	orrs	r0, r4
	orrs	r0, r7
	orrs	r0, r6
	orrs	r0, r2
	orr.w	r0, r0, r11
	orrs	r0, r3
	orr.w	r0, r0, lr
	str.w	r0, [r10, #20]
.Ltmp219:
	.loc	7 2647 1                        @ ../Drivers/STM32H7xx_HAL_Driver/Src/stm32h7xx_hal_qspi.c:2647:1
	add	sp, #8
	pop.w	{r4, r5, r6, r7, r8, r10, r11, pc}
.Ltmp220:
	.p2align	2
.LBB16_15:
	@DEBUG_VALUE: QSPI_Config:FunctionalMode <- $r2
	@DEBUG_VALUE: QSPI_Config:cmd <- $r1
	@DEBUG_VALUE: QSPI_Config:hqspi <- $r0
	.loc	7 2618 16                       @ ../Drivers/STM32H7xx_HAL_Driver/Src/stm32h7xx_hal_qspi.c:2618:16
	ldr	r3, [r1, #28]
.Ltmp221:
	.loc	7 2618 11 is_stmt 0             @ ../Drivers/STM32H7xx_HAL_Driver/Src/stm32h7xx_hal_qspi.c:2618:11
	cbz	r3, .LBB16_20
.Ltmp222:
@ %bb.16:
	@DEBUG_VALUE: QSPI_Config:FunctionalMode <- $r2
	@DEBUG_VALUE: QSPI_Config:cmd <- $r1
	@DEBUG_VALUE: QSPI_Config:hqspi <- $r0
	.loc	7 2622 9 is_stmt 1              @ ../Drivers/STM32H7xx_HAL_Driver/Src/stm32h7xx_hal_qspi.c:2622:9
	ldrd	r6, r5, [r1, #44]
	ldr	r7, [r1, #20]
	orrs	r6, r5
	ldr	r4, [r1, #52]
	ldr	r0, [r0]
.Ltmp223:
	@DEBUG_VALUE: QSPI_Config:hqspi <- [DW_OP_LLVM_entry_value 1] $r0
	orrs	r6, r4
	ldr	r5, [r1, #12]
	orr.w	r7, r6, r7, lsl #18
	.loc	7 2627 13                       @ ../Drivers/STM32H7xx_HAL_Driver/Src/stm32h7xx_hal_qspi.c:2627:13
	cmp.w	r2, #201326592
	.loc	7 2622 9                        @ ../Drivers/STM32H7xx_HAL_Driver/Src/stm32h7xx_hal_qspi.c:2622:9
	orr.w	r7, r7, r5
	orr.w	r7, r7, r2
	orr.w	r7, r7, r11
	orr.w	r2, r7, r3
.Ltmp224:
	@DEBUG_VALUE: QSPI_Config:FunctionalMode <- [DW_OP_LLVM_entry_value 1] $r2
	str	r2, [r0, #20]
	.loc	7 2627 13                       @ ../Drivers/STM32H7xx_HAL_Driver/Src/stm32h7xx_hal_qspi.c:2627:13
	beq	.LBB16_13
.Ltmp225:
.LBB16_17:
	@DEBUG_VALUE: QSPI_Config:FunctionalMode <- [DW_OP_LLVM_entry_value 1] $r2
	@DEBUG_VALUE: QSPI_Config:hqspi <- [DW_OP_LLVM_entry_value 1] $r0
	@DEBUG_VALUE: QSPI_Config:cmd <- $r1
	.loc	7 0 0 is_stmt 0                 @ ../Drivers/STM32H7xx_HAL_Driver/Src/stm32h7xx_hal_qspi.c:0:0
	ldr	r1, [r1, #4]
.Ltmp226:
	@DEBUG_VALUE: QSPI_Config:cmd <- [DW_OP_LLVM_entry_value 1] $r1
	str	r1, [r0, #24]
.Ltmp227:
	.loc	7 2647 1 is_stmt 1              @ ../Drivers/STM32H7xx_HAL_Driver/Src/stm32h7xx_hal_qspi.c:2647:1
	add	sp, #8
	pop.w	{r4, r5, r6, r7, r8, r10, r11, pc}
.Ltmp228:
	.p2align	2
.LBB16_18:
	@DEBUG_VALUE: QSPI_Config:FunctionalMode <- $r2
	@DEBUG_VALUE: QSPI_Config:cmd <- $r1
	@DEBUG_VALUE: QSPI_Config:hqspi <- $r0
	.loc	7 2610 9                        @ ../Drivers/STM32H7xx_HAL_Driver/Src/stm32h7xx_hal_qspi.c:2610:9
	orr.w	r0, r5, r7
.Ltmp229:
	@DEBUG_VALUE: QSPI_Config:hqspi <- [DW_OP_LLVM_entry_value 1] $r0
	orrs	r0, r4
	orrs	r0, r6
	orr.w	r0, r0, r8
	orrs	r0, r2
	orr.w	r0, r0, r11
	orr.w	r0, r0, lr
	str.w	r0, [r12, #20]
.Ltmp230:
	.loc	7 2647 1                        @ ../Drivers/STM32H7xx_HAL_Driver/Src/stm32h7xx_hal_qspi.c:2647:1
	add	sp, #8
	pop.w	{r4, r5, r6, r7, r8, r10, r11, pc}
.Ltmp231:
	.p2align	2
.LBB16_19:
	@DEBUG_VALUE: QSPI_Config:FunctionalMode <- $r2
	@DEBUG_VALUE: QSPI_Config:cmd <- $r1
	@DEBUG_VALUE: QSPI_Config:hqspi <- $r0
	.loc	7 2576 9                        @ ../Drivers/STM32H7xx_HAL_Driver/Src/stm32h7xx_hal_qspi.c:2576:9
	ldr	r1, [r1]
.Ltmp232:
	@DEBUG_VALUE: QSPI_Config:cmd <- [DW_OP_LLVM_entry_value 1] $r1
	ldr	r0, [r0]
.Ltmp233:
	@DEBUG_VALUE: QSPI_Config:hqspi <- [DW_OP_LLVM_entry_value 1] $r0
	orrs	r1, r6
	orr.w	r1, r1, lr
	orrs	r1, r4
	orr.w	r1, r1, r8
	orrs	r1, r2
	orr.w	r1, r1, r11
	orrs	r1, r3
	str	r1, [r0, #20]
.Ltmp234:
	.loc	7 2647 1                        @ ../Drivers/STM32H7xx_HAL_Driver/Src/stm32h7xx_hal_qspi.c:2647:1
	add	sp, #8
	pop.w	{r4, r5, r6, r7, r8, r10, r11, pc}
.Ltmp235:
	.p2align	2
.LBB16_20:
	@DEBUG_VALUE: QSPI_Config:FunctionalMode <- $r2
	@DEBUG_VALUE: QSPI_Config:cmd <- $r1
	@DEBUG_VALUE: QSPI_Config:hqspi <- $r0
	.loc	7 2636 13                       @ ../Drivers/STM32H7xx_HAL_Driver/Src/stm32h7xx_hal_qspi.c:2636:13
	cmp.w	r11, #0
	beq	.LBB16_13
.Ltmp236:
@ %bb.21:
	@DEBUG_VALUE: QSPI_Config:FunctionalMode <- $r2
	@DEBUG_VALUE: QSPI_Config:cmd <- $r1
	@DEBUG_VALUE: QSPI_Config:hqspi <- $r0
	.loc	7 2639 11                       @ ../Drivers/STM32H7xx_HAL_Driver/Src/stm32h7xx_hal_qspi.c:2639:11
	ldrd	r7, r6, [r1, #44]
	ldr	r3, [r1, #20]
	orrs	r7, r6
	ldr	r1, [r1, #52]
.Ltmp237:
	@DEBUG_VALUE: QSPI_Config:cmd <- [DW_OP_LLVM_entry_value 1] $r1
	ldr	r0, [r0]
.Ltmp238:
	@DEBUG_VALUE: QSPI_Config:hqspi <- [DW_OP_LLVM_entry_value 1] $r0
	orrs	r1, r7
	orr.w	r1, r1, r3, lsl #18
	orrs	r1, r2
	orr.w	r1, r1, r11
	str	r1, [r0, #20]
.Ltmp239:
	.loc	7 2647 1                        @ ../Drivers/STM32H7xx_HAL_Driver/Src/stm32h7xx_hal_qspi.c:2647:1
	add	sp, #8
	pop.w	{r4, r5, r6, r7, r8, r10, r11, pc}
.Ltmp240:
.Lfunc_end16:
	.size	QSPI_Config, .Lfunc_end16-QSPI_Config
	.cfi_endproc
	.cantunwind
	.fnend
                                        @ -- End function
	.hidden	HAL_QSPI_Command_IT             @ -- Begin function HAL_QSPI_Command_IT
	.globl	HAL_QSPI_Command_IT
	.p2align	3
	.type	HAL_QSPI_Command_IT,%function
	.code	16                              @ @HAL_QSPI_Command_IT
	.thumb_func
HAL_QSPI_Command_IT:
.Lfunc_begin17:
	.loc	7 874 0                         @ ../Drivers/STM32H7xx_HAL_Driver/Src/stm32h7xx_hal_qspi.c:874:0
	.fnstart
	.cfi_startproc
@ %bb.0:
	@DEBUG_VALUE: HAL_QSPI_Command_IT:hqspi <- $r0
	@DEBUG_VALUE: HAL_QSPI_Command_IT:cmd <- $r1
	.save	{r4, r5, r6, lr}
	push	{r4, r5, r6, lr}
	.cfi_def_cfa_offset 16
	.cfi_offset lr, -4
	.cfi_offset r6, -8
	.cfi_offset r5, -12
	.cfi_offset r4, -16
	mov	r5, r1
.Ltmp241:
	@DEBUG_VALUE: HAL_QSPI_Command_IT:cmd <- $r5
	@DEBUG_VALUE: HAL_QSPI_Command_IT:cmd <- $r5
	mov	r4, r0
.Ltmp242:
	@DEBUG_VALUE: HAL_QSPI_Command_IT:hqspi <- $r4
	@DEBUG_VALUE: HAL_QSPI_Command_IT:hqspi <- $r4
	.loc	7 876 24 prologue_end           @ ../Drivers/STM32H7xx_HAL_Driver/Src/stm32h7xx_hal_qspi.c:876:24
	bl	HAL_GetTick
.Ltmp243:
	@DEBUG_VALUE: HAL_QSPI_Command_IT:tickstart <- undef
	.loc	7 905 3                         @ ../Drivers/STM32H7xx_HAL_Driver/Src/stm32h7xx_hal_qspi.c:905:3
	ldrb.w	r0, [r4, #64]
.Ltmp244:
	.loc	7 905 3 is_stmt 0               @ ../Drivers/STM32H7xx_HAL_Driver/Src/stm32h7xx_hal_qspi.c:905:3
	cmp	r0, #1
	beq	.LBB17_11
.Ltmp245:
@ %bb.1:
	@DEBUG_VALUE: HAL_QSPI_Command_IT:hqspi <- $r4
	@DEBUG_VALUE: HAL_QSPI_Command_IT:cmd <- $r5
	.loc	7 0 3                           @ ../Drivers/STM32H7xx_HAL_Driver/Src/stm32h7xx_hal_qspi.c:0:3
	movs	r0, #1
.Ltmp246:
	.loc	7 905 3                         @ ../Drivers/STM32H7xx_HAL_Driver/Src/stm32h7xx_hal_qspi.c:905:3
	strb.w	r0, [r4, #64]
.Ltmp247:
	.loc	7 907 13 is_stmt 1              @ ../Drivers/STM32H7xx_HAL_Driver/Src/stm32h7xx_hal_qspi.c:907:13
	ldrb.w	r0, [r4, #65]
.Ltmp248:
	.loc	7 907 6 is_stmt 0               @ ../Drivers/STM32H7xx_HAL_Driver/Src/stm32h7xx_hal_qspi.c:907:6
	cmp	r0, #1
	bne	.LBB17_10
.Ltmp249:
@ %bb.2:
	@DEBUG_VALUE: HAL_QSPI_Command_IT:hqspi <- $r4
	@DEBUG_VALUE: HAL_QSPI_Command_IT:cmd <- $r5
	.loc	7 0 6                           @ ../Drivers/STM32H7xx_HAL_Driver/Src/stm32h7xx_hal_qspi.c:0:6
	movs	r0, #0
.Ltmp250:
	.loc	7 909 22 is_stmt 1              @ ../Drivers/STM32H7xx_HAL_Driver/Src/stm32h7xx_hal_qspi.c:909:22
	str	r0, [r4, #68]
	movs	r0, #2
	.loc	7 912 18                        @ ../Drivers/STM32H7xx_HAL_Driver/Src/stm32h7xx_hal_qspi.c:912:18
	strb.w	r0, [r4, #65]
	@DEBUG_VALUE: QSPI_WaitFlagStateUntilTimeout:Timeout <- undef
	@DEBUG_VALUE: QSPI_WaitFlagStateUntilTimeout:Tickstart <- undef
	@DEBUG_VALUE: QSPI_WaitFlagStateUntilTimeout:State <- 0
	@DEBUG_VALUE: QSPI_WaitFlagStateUntilTimeout:Flag <- 32
	@DEBUG_VALUE: QSPI_WaitFlagStateUntilTimeout:hqspi <- $r4
	ldr	r0, [r4]
.Ltmp251:
.LBB17_3:                               @ =>This Inner Loop Header: Depth=1
	@DEBUG_VALUE: QSPI_WaitFlagStateUntilTimeout:hqspi <- $r4
	@DEBUG_VALUE: QSPI_WaitFlagStateUntilTimeout:Flag <- 32
	@DEBUG_VALUE: QSPI_WaitFlagStateUntilTimeout:State <- 0
	@DEBUG_VALUE: HAL_QSPI_Command_IT:hqspi <- $r4
	@DEBUG_VALUE: HAL_QSPI_Command_IT:cmd <- $r5
	.loc	7 2482 10                       @ ../Drivers/STM32H7xx_HAL_Driver/Src/stm32h7xx_hal_qspi.c:2482:10
	ldr	r1, [r0, #8]
	.loc	7 2482 3 is_stmt 0              @ ../Drivers/STM32H7xx_HAL_Driver/Src/stm32h7xx_hal_qspi.c:2482:3
	lsls	r1, r1, #26
	bpl	.LBB17_6
.Ltmp252:
@ %bb.4:                                @   in Loop: Header=BB17_3 Depth=1
	@DEBUG_VALUE: QSPI_WaitFlagStateUntilTimeout:hqspi <- $r4
	@DEBUG_VALUE: QSPI_WaitFlagStateUntilTimeout:Flag <- 32
	@DEBUG_VALUE: QSPI_WaitFlagStateUntilTimeout:State <- 0
	@DEBUG_VALUE: HAL_QSPI_Command_IT:hqspi <- $r4
	@DEBUG_VALUE: HAL_QSPI_Command_IT:cmd <- $r5
	.loc	7 2482 10                       @ ../Drivers/STM32H7xx_HAL_Driver/Src/stm32h7xx_hal_qspi.c:2482:10
	ldr	r1, [r0, #8]
	.loc	7 2482 3                        @ ../Drivers/STM32H7xx_HAL_Driver/Src/stm32h7xx_hal_qspi.c:2482:3
	lsls	r1, r1, #26
	.loc	7 2482 10                       @ ../Drivers/STM32H7xx_HAL_Driver/Src/stm32h7xx_hal_qspi.c:2482:10
	itt	mi
	ldrmi	r1, [r0, #8]
	.loc	7 2482 3                        @ ../Drivers/STM32H7xx_HAL_Driver/Src/stm32h7xx_hal_qspi.c:2482:3
	lslsmi.w	r1, r1, #26
	bpl	.LBB17_6
.Ltmp253:
@ %bb.5:                                @   in Loop: Header=BB17_3 Depth=1
	@DEBUG_VALUE: QSPI_WaitFlagStateUntilTimeout:hqspi <- $r4
	@DEBUG_VALUE: QSPI_WaitFlagStateUntilTimeout:Flag <- 32
	@DEBUG_VALUE: QSPI_WaitFlagStateUntilTimeout:State <- 0
	@DEBUG_VALUE: HAL_QSPI_Command_IT:hqspi <- $r4
	@DEBUG_VALUE: HAL_QSPI_Command_IT:cmd <- $r5
	.loc	7 2482 10                       @ ../Drivers/STM32H7xx_HAL_Driver/Src/stm32h7xx_hal_qspi.c:2482:10
	ldr	r1, [r0, #8]
	.loc	7 2482 3                        @ ../Drivers/STM32H7xx_HAL_Driver/Src/stm32h7xx_hal_qspi.c:2482:3
	lsls	r1, r1, #26
	bmi	.LBB17_3
.Ltmp254:
.LBB17_6:
	@DEBUG_VALUE: HAL_QSPI_Command_IT:hqspi <- $r4
	@DEBUG_VALUE: HAL_QSPI_Command_IT:cmd <- $r5
	@DEBUG_VALUE: HAL_QSPI_Command_IT:status <- 0
	.loc	7 919 16 is_stmt 1              @ ../Drivers/STM32H7xx_HAL_Driver/Src/stm32h7xx_hal_qspi.c:919:16
	ldr	r1, [r5, #36]
.Ltmp255:
	.loc	7 919 11 is_stmt 0              @ ../Drivers/STM32H7xx_HAL_Driver/Src/stm32h7xx_hal_qspi.c:919:11
	cbnz	r1, .LBB17_8
.Ltmp256:
@ %bb.7:
	@DEBUG_VALUE: HAL_QSPI_Command_IT:status <- 0
	@DEBUG_VALUE: HAL_QSPI_Command_IT:hqspi <- $r4
	@DEBUG_VALUE: HAL_QSPI_Command_IT:cmd <- $r5
	.loc	7 0 11                          @ ../Drivers/STM32H7xx_HAL_Driver/Src/stm32h7xx_hal_qspi.c:0:11
	movs	r1, #3
.Ltmp257:
	.loc	7 922 9 is_stmt 1               @ ../Drivers/STM32H7xx_HAL_Driver/Src/stm32h7xx_hal_qspi.c:922:9
	str	r1, [r0, #12]
.Ltmp258:
.LBB17_8:
	@DEBUG_VALUE: HAL_QSPI_Command_IT:status <- 0
	@DEBUG_VALUE: HAL_QSPI_Command_IT:hqspi <- $r4
	@DEBUG_VALUE: HAL_QSPI_Command_IT:cmd <- $r5
	.loc	7 926 7                         @ ../Drivers/STM32H7xx_HAL_Driver/Src/stm32h7xx_hal_qspi.c:926:7
	movs	r2, #0
	mov	r0, r4
	mov	r1, r5
	movs	r6, #0
	bl	QSPI_Config
.Ltmp259:
	.loc	7 928 16                        @ ../Drivers/STM32H7xx_HAL_Driver/Src/stm32h7xx_hal_qspi.c:928:16
	ldr	r0, [r5, #36]
.Ltmp260:
	.loc	7 928 11 is_stmt 0              @ ../Drivers/STM32H7xx_HAL_Driver/Src/stm32h7xx_hal_qspi.c:928:11
	cbz	r0, .LBB17_12
.Ltmp261:
@ %bb.9:
	@DEBUG_VALUE: HAL_QSPI_Command_IT:status <- 0
	@DEBUG_VALUE: HAL_QSPI_Command_IT:hqspi <- $r4
	@DEBUG_VALUE: HAL_QSPI_Command_IT:cmd <- $r5
	.loc	7 0 11                          @ ../Drivers/STM32H7xx_HAL_Driver/Src/stm32h7xx_hal_qspi.c:0:11
	movs	r0, #1
.Ltmp262:
	.loc	7 941 22 is_stmt 1              @ ../Drivers/STM32H7xx_HAL_Driver/Src/stm32h7xx_hal_qspi.c:941:22
	strb.w	r0, [r4, #65]
.Ltmp263:
	.loc	7 963 1                         @ ../Drivers/STM32H7xx_HAL_Driver/Src/stm32h7xx_hal_qspi.c:963:1
	mov	r0, r6
.Ltmp264:
	.loc	7 944 9                         @ ../Drivers/STM32H7xx_HAL_Driver/Src/stm32h7xx_hal_qspi.c:944:9
	strb.w	r6, [r4, #64]
.Ltmp265:
	.loc	7 963 1                         @ ../Drivers/STM32H7xx_HAL_Driver/Src/stm32h7xx_hal_qspi.c:963:1
	pop	{r4, r5, r6, pc}
.Ltmp266:
	.p2align	2
.LBB17_10:
	@DEBUG_VALUE: HAL_QSPI_Command_IT:hqspi <- $r4
	@DEBUG_VALUE: HAL_QSPI_Command_IT:cmd <- $r5
	@DEBUG_VALUE: HAL_QSPI_Command_IT:status <- 2
	.loc	7 0 1 is_stmt 0                 @ ../Drivers/STM32H7xx_HAL_Driver/Src/stm32h7xx_hal_qspi.c:0:1
	movs	r0, #0
.Ltmp267:
	.loc	7 958 5 is_stmt 1               @ ../Drivers/STM32H7xx_HAL_Driver/Src/stm32h7xx_hal_qspi.c:958:5
	strb.w	r0, [r4, #64]
.Ltmp268:
.LBB17_11:
	@DEBUG_VALUE: HAL_QSPI_Command_IT:hqspi <- $r4
	@DEBUG_VALUE: HAL_QSPI_Command_IT:cmd <- $r5
	.loc	7 0 5 is_stmt 0                 @ ../Drivers/STM32H7xx_HAL_Driver/Src/stm32h7xx_hal_qspi.c:0:5
	movs	r0, #2
	.loc	7 963 1 is_stmt 1               @ ../Drivers/STM32H7xx_HAL_Driver/Src/stm32h7xx_hal_qspi.c:963:1
	pop	{r4, r5, r6, pc}
.Ltmp269:
	.p2align	2
.LBB17_12:
	@DEBUG_VALUE: HAL_QSPI_Command_IT:status <- 0
	@DEBUG_VALUE: HAL_QSPI_Command_IT:hqspi <- $r4
	@DEBUG_VALUE: HAL_QSPI_Command_IT:cmd <- $r5
	.loc	7 933 9                         @ ../Drivers/STM32H7xx_HAL_Driver/Src/stm32h7xx_hal_qspi.c:933:9
	strb.w	r6, [r4, #64]
.Ltmp270:
	.loc	7 936 9                         @ ../Drivers/STM32H7xx_HAL_Driver/Src/stm32h7xx_hal_qspi.c:936:9
	ldr	r0, [r4]
	ldr	r1, [r0]
	orr	r1, r1, #196608
	str	r1, [r0]
.Ltmp271:
	.loc	7 963 1                         @ ../Drivers/STM32H7xx_HAL_Driver/Src/stm32h7xx_hal_qspi.c:963:1
	mov	r0, r6
	pop	{r4, r5, r6, pc}
.Ltmp272:
.Lfunc_end17:
	.size	HAL_QSPI_Command_IT, .Lfunc_end17-HAL_QSPI_Command_IT
	.cfi_endproc
	.cantunwind
	.fnend
                                        @ -- End function
	.hidden	HAL_QSPI_Transmit               @ -- Begin function HAL_QSPI_Transmit
	.globl	HAL_QSPI_Transmit
	.p2align	3
	.type	HAL_QSPI_Transmit,%function
	.code	16                              @ @HAL_QSPI_Transmit
	.thumb_func
HAL_QSPI_Transmit:
.Lfunc_begin18:
	.loc	7 974 0                         @ ../Drivers/STM32H7xx_HAL_Driver/Src/stm32h7xx_hal_qspi.c:974:0
	.fnstart
	.cfi_startproc
@ %bb.0:
	@DEBUG_VALUE: HAL_QSPI_Transmit:hqspi <- $r0
	@DEBUG_VALUE: HAL_QSPI_Transmit:pData <- $r1
	@DEBUG_VALUE: HAL_QSPI_Transmit:Timeout <- $r2
	.save	{r4, r5, r7, lr}
	push	{r4, r5, r7, lr}
	.cfi_def_cfa_offset 16
	.cfi_offset lr, -4
	.cfi_offset r7, -8
	.cfi_offset r5, -12
	.cfi_offset r4, -16
	mov	r5, r1
.Ltmp273:
	@DEBUG_VALUE: HAL_QSPI_Transmit:pData <- $r5
	@DEBUG_VALUE: HAL_QSPI_Transmit:pData <- $r5
	mov	r4, r0
.Ltmp274:
	@DEBUG_VALUE: HAL_QSPI_Transmit:hqspi <- $r4
	@DEBUG_VALUE: HAL_QSPI_Transmit:status <- 0
	@DEBUG_VALUE: HAL_QSPI_Transmit:hqspi <- $r4
	.loc	7 976 24 prologue_end           @ ../Drivers/STM32H7xx_HAL_Driver/Src/stm32h7xx_hal_qspi.c:976:24
	bl	HAL_GetTick
.Ltmp275:
	@DEBUG_VALUE: HAL_QSPI_Transmit:Timeout <- [DW_OP_LLVM_entry_value 1] $r2
	@DEBUG_VALUE: HAL_QSPI_Transmit:tickstart <- undef
	.loc	7 977 37                        @ ../Drivers/STM32H7xx_HAL_Driver/Src/stm32h7xx_hal_qspi.c:977:37
	ldr	r0, [r4]
.Ltmp276:
	@DEBUG_VALUE: HAL_QSPI_Transmit:data_reg <- [DW_OP_plus_uconst 32, DW_OP_stack_value] $r0
	.loc	7 980 3                         @ ../Drivers/STM32H7xx_HAL_Driver/Src/stm32h7xx_hal_qspi.c:980:3
	ldrb.w	r1, [r4, #64]
.Ltmp277:
	.loc	7 980 3 is_stmt 0               @ ../Drivers/STM32H7xx_HAL_Driver/Src/stm32h7xx_hal_qspi.c:980:3
	cmp	r1, #1
	bne	.LBB18_2
.Ltmp278:
@ %bb.1:
	@DEBUG_VALUE: HAL_QSPI_Transmit:data_reg <- [DW_OP_plus_uconst 32, DW_OP_stack_value] $r0
	@DEBUG_VALUE: HAL_QSPI_Transmit:Timeout <- [DW_OP_LLVM_entry_value 1] $r2
	@DEBUG_VALUE: HAL_QSPI_Transmit:status <- 0
	@DEBUG_VALUE: HAL_QSPI_Transmit:hqspi <- $r4
	@DEBUG_VALUE: HAL_QSPI_Transmit:pData <- $r5
	.loc	7 0 3                           @ ../Drivers/STM32H7xx_HAL_Driver/Src/stm32h7xx_hal_qspi.c:0:3
	movs	r0, #2
.Ltmp279:
	.loc	7 1045 1 is_stmt 1              @ ../Drivers/STM32H7xx_HAL_Driver/Src/stm32h7xx_hal_qspi.c:1045:1
	pop	{r4, r5, r7, pc}
.Ltmp280:
	.p2align	2
.LBB18_2:
	@DEBUG_VALUE: HAL_QSPI_Transmit:data_reg <- [DW_OP_plus_uconst 32, DW_OP_stack_value] $r0
	@DEBUG_VALUE: HAL_QSPI_Transmit:Timeout <- [DW_OP_LLVM_entry_value 1] $r2
	@DEBUG_VALUE: HAL_QSPI_Transmit:status <- 0
	@DEBUG_VALUE: HAL_QSPI_Transmit:hqspi <- $r4
	@DEBUG_VALUE: HAL_QSPI_Transmit:pData <- $r5
	.loc	7 0 1 is_stmt 0                 @ ../Drivers/STM32H7xx_HAL_Driver/Src/stm32h7xx_hal_qspi.c:0:1
	movs	r1, #1
.Ltmp281:
	.loc	7 980 3 is_stmt 1               @ ../Drivers/STM32H7xx_HAL_Driver/Src/stm32h7xx_hal_qspi.c:980:3
	strb.w	r1, [r4, #64]
.Ltmp282:
	.loc	7 982 13                        @ ../Drivers/STM32H7xx_HAL_Driver/Src/stm32h7xx_hal_qspi.c:982:13
	ldrb.w	r1, [r4, #65]
.Ltmp283:
	.loc	7 982 6 is_stmt 0               @ ../Drivers/STM32H7xx_HAL_Driver/Src/stm32h7xx_hal_qspi.c:982:6
	cmp	r1, #1
	bne	.LBB18_10
.Ltmp284:
@ %bb.3:
	@DEBUG_VALUE: HAL_QSPI_Transmit:data_reg <- [DW_OP_plus_uconst 32, DW_OP_stack_value] $r0
	@DEBUG_VALUE: HAL_QSPI_Transmit:Timeout <- [DW_OP_LLVM_entry_value 1] $r2
	@DEBUG_VALUE: HAL_QSPI_Transmit:status <- 0
	@DEBUG_VALUE: HAL_QSPI_Transmit:hqspi <- $r4
	@DEBUG_VALUE: HAL_QSPI_Transmit:pData <- $r5
	.loc	7 0 6                           @ ../Drivers/STM32H7xx_HAL_Driver/Src/stm32h7xx_hal_qspi.c:0:6
	mov.w	r1, #0
.Ltmp285:
	.loc	7 984 22 is_stmt 1              @ ../Drivers/STM32H7xx_HAL_Driver/Src/stm32h7xx_hal_qspi.c:984:22
	str	r1, [r4, #68]
	.loc	7 986 8                         @ ../Drivers/STM32H7xx_HAL_Driver/Src/stm32h7xx_hal_qspi.c:986:8
	cbz	r5, .LBB18_11
.Ltmp286:
@ %bb.4:
	@DEBUG_VALUE: HAL_QSPI_Transmit:data_reg <- [DW_OP_plus_uconst 32, DW_OP_stack_value] $r0
	@DEBUG_VALUE: HAL_QSPI_Transmit:Timeout <- [DW_OP_LLVM_entry_value 1] $r2
	@DEBUG_VALUE: HAL_QSPI_Transmit:status <- 0
	@DEBUG_VALUE: HAL_QSPI_Transmit:hqspi <- $r4
	@DEBUG_VALUE: HAL_QSPI_Transmit:pData <- $r5
	.loc	7 0 8 is_stmt 0                 @ ../Drivers/STM32H7xx_HAL_Driver/Src/stm32h7xx_hal_qspi.c:0:8
	movs	r1, #18
.Ltmp287:
	.loc	7 989 20 is_stmt 1              @ ../Drivers/STM32H7xx_HAL_Driver/Src/stm32h7xx_hal_qspi.c:989:20
	strb.w	r1, [r4, #65]
	.loc	7 992 28                        @ ../Drivers/STM32H7xx_HAL_Driver/Src/stm32h7xx_hal_qspi.c:992:28
	ldr	r1, [r0, #16]
	.loc	7 992 59 is_stmt 0              @ ../Drivers/STM32H7xx_HAL_Driver/Src/stm32h7xx_hal_qspi.c:992:59
	adds	r1, #1
	.loc	7 992 26                        @ ../Drivers/STM32H7xx_HAL_Driver/Src/stm32h7xx_hal_qspi.c:992:26
	str	r1, [r4, #44]
	.loc	7 993 27 is_stmt 1              @ ../Drivers/STM32H7xx_HAL_Driver/Src/stm32h7xx_hal_qspi.c:993:27
	ldr	r1, [r0, #16]
	.loc	7 993 58 is_stmt 0              @ ../Drivers/STM32H7xx_HAL_Driver/Src/stm32h7xx_hal_qspi.c:993:58
	adds	r1, #1
	.loc	7 993 25                        @ ../Drivers/STM32H7xx_HAL_Driver/Src/stm32h7xx_hal_qspi.c:993:25
	str	r1, [r4, #40]
	.loc	7 994 25 is_stmt 1              @ ../Drivers/STM32H7xx_HAL_Driver/Src/stm32h7xx_hal_qspi.c:994:25
	str	r5, [r4, #36]
	.loc	7 997 7                         @ ../Drivers/STM32H7xx_HAL_Driver/Src/stm32h7xx_hal_qspi.c:997:7
	ldr	r1, [r0, #20]
	bic	r1, r1, #201326592
	str	r1, [r0, #20]
	@DEBUG_VALUE: HAL_QSPI_Transmit:status <- 0
	.loc	7 999 20                        @ ../Drivers/STM32H7xx_HAL_Driver/Src/stm32h7xx_hal_qspi.c:999:20
	ldr	r1, [r4, #44]
	cbnz	r1, .LBB18_6
	b	.LBB18_13
.Ltmp288:
	.p2align	2
.LBB18_5:                               @   in Loop: Header=BB18_6 Depth=1
	@DEBUG_VALUE: HAL_QSPI_Transmit:data_reg <- [DW_OP_plus_uconst 32, DW_OP_stack_value] $r0
	@DEBUG_VALUE: HAL_QSPI_Transmit:Timeout <- [DW_OP_LLVM_entry_value 1] $r2
	@DEBUG_VALUE: HAL_QSPI_Transmit:status <- 0
	@DEBUG_VALUE: HAL_QSPI_Transmit:hqspi <- $r4
	@DEBUG_VALUE: HAL_QSPI_Transmit:status <- 0
	.loc	7 1009 39                       @ ../Drivers/STM32H7xx_HAL_Driver/Src/stm32h7xx_hal_qspi.c:1009:39
	ldrb	r1, [r5]
	.loc	7 1009 37 is_stmt 0             @ ../Drivers/STM32H7xx_HAL_Driver/Src/stm32h7xx_hal_qspi.c:1009:37
	strb.w	r1, [r0, #32]
	.loc	7 1010 26 is_stmt 1             @ ../Drivers/STM32H7xx_HAL_Driver/Src/stm32h7xx_hal_qspi.c:1010:26
	ldr	r1, [r4, #36]
	.loc	7 1011 27                       @ ../Drivers/STM32H7xx_HAL_Driver/Src/stm32h7xx_hal_qspi.c:1011:27
	ldr	r2, [r4, #44]
	.loc	7 1010 26                       @ ../Drivers/STM32H7xx_HAL_Driver/Src/stm32h7xx_hal_qspi.c:1010:26
	adds	r5, r1, #1
.Ltmp289:
	@DEBUG_VALUE: HAL_QSPI_Transmit:pData <- [DW_OP_LLVM_entry_value 1] $r1
	str	r5, [r4, #36]
	.loc	7 1011 27                       @ ../Drivers/STM32H7xx_HAL_Driver/Src/stm32h7xx_hal_qspi.c:1011:27
	subs	r1, r2, #1
	str	r1, [r4, #44]
.Ltmp290:
	.loc	7 999 20                        @ ../Drivers/STM32H7xx_HAL_Driver/Src/stm32h7xx_hal_qspi.c:999:20
	ldr	r1, [r4, #44]
	.loc	7 999 7 is_stmt 0               @ ../Drivers/STM32H7xx_HAL_Driver/Src/stm32h7xx_hal_qspi.c:999:7
	cbz	r1, .LBB18_12
.Ltmp291:
.LBB18_6:                               @ =>This Loop Header: Depth=1
                                        @     Child Loop BB18_7 Depth 2
	@DEBUG_VALUE: HAL_QSPI_Transmit:data_reg <- [DW_OP_plus_uconst 32, DW_OP_stack_value] $r0
	@DEBUG_VALUE: HAL_QSPI_Transmit:Timeout <- [DW_OP_LLVM_entry_value 1] $r2
	@DEBUG_VALUE: HAL_QSPI_Transmit:status <- 0
	@DEBUG_VALUE: HAL_QSPI_Transmit:hqspi <- $r4
	@DEBUG_VALUE: QSPI_WaitFlagStateUntilTimeout:hqspi <- $r4
	@DEBUG_VALUE: QSPI_WaitFlagStateUntilTimeout:Flag <- 4
	@DEBUG_VALUE: QSPI_WaitFlagStateUntilTimeout:State <- 1
	@DEBUG_VALUE: QSPI_WaitFlagStateUntilTimeout:Tickstart <- undef
	@DEBUG_VALUE: QSPI_WaitFlagStateUntilTimeout:Timeout <- undef
	.loc	7 0 7                           @ ../Drivers/STM32H7xx_HAL_Driver/Src/stm32h7xx_hal_qspi.c:0:7
	ldr	r1, [r4]
.Ltmp292:
.LBB18_7:                               @   Parent Loop BB18_6 Depth=1
                                        @ =>  This Inner Loop Header: Depth=2
	@DEBUG_VALUE: QSPI_WaitFlagStateUntilTimeout:State <- 1
	@DEBUG_VALUE: QSPI_WaitFlagStateUntilTimeout:Flag <- 4
	@DEBUG_VALUE: QSPI_WaitFlagStateUntilTimeout:hqspi <- $r4
	@DEBUG_VALUE: HAL_QSPI_Transmit:data_reg <- [DW_OP_plus_uconst 32, DW_OP_stack_value] $r0
	@DEBUG_VALUE: HAL_QSPI_Transmit:Timeout <- [DW_OP_LLVM_entry_value 1] $r2
	@DEBUG_VALUE: HAL_QSPI_Transmit:status <- 0
	@DEBUG_VALUE: HAL_QSPI_Transmit:hqspi <- $r4
	.loc	7 2482 10 is_stmt 1             @ ../Drivers/STM32H7xx_HAL_Driver/Src/stm32h7xx_hal_qspi.c:2482:10
	ldr	r2, [r1, #8]
	.loc	7 2482 3 is_stmt 0              @ ../Drivers/STM32H7xx_HAL_Driver/Src/stm32h7xx_hal_qspi.c:2482:3
	lsls	r2, r2, #29
	bmi	.LBB18_5
.Ltmp293:
@ %bb.8:                                @   in Loop: Header=BB18_7 Depth=2
	@DEBUG_VALUE: QSPI_WaitFlagStateUntilTimeout:State <- 1
	@DEBUG_VALUE: QSPI_WaitFlagStateUntilTimeout:Flag <- 4
	@DEBUG_VALUE: QSPI_WaitFlagStateUntilTimeout:hqspi <- $r4
	@DEBUG_VALUE: HAL_QSPI_Transmit:data_reg <- [DW_OP_plus_uconst 32, DW_OP_stack_value] $r0
	@DEBUG_VALUE: HAL_QSPI_Transmit:Timeout <- [DW_OP_LLVM_entry_value 1] $r2
	@DEBUG_VALUE: HAL_QSPI_Transmit:status <- 0
	@DEBUG_VALUE: HAL_QSPI_Transmit:hqspi <- $r4
	.loc	7 2482 10                       @ ../Drivers/STM32H7xx_HAL_Driver/Src/stm32h7xx_hal_qspi.c:2482:10
	ldr	r2, [r1, #8]
	.loc	7 2482 3                        @ ../Drivers/STM32H7xx_HAL_Driver/Src/stm32h7xx_hal_qspi.c:2482:3
	lsls	r2, r2, #29
	.loc	7 2482 10                       @ ../Drivers/STM32H7xx_HAL_Driver/Src/stm32h7xx_hal_qspi.c:2482:10
	itt	pl
	ldrpl	r2, [r1, #8]
	.loc	7 2482 3                        @ ../Drivers/STM32H7xx_HAL_Driver/Src/stm32h7xx_hal_qspi.c:2482:3
	lslspl.w	r2, r2, #29
	bmi	.LBB18_5
.Ltmp294:
@ %bb.9:                                @   in Loop: Header=BB18_7 Depth=2
	@DEBUG_VALUE: QSPI_WaitFlagStateUntilTimeout:State <- 1
	@DEBUG_VALUE: QSPI_WaitFlagStateUntilTimeout:Flag <- 4
	@DEBUG_VALUE: QSPI_WaitFlagStateUntilTimeout:hqspi <- $r4
	@DEBUG_VALUE: HAL_QSPI_Transmit:data_reg <- [DW_OP_plus_uconst 32, DW_OP_stack_value] $r0
	@DEBUG_VALUE: HAL_QSPI_Transmit:Timeout <- [DW_OP_LLVM_entry_value 1] $r2
	@DEBUG_VALUE: HAL_QSPI_Transmit:status <- 0
	@DEBUG_VALUE: HAL_QSPI_Transmit:hqspi <- $r4
	.loc	7 2482 10                       @ ../Drivers/STM32H7xx_HAL_Driver/Src/stm32h7xx_hal_qspi.c:2482:10
	ldr	r2, [r1, #8]
	.loc	7 2482 3                        @ ../Drivers/STM32H7xx_HAL_Driver/Src/stm32h7xx_hal_qspi.c:2482:3
	lsls	r2, r2, #29
	bpl	.LBB18_7
	b	.LBB18_5
.Ltmp295:
	.p2align	2
.LBB18_10:
	@DEBUG_VALUE: HAL_QSPI_Transmit:data_reg <- [DW_OP_plus_uconst 32, DW_OP_stack_value] $r0
	@DEBUG_VALUE: HAL_QSPI_Transmit:Timeout <- [DW_OP_LLVM_entry_value 1] $r2
	@DEBUG_VALUE: HAL_QSPI_Transmit:status <- 0
	@DEBUG_VALUE: HAL_QSPI_Transmit:hqspi <- $r4
	@DEBUG_VALUE: HAL_QSPI_Transmit:pData <- $r5
	.loc	7 0 3                           @ ../Drivers/STM32H7xx_HAL_Driver/Src/stm32h7xx_hal_qspi.c:0:3
	movs	r0, #2
.Ltmp296:
	@DEBUG_VALUE: HAL_QSPI_Transmit:status <- $r0
	movs	r1, #0
.Ltmp297:
	.loc	7 1042 3 is_stmt 1              @ ../Drivers/STM32H7xx_HAL_Driver/Src/stm32h7xx_hal_qspi.c:1042:3
	strb.w	r1, [r4, #64]
.Ltmp298:
	.loc	7 1045 1                        @ ../Drivers/STM32H7xx_HAL_Driver/Src/stm32h7xx_hal_qspi.c:1045:1
	pop	{r4, r5, r7, pc}
.Ltmp299:
	.p2align	2
.LBB18_11:
	@DEBUG_VALUE: HAL_QSPI_Transmit:data_reg <- [DW_OP_plus_uconst 32, DW_OP_stack_value] $r0
	@DEBUG_VALUE: HAL_QSPI_Transmit:Timeout <- [DW_OP_LLVM_entry_value 1] $r2
	@DEBUG_VALUE: HAL_QSPI_Transmit:status <- 0
	@DEBUG_VALUE: HAL_QSPI_Transmit:hqspi <- $r4
	@DEBUG_VALUE: HAL_QSPI_Transmit:pData <- $r5
	.loc	7 1032 24                       @ ../Drivers/STM32H7xx_HAL_Driver/Src/stm32h7xx_hal_qspi.c:1032:24
	ldr	r0, [r4, #68]
.Ltmp300:
	orr	r0, r0, #8
	str	r0, [r4, #68]
	movs	r0, #1
.Ltmp301:
	@DEBUG_VALUE: HAL_QSPI_Transmit:status <- 1
	@DEBUG_VALUE: HAL_QSPI_Transmit:status <- $r0
	.loc	7 0 24 is_stmt 0                @ ../Drivers/STM32H7xx_HAL_Driver/Src/stm32h7xx_hal_qspi.c:0:24
	movs	r1, #0
.Ltmp302:
	.loc	7 1042 3 is_stmt 1              @ ../Drivers/STM32H7xx_HAL_Driver/Src/stm32h7xx_hal_qspi.c:1042:3
	strb.w	r1, [r4, #64]
.Ltmp303:
	.loc	7 1045 1                        @ ../Drivers/STM32H7xx_HAL_Driver/Src/stm32h7xx_hal_qspi.c:1045:1
	pop	{r4, r5, r7, pc}
.Ltmp304:
	.p2align	2
.LBB18_12:
	@DEBUG_VALUE: HAL_QSPI_Transmit:data_reg <- [DW_OP_plus_uconst 32, DW_OP_stack_value] $r0
	@DEBUG_VALUE: HAL_QSPI_Transmit:Timeout <- [DW_OP_LLVM_entry_value 1] $r2
	@DEBUG_VALUE: HAL_QSPI_Transmit:status <- 0
	@DEBUG_VALUE: HAL_QSPI_Transmit:hqspi <- $r4
	.loc	7 0 1 is_stmt 0                 @ ../Drivers/STM32H7xx_HAL_Driver/Src/stm32h7xx_hal_qspi.c:0:1
	ldr	r0, [r4]
.Ltmp305:
	@DEBUG_VALUE: HAL_QSPI_Transmit:status <- 0
	@DEBUG_VALUE: QSPI_WaitFlagStateUntilTimeout:hqspi <- $r4
	@DEBUG_VALUE: QSPI_WaitFlagStateUntilTimeout:Flag <- 2
	@DEBUG_VALUE: QSPI_WaitFlagStateUntilTimeout:State <- 1
	@DEBUG_VALUE: QSPI_WaitFlagStateUntilTimeout:Tickstart <- undef
	@DEBUG_VALUE: QSPI_WaitFlagStateUntilTimeout:Timeout <- undef
.LBB18_13:                              @ =>This Inner Loop Header: Depth=1
	@DEBUG_VALUE: HAL_QSPI_Transmit:Timeout <- [DW_OP_LLVM_entry_value 1] $r2
	@DEBUG_VALUE: HAL_QSPI_Transmit:status <- 0
	@DEBUG_VALUE: HAL_QSPI_Transmit:hqspi <- $r4
	.loc	7 2482 10 is_stmt 1             @ ../Drivers/STM32H7xx_HAL_Driver/Src/stm32h7xx_hal_qspi.c:2482:10
	ldr	r1, [r0, #8]
	.loc	7 2482 3 is_stmt 0              @ ../Drivers/STM32H7xx_HAL_Driver/Src/stm32h7xx_hal_qspi.c:2482:3
	lsls	r1, r1, #30
	bmi	.LBB18_16
.Ltmp306:
@ %bb.14:                               @   in Loop: Header=BB18_13 Depth=1
	@DEBUG_VALUE: HAL_QSPI_Transmit:Timeout <- [DW_OP_LLVM_entry_value 1] $r2
	@DEBUG_VALUE: HAL_QSPI_Transmit:status <- 0
	@DEBUG_VALUE: HAL_QSPI_Transmit:hqspi <- $r4
	.loc	7 2482 10                       @ ../Drivers/STM32H7xx_HAL_Driver/Src/stm32h7xx_hal_qspi.c:2482:10
	ldr	r1, [r0, #8]
	.loc	7 2482 3                        @ ../Drivers/STM32H7xx_HAL_Driver/Src/stm32h7xx_hal_qspi.c:2482:3
	lsls	r1, r1, #30
	.loc	7 2482 10                       @ ../Drivers/STM32H7xx_HAL_Driver/Src/stm32h7xx_hal_qspi.c:2482:10
	itt	pl
	ldrpl	r1, [r0, #8]
	.loc	7 2482 3                        @ ../Drivers/STM32H7xx_HAL_Driver/Src/stm32h7xx_hal_qspi.c:2482:3
	lslspl.w	r1, r1, #30
	bmi	.LBB18_16
.Ltmp307:
@ %bb.15:                               @   in Loop: Header=BB18_13 Depth=1
	@DEBUG_VALUE: HAL_QSPI_Transmit:Timeout <- [DW_OP_LLVM_entry_value 1] $r2
	@DEBUG_VALUE: HAL_QSPI_Transmit:status <- 0
	@DEBUG_VALUE: HAL_QSPI_Transmit:hqspi <- $r4
	.loc	7 2482 10                       @ ../Drivers/STM32H7xx_HAL_Driver/Src/stm32h7xx_hal_qspi.c:2482:10
	ldr	r1, [r0, #8]
	.loc	7 2482 3                        @ ../Drivers/STM32H7xx_HAL_Driver/Src/stm32h7xx_hal_qspi.c:2482:3
	lsls	r1, r1, #30
	bpl	.LBB18_13
.Ltmp308:
.LBB18_16:
	@DEBUG_VALUE: HAL_QSPI_Transmit:Timeout <- [DW_OP_LLVM_entry_value 1] $r2
	@DEBUG_VALUE: HAL_QSPI_Transmit:status <- 0
	@DEBUG_VALUE: HAL_QSPI_Transmit:hqspi <- $r4
	@DEBUG_VALUE: HAL_QSPI_Transmit:status <- 0
	.loc	7 0 3                           @ ../Drivers/STM32H7xx_HAL_Driver/Src/stm32h7xx_hal_qspi.c:0:3
	movs	r1, #2
.Ltmp309:
	.loc	7 1022 11 is_stmt 1             @ ../Drivers/STM32H7xx_HAL_Driver/Src/stm32h7xx_hal_qspi.c:1022:11
	str	r1, [r0, #12]
	movs	r0, #1
.Ltmp310:
	.loc	7 1028 20                       @ ../Drivers/STM32H7xx_HAL_Driver/Src/stm32h7xx_hal_qspi.c:1028:20
	strb.w	r0, [r4, #65]
	movs	r0, #0
.Ltmp311:
	@DEBUG_VALUE: HAL_QSPI_Transmit:status <- $r0
	.loc	7 0 20 is_stmt 0                @ ../Drivers/STM32H7xx_HAL_Driver/Src/stm32h7xx_hal_qspi.c:0:20
	movs	r1, #0
.Ltmp312:
	.loc	7 1042 3 is_stmt 1              @ ../Drivers/STM32H7xx_HAL_Driver/Src/stm32h7xx_hal_qspi.c:1042:3
	strb.w	r1, [r4, #64]
.Ltmp313:
	.loc	7 1045 1                        @ ../Drivers/STM32H7xx_HAL_Driver/Src/stm32h7xx_hal_qspi.c:1045:1
	pop	{r4, r5, r7, pc}
.Ltmp314:
.Lfunc_end18:
	.size	HAL_QSPI_Transmit, .Lfunc_end18-HAL_QSPI_Transmit
	.cfi_endproc
	.cantunwind
	.fnend
                                        @ -- End function
	.hidden	HAL_QSPI_Receive                @ -- Begin function HAL_QSPI_Receive
	.globl	HAL_QSPI_Receive
	.p2align	3
	.type	HAL_QSPI_Receive,%function
	.code	16                              @ @HAL_QSPI_Receive
	.thumb_func
HAL_QSPI_Receive:
.Lfunc_begin19:
	.loc	7 1057 0                        @ ../Drivers/STM32H7xx_HAL_Driver/Src/stm32h7xx_hal_qspi.c:1057:0
	.fnstart
	.cfi_startproc
@ %bb.0:
	@DEBUG_VALUE: HAL_QSPI_Receive:hqspi <- $r0
	@DEBUG_VALUE: HAL_QSPI_Receive:pData <- $r1
	@DEBUG_VALUE: HAL_QSPI_Receive:Timeout <- $r2
	.save	{r4, r5, r7, lr}
	push	{r4, r5, r7, lr}
	.cfi_def_cfa_offset 16
	.cfi_offset lr, -4
	.cfi_offset r7, -8
	.cfi_offset r5, -12
	.cfi_offset r4, -16
	mov	r5, r1
.Ltmp315:
	@DEBUG_VALUE: HAL_QSPI_Receive:pData <- $r5
	@DEBUG_VALUE: HAL_QSPI_Receive:pData <- $r5
	mov	r4, r0
.Ltmp316:
	@DEBUG_VALUE: HAL_QSPI_Receive:hqspi <- $r4
	@DEBUG_VALUE: HAL_QSPI_Receive:status <- 0
	@DEBUG_VALUE: HAL_QSPI_Receive:hqspi <- $r4
	.loc	7 1059 24 prologue_end          @ ../Drivers/STM32H7xx_HAL_Driver/Src/stm32h7xx_hal_qspi.c:1059:24
	bl	HAL_GetTick
.Ltmp317:
	@DEBUG_VALUE: HAL_QSPI_Receive:Timeout <- [DW_OP_LLVM_entry_value 1] $r2
	@DEBUG_VALUE: HAL_QSPI_Receive:tickstart <- undef
	.loc	7 1060 23                       @ ../Drivers/STM32H7xx_HAL_Driver/Src/stm32h7xx_hal_qspi.c:1060:23
	ldr	r0, [r4]
	ldr	r1, [r0, #24]
.Ltmp318:
	@DEBUG_VALUE: HAL_QSPI_Receive:data_reg <- [DW_OP_plus_uconst 32, DW_OP_stack_value] $r0
	@DEBUG_VALUE: HAL_QSPI_Receive:addr_reg <- $r1
	.loc	7 1064 3                        @ ../Drivers/STM32H7xx_HAL_Driver/Src/stm32h7xx_hal_qspi.c:1064:3
	ldrb.w	r2, [r4, #64]
.Ltmp319:
	.loc	7 1064 3 is_stmt 0              @ ../Drivers/STM32H7xx_HAL_Driver/Src/stm32h7xx_hal_qspi.c:1064:3
	cmp	r2, #1
	bne	.LBB19_2
.Ltmp320:
@ %bb.1:
	@DEBUG_VALUE: HAL_QSPI_Receive:addr_reg <- $r1
	@DEBUG_VALUE: HAL_QSPI_Receive:data_reg <- [DW_OP_plus_uconst 32, DW_OP_stack_value] $r0
	@DEBUG_VALUE: HAL_QSPI_Receive:Timeout <- [DW_OP_LLVM_entry_value 1] $r2
	@DEBUG_VALUE: HAL_QSPI_Receive:status <- 0
	@DEBUG_VALUE: HAL_QSPI_Receive:hqspi <- $r4
	@DEBUG_VALUE: HAL_QSPI_Receive:pData <- $r5
	.loc	7 0 3                           @ ../Drivers/STM32H7xx_HAL_Driver/Src/stm32h7xx_hal_qspi.c:0:3
	movs	r0, #2
.Ltmp321:
	.loc	7 1132 1 is_stmt 1              @ ../Drivers/STM32H7xx_HAL_Driver/Src/stm32h7xx_hal_qspi.c:1132:1
	pop	{r4, r5, r7, pc}
.Ltmp322:
	.p2align	2
.LBB19_2:
	@DEBUG_VALUE: HAL_QSPI_Receive:addr_reg <- $r1
	@DEBUG_VALUE: HAL_QSPI_Receive:data_reg <- [DW_OP_plus_uconst 32, DW_OP_stack_value] $r0
	@DEBUG_VALUE: HAL_QSPI_Receive:Timeout <- [DW_OP_LLVM_entry_value 1] $r2
	@DEBUG_VALUE: HAL_QSPI_Receive:status <- 0
	@DEBUG_VALUE: HAL_QSPI_Receive:hqspi <- $r4
	@DEBUG_VALUE: HAL_QSPI_Receive:pData <- $r5
	.loc	7 0 1 is_stmt 0                 @ ../Drivers/STM32H7xx_HAL_Driver/Src/stm32h7xx_hal_qspi.c:0:1
	movs	r2, #1
.Ltmp323:
	.loc	7 1064 3 is_stmt 1              @ ../Drivers/STM32H7xx_HAL_Driver/Src/stm32h7xx_hal_qspi.c:1064:3
	strb.w	r2, [r4, #64]
.Ltmp324:
	.loc	7 1066 13                       @ ../Drivers/STM32H7xx_HAL_Driver/Src/stm32h7xx_hal_qspi.c:1066:13
	ldrb.w	r2, [r4, #65]
.Ltmp325:
	.loc	7 1066 6 is_stmt 0              @ ../Drivers/STM32H7xx_HAL_Driver/Src/stm32h7xx_hal_qspi.c:1066:6
	cmp	r2, #1
	bne	.LBB19_10
.Ltmp326:
@ %bb.3:
	@DEBUG_VALUE: HAL_QSPI_Receive:addr_reg <- $r1
	@DEBUG_VALUE: HAL_QSPI_Receive:data_reg <- [DW_OP_plus_uconst 32, DW_OP_stack_value] $r0
	@DEBUG_VALUE: HAL_QSPI_Receive:Timeout <- [DW_OP_LLVM_entry_value 1] $r2
	@DEBUG_VALUE: HAL_QSPI_Receive:status <- 0
	@DEBUG_VALUE: HAL_QSPI_Receive:hqspi <- $r4
	@DEBUG_VALUE: HAL_QSPI_Receive:pData <- $r5
	.loc	7 0 6                           @ ../Drivers/STM32H7xx_HAL_Driver/Src/stm32h7xx_hal_qspi.c:0:6
	mov.w	r2, #0
.Ltmp327:
	.loc	7 1068 22 is_stmt 1             @ ../Drivers/STM32H7xx_HAL_Driver/Src/stm32h7xx_hal_qspi.c:1068:22
	str	r2, [r4, #68]
	.loc	7 1070 8                        @ ../Drivers/STM32H7xx_HAL_Driver/Src/stm32h7xx_hal_qspi.c:1070:8
	cbz	r5, .LBB19_11
.Ltmp328:
@ %bb.4:
	@DEBUG_VALUE: HAL_QSPI_Receive:addr_reg <- $r1
	@DEBUG_VALUE: HAL_QSPI_Receive:data_reg <- [DW_OP_plus_uconst 32, DW_OP_stack_value] $r0
	@DEBUG_VALUE: HAL_QSPI_Receive:Timeout <- [DW_OP_LLVM_entry_value 1] $r2
	@DEBUG_VALUE: HAL_QSPI_Receive:status <- 0
	@DEBUG_VALUE: HAL_QSPI_Receive:hqspi <- $r4
	@DEBUG_VALUE: HAL_QSPI_Receive:pData <- $r5
	.loc	7 0 8 is_stmt 0                 @ ../Drivers/STM32H7xx_HAL_Driver/Src/stm32h7xx_hal_qspi.c:0:8
	movs	r2, #34
.Ltmp329:
	.loc	7 1073 20 is_stmt 1             @ ../Drivers/STM32H7xx_HAL_Driver/Src/stm32h7xx_hal_qspi.c:1073:20
	strb.w	r2, [r4, #65]
	.loc	7 1076 28                       @ ../Drivers/STM32H7xx_HAL_Driver/Src/stm32h7xx_hal_qspi.c:1076:28
	ldr	r2, [r0, #16]
	movs	r3, #1
	.loc	7 1076 59 is_stmt 0             @ ../Drivers/STM32H7xx_HAL_Driver/Src/stm32h7xx_hal_qspi.c:1076:59
	adds	r2, #1
	.loc	7 1076 26                       @ ../Drivers/STM32H7xx_HAL_Driver/Src/stm32h7xx_hal_qspi.c:1076:26
	str	r2, [r4, #56]
	.loc	7 1077 27 is_stmt 1             @ ../Drivers/STM32H7xx_HAL_Driver/Src/stm32h7xx_hal_qspi.c:1077:27
	ldr	r2, [r0, #16]
	.loc	7 1077 58 is_stmt 0             @ ../Drivers/STM32H7xx_HAL_Driver/Src/stm32h7xx_hal_qspi.c:1077:58
	adds	r2, #1
	.loc	7 1077 25                       @ ../Drivers/STM32H7xx_HAL_Driver/Src/stm32h7xx_hal_qspi.c:1077:25
	str	r2, [r4, #52]
	.loc	7 1078 25 is_stmt 1             @ ../Drivers/STM32H7xx_HAL_Driver/Src/stm32h7xx_hal_qspi.c:1078:25
	str	r5, [r4, #48]
	.loc	7 1081 7                        @ ../Drivers/STM32H7xx_HAL_Driver/Src/stm32h7xx_hal_qspi.c:1081:7
	ldr	r2, [r0, #20]
	bfi	r2, r3, #26, #2
	str	r2, [r0, #20]
	.loc	7 1084 7                        @ ../Drivers/STM32H7xx_HAL_Driver/Src/stm32h7xx_hal_qspi.c:1084:7
	str	r1, [r0, #24]
	@DEBUG_VALUE: HAL_QSPI_Receive:status <- 0
	.loc	7 1086 20                       @ ../Drivers/STM32H7xx_HAL_Driver/Src/stm32h7xx_hal_qspi.c:1086:20
	ldr	r1, [r4, #56]
.Ltmp330:
	.loc	7 0 20 is_stmt 0                @ ../Drivers/STM32H7xx_HAL_Driver/Src/stm32h7xx_hal_qspi.c:0:20
	cbnz	r1, .LBB19_6
	b	.LBB19_13
.Ltmp331:
	.p2align	2
.LBB19_5:                               @   in Loop: Header=BB19_6 Depth=1
	@DEBUG_VALUE: HAL_QSPI_Receive:data_reg <- [DW_OP_plus_uconst 32, DW_OP_stack_value] $r0
	@DEBUG_VALUE: HAL_QSPI_Receive:Timeout <- [DW_OP_LLVM_entry_value 1] $r2
	@DEBUG_VALUE: HAL_QSPI_Receive:status <- 0
	@DEBUG_VALUE: HAL_QSPI_Receive:hqspi <- $r4
	@DEBUG_VALUE: HAL_QSPI_Receive:status <- 0
	.loc	7 1096 30 is_stmt 1             @ ../Drivers/STM32H7xx_HAL_Driver/Src/stm32h7xx_hal_qspi.c:1096:30
	ldrb.w	r1, [r0, #32]
	.loc	7 1096 28 is_stmt 0             @ ../Drivers/STM32H7xx_HAL_Driver/Src/stm32h7xx_hal_qspi.c:1096:28
	strb	r1, [r5]
	.loc	7 1097 26 is_stmt 1             @ ../Drivers/STM32H7xx_HAL_Driver/Src/stm32h7xx_hal_qspi.c:1097:26
	ldr	r1, [r4, #48]
	.loc	7 1098 27                       @ ../Drivers/STM32H7xx_HAL_Driver/Src/stm32h7xx_hal_qspi.c:1098:27
	ldr	r2, [r4, #56]
	.loc	7 1097 26                       @ ../Drivers/STM32H7xx_HAL_Driver/Src/stm32h7xx_hal_qspi.c:1097:26
	adds	r5, r1, #1
.Ltmp332:
	@DEBUG_VALUE: HAL_QSPI_Receive:pData <- [DW_OP_LLVM_entry_value 1] $r1
	str	r5, [r4, #48]
	.loc	7 1098 27                       @ ../Drivers/STM32H7xx_HAL_Driver/Src/stm32h7xx_hal_qspi.c:1098:27
	subs	r1, r2, #1
	str	r1, [r4, #56]
.Ltmp333:
	.loc	7 1086 20                       @ ../Drivers/STM32H7xx_HAL_Driver/Src/stm32h7xx_hal_qspi.c:1086:20
	ldr	r1, [r4, #56]
	.loc	7 1086 7 is_stmt 0              @ ../Drivers/STM32H7xx_HAL_Driver/Src/stm32h7xx_hal_qspi.c:1086:7
	cbz	r1, .LBB19_12
.Ltmp334:
.LBB19_6:                               @ =>This Loop Header: Depth=1
                                        @     Child Loop BB19_7 Depth 2
	@DEBUG_VALUE: HAL_QSPI_Receive:data_reg <- [DW_OP_plus_uconst 32, DW_OP_stack_value] $r0
	@DEBUG_VALUE: HAL_QSPI_Receive:Timeout <- [DW_OP_LLVM_entry_value 1] $r2
	@DEBUG_VALUE: HAL_QSPI_Receive:status <- 0
	@DEBUG_VALUE: HAL_QSPI_Receive:hqspi <- $r4
	@DEBUG_VALUE: QSPI_WaitFlagStateUntilTimeout:hqspi <- $r4
	@DEBUG_VALUE: QSPI_WaitFlagStateUntilTimeout:Flag <- 6
	@DEBUG_VALUE: QSPI_WaitFlagStateUntilTimeout:State <- 1
	@DEBUG_VALUE: QSPI_WaitFlagStateUntilTimeout:Tickstart <- undef
	@DEBUG_VALUE: QSPI_WaitFlagStateUntilTimeout:Timeout <- undef
	.loc	7 0 7                           @ ../Drivers/STM32H7xx_HAL_Driver/Src/stm32h7xx_hal_qspi.c:0:7
	ldr	r1, [r4]
.Ltmp335:
.LBB19_7:                               @   Parent Loop BB19_6 Depth=1
                                        @ =>  This Inner Loop Header: Depth=2
	@DEBUG_VALUE: QSPI_WaitFlagStateUntilTimeout:State <- 1
	@DEBUG_VALUE: QSPI_WaitFlagStateUntilTimeout:Flag <- 6
	@DEBUG_VALUE: QSPI_WaitFlagStateUntilTimeout:hqspi <- $r4
	@DEBUG_VALUE: HAL_QSPI_Receive:data_reg <- [DW_OP_plus_uconst 32, DW_OP_stack_value] $r0
	@DEBUG_VALUE: HAL_QSPI_Receive:Timeout <- [DW_OP_LLVM_entry_value 1] $r2
	@DEBUG_VALUE: HAL_QSPI_Receive:status <- 0
	@DEBUG_VALUE: HAL_QSPI_Receive:hqspi <- $r4
	.loc	7 2482 10 is_stmt 1             @ ../Drivers/STM32H7xx_HAL_Driver/Src/stm32h7xx_hal_qspi.c:2482:10
	ldr	r2, [r1, #8]
	.loc	7 2482 3 is_stmt 0              @ ../Drivers/STM32H7xx_HAL_Driver/Src/stm32h7xx_hal_qspi.c:2482:3
	tst.w	r2, #6
	bne	.LBB19_5
.Ltmp336:
@ %bb.8:                                @   in Loop: Header=BB19_7 Depth=2
	@DEBUG_VALUE: QSPI_WaitFlagStateUntilTimeout:State <- 1
	@DEBUG_VALUE: QSPI_WaitFlagStateUntilTimeout:Flag <- 6
	@DEBUG_VALUE: QSPI_WaitFlagStateUntilTimeout:hqspi <- $r4
	@DEBUG_VALUE: HAL_QSPI_Receive:data_reg <- [DW_OP_plus_uconst 32, DW_OP_stack_value] $r0
	@DEBUG_VALUE: HAL_QSPI_Receive:Timeout <- [DW_OP_LLVM_entry_value 1] $r2
	@DEBUG_VALUE: HAL_QSPI_Receive:status <- 0
	@DEBUG_VALUE: HAL_QSPI_Receive:hqspi <- $r4
	.loc	7 2482 10                       @ ../Drivers/STM32H7xx_HAL_Driver/Src/stm32h7xx_hal_qspi.c:2482:10
	ldr	r2, [r1, #8]
	.loc	7 2482 3                        @ ../Drivers/STM32H7xx_HAL_Driver/Src/stm32h7xx_hal_qspi.c:2482:3
	tst.w	r2, #6
	.loc	7 2482 10                       @ ../Drivers/STM32H7xx_HAL_Driver/Src/stm32h7xx_hal_qspi.c:2482:10
	itt	eq
	ldreq	r2, [r1, #8]
	.loc	7 2482 3                        @ ../Drivers/STM32H7xx_HAL_Driver/Src/stm32h7xx_hal_qspi.c:2482:3
	tsteq.w	r2, #6
	bne	.LBB19_5
.Ltmp337:
@ %bb.9:                                @   in Loop: Header=BB19_7 Depth=2
	@DEBUG_VALUE: QSPI_WaitFlagStateUntilTimeout:State <- 1
	@DEBUG_VALUE: QSPI_WaitFlagStateUntilTimeout:Flag <- 6
	@DEBUG_VALUE: QSPI_WaitFlagStateUntilTimeout:hqspi <- $r4
	@DEBUG_VALUE: HAL_QSPI_Receive:data_reg <- [DW_OP_plus_uconst 32, DW_OP_stack_value] $r0
	@DEBUG_VALUE: HAL_QSPI_Receive:Timeout <- [DW_OP_LLVM_entry_value 1] $r2
	@DEBUG_VALUE: HAL_QSPI_Receive:status <- 0
	@DEBUG_VALUE: HAL_QSPI_Receive:hqspi <- $r4
	.loc	7 2482 10                       @ ../Drivers/STM32H7xx_HAL_Driver/Src/stm32h7xx_hal_qspi.c:2482:10
	ldr	r2, [r1, #8]
	.loc	7 2482 3                        @ ../Drivers/STM32H7xx_HAL_Driver/Src/stm32h7xx_hal_qspi.c:2482:3
	tst.w	r2, #6
	beq	.LBB19_7
	b	.LBB19_5
.Ltmp338:
	.p2align	2
.LBB19_10:
	@DEBUG_VALUE: HAL_QSPI_Receive:addr_reg <- $r1
	@DEBUG_VALUE: HAL_QSPI_Receive:data_reg <- [DW_OP_plus_uconst 32, DW_OP_stack_value] $r0
	@DEBUG_VALUE: HAL_QSPI_Receive:Timeout <- [DW_OP_LLVM_entry_value 1] $r2
	@DEBUG_VALUE: HAL_QSPI_Receive:status <- 0
	@DEBUG_VALUE: HAL_QSPI_Receive:hqspi <- $r4
	@DEBUG_VALUE: HAL_QSPI_Receive:pData <- $r5
	.loc	7 0 3                           @ ../Drivers/STM32H7xx_HAL_Driver/Src/stm32h7xx_hal_qspi.c:0:3
	movs	r0, #2
.Ltmp339:
	@DEBUG_VALUE: HAL_QSPI_Receive:status <- $r0
	movs	r1, #0
.Ltmp340:
	.loc	7 1129 3 is_stmt 1              @ ../Drivers/STM32H7xx_HAL_Driver/Src/stm32h7xx_hal_qspi.c:1129:3
	strb.w	r1, [r4, #64]
.Ltmp341:
	.loc	7 1132 1                        @ ../Drivers/STM32H7xx_HAL_Driver/Src/stm32h7xx_hal_qspi.c:1132:1
	pop	{r4, r5, r7, pc}
.Ltmp342:
	.p2align	2
.LBB19_11:
	@DEBUG_VALUE: HAL_QSPI_Receive:addr_reg <- $r1
	@DEBUG_VALUE: HAL_QSPI_Receive:data_reg <- [DW_OP_plus_uconst 32, DW_OP_stack_value] $r0
	@DEBUG_VALUE: HAL_QSPI_Receive:Timeout <- [DW_OP_LLVM_entry_value 1] $r2
	@DEBUG_VALUE: HAL_QSPI_Receive:status <- 0
	@DEBUG_VALUE: HAL_QSPI_Receive:hqspi <- $r4
	@DEBUG_VALUE: HAL_QSPI_Receive:pData <- $r5
	.loc	7 1119 24                       @ ../Drivers/STM32H7xx_HAL_Driver/Src/stm32h7xx_hal_qspi.c:1119:24
	ldr	r0, [r4, #68]
.Ltmp343:
	orr	r0, r0, #8
	str	r0, [r4, #68]
	movs	r0, #1
.Ltmp344:
	@DEBUG_VALUE: HAL_QSPI_Receive:status <- 1
	@DEBUG_VALUE: HAL_QSPI_Receive:status <- $r0
	.loc	7 0 24 is_stmt 0                @ ../Drivers/STM32H7xx_HAL_Driver/Src/stm32h7xx_hal_qspi.c:0:24
	movs	r1, #0
.Ltmp345:
	.loc	7 1129 3 is_stmt 1              @ ../Drivers/STM32H7xx_HAL_Driver/Src/stm32h7xx_hal_qspi.c:1129:3
	strb.w	r1, [r4, #64]
.Ltmp346:
	.loc	7 1132 1                        @ ../Drivers/STM32H7xx_HAL_Driver/Src/stm32h7xx_hal_qspi.c:1132:1
	pop	{r4, r5, r7, pc}
.Ltmp347:
	.p2align	2
.LBB19_12:
	@DEBUG_VALUE: HAL_QSPI_Receive:data_reg <- [DW_OP_plus_uconst 32, DW_OP_stack_value] $r0
	@DEBUG_VALUE: HAL_QSPI_Receive:Timeout <- [DW_OP_LLVM_entry_value 1] $r2
	@DEBUG_VALUE: HAL_QSPI_Receive:status <- 0
	@DEBUG_VALUE: HAL_QSPI_Receive:hqspi <- $r4
	.loc	7 0 1 is_stmt 0                 @ ../Drivers/STM32H7xx_HAL_Driver/Src/stm32h7xx_hal_qspi.c:0:1
	ldr	r0, [r4]
.Ltmp348:
	@DEBUG_VALUE: HAL_QSPI_Receive:status <- 0
	@DEBUG_VALUE: QSPI_WaitFlagStateUntilTimeout:hqspi <- $r4
	@DEBUG_VALUE: QSPI_WaitFlagStateUntilTimeout:Flag <- 2
	@DEBUG_VALUE: QSPI_WaitFlagStateUntilTimeout:State <- 1
	@DEBUG_VALUE: QSPI_WaitFlagStateUntilTimeout:Tickstart <- undef
	@DEBUG_VALUE: QSPI_WaitFlagStateUntilTimeout:Timeout <- undef
.LBB19_13:                              @ =>This Inner Loop Header: Depth=1
	@DEBUG_VALUE: HAL_QSPI_Receive:Timeout <- [DW_OP_LLVM_entry_value 1] $r2
	@DEBUG_VALUE: HAL_QSPI_Receive:status <- 0
	@DEBUG_VALUE: HAL_QSPI_Receive:hqspi <- $r4
	.loc	7 2482 10 is_stmt 1             @ ../Drivers/STM32H7xx_HAL_Driver/Src/stm32h7xx_hal_qspi.c:2482:10
	ldr	r1, [r0, #8]
	.loc	7 2482 3 is_stmt 0              @ ../Drivers/STM32H7xx_HAL_Driver/Src/stm32h7xx_hal_qspi.c:2482:3
	lsls	r1, r1, #30
	bmi	.LBB19_16
.Ltmp349:
@ %bb.14:                               @   in Loop: Header=BB19_13 Depth=1
	@DEBUG_VALUE: HAL_QSPI_Receive:Timeout <- [DW_OP_LLVM_entry_value 1] $r2
	@DEBUG_VALUE: HAL_QSPI_Receive:status <- 0
	@DEBUG_VALUE: HAL_QSPI_Receive:hqspi <- $r4
	.loc	7 2482 10                       @ ../Drivers/STM32H7xx_HAL_Driver/Src/stm32h7xx_hal_qspi.c:2482:10
	ldr	r1, [r0, #8]
	.loc	7 2482 3                        @ ../Drivers/STM32H7xx_HAL_Driver/Src/stm32h7xx_hal_qspi.c:2482:3
	lsls	r1, r1, #30
	.loc	7 2482 10                       @ ../Drivers/STM32H7xx_HAL_Driver/Src/stm32h7xx_hal_qspi.c:2482:10
	itt	pl
	ldrpl	r1, [r0, #8]
	.loc	7 2482 3                        @ ../Drivers/STM32H7xx_HAL_Driver/Src/stm32h7xx_hal_qspi.c:2482:3
	lslspl.w	r1, r1, #30
	bmi	.LBB19_16
.Ltmp350:
@ %bb.15:                               @   in Loop: Header=BB19_13 Depth=1
	@DEBUG_VALUE: HAL_QSPI_Receive:Timeout <- [DW_OP_LLVM_entry_value 1] $r2
	@DEBUG_VALUE: HAL_QSPI_Receive:status <- 0
	@DEBUG_VALUE: HAL_QSPI_Receive:hqspi <- $r4
	.loc	7 2482 10                       @ ../Drivers/STM32H7xx_HAL_Driver/Src/stm32h7xx_hal_qspi.c:2482:10
	ldr	r1, [r0, #8]
	.loc	7 2482 3                        @ ../Drivers/STM32H7xx_HAL_Driver/Src/stm32h7xx_hal_qspi.c:2482:3
	lsls	r1, r1, #30
	bpl	.LBB19_13
.Ltmp351:
.LBB19_16:
	@DEBUG_VALUE: HAL_QSPI_Receive:Timeout <- [DW_OP_LLVM_entry_value 1] $r2
	@DEBUG_VALUE: HAL_QSPI_Receive:status <- 0
	@DEBUG_VALUE: HAL_QSPI_Receive:hqspi <- $r4
	@DEBUG_VALUE: HAL_QSPI_Receive:status <- 0
	.loc	7 0 3                           @ ../Drivers/STM32H7xx_HAL_Driver/Src/stm32h7xx_hal_qspi.c:0:3
	movs	r1, #2
.Ltmp352:
	.loc	7 1109 11 is_stmt 1             @ ../Drivers/STM32H7xx_HAL_Driver/Src/stm32h7xx_hal_qspi.c:1109:11
	str	r1, [r0, #12]
	movs	r0, #1
.Ltmp353:
	.loc	7 1115 20                       @ ../Drivers/STM32H7xx_HAL_Driver/Src/stm32h7xx_hal_qspi.c:1115:20
	strb.w	r0, [r4, #65]
	movs	r0, #0
.Ltmp354:
	@DEBUG_VALUE: HAL_QSPI_Receive:status <- $r0
	.loc	7 0 20 is_stmt 0                @ ../Drivers/STM32H7xx_HAL_Driver/Src/stm32h7xx_hal_qspi.c:0:20
	movs	r1, #0
.Ltmp355:
	.loc	7 1129 3 is_stmt 1              @ ../Drivers/STM32H7xx_HAL_Driver/Src/stm32h7xx_hal_qspi.c:1129:3
	strb.w	r1, [r4, #64]
.Ltmp356:
	.loc	7 1132 1                        @ ../Drivers/STM32H7xx_HAL_Driver/Src/stm32h7xx_hal_qspi.c:1132:1
	pop	{r4, r5, r7, pc}
.Ltmp357:
.Lfunc_end19:
	.size	HAL_QSPI_Receive, .Lfunc_end19-HAL_QSPI_Receive
	.cfi_endproc
	.cantunwind
	.fnend
                                        @ -- End function
	.hidden	HAL_QSPI_Transmit_IT            @ -- Begin function HAL_QSPI_Transmit_IT
	.globl	HAL_QSPI_Transmit_IT
	.p2align	3
	.type	HAL_QSPI_Transmit_IT,%function
	.code	16                              @ @HAL_QSPI_Transmit_IT
	.thumb_func
HAL_QSPI_Transmit_IT:
.Lfunc_begin20:
	.loc	7 1142 0                        @ ../Drivers/STM32H7xx_HAL_Driver/Src/stm32h7xx_hal_qspi.c:1142:0
	.fnstart
	.cfi_startproc
@ %bb.0:
	@DEBUG_VALUE: HAL_QSPI_Transmit_IT:hqspi <- $r0
	@DEBUG_VALUE: HAL_QSPI_Transmit_IT:pData <- $r1
	mov	r2, r0
.Ltmp358:
	@DEBUG_VALUE: HAL_QSPI_Transmit_IT:status <- 0
	@DEBUG_VALUE: HAL_QSPI_Transmit_IT:hqspi <- $r2
	.loc	7 1146 3 prologue_end           @ ../Drivers/STM32H7xx_HAL_Driver/Src/stm32h7xx_hal_qspi.c:1146:3
	ldrb.w	r0, [r0, #64]
.Ltmp359:
	.loc	7 1146 3 is_stmt 0              @ ../Drivers/STM32H7xx_HAL_Driver/Src/stm32h7xx_hal_qspi.c:1146:3
	cmp	r0, #1
	beq	.LBB20_5
.Ltmp360:
@ %bb.1:
	@DEBUG_VALUE: HAL_QSPI_Transmit_IT:hqspi <- $r2
	@DEBUG_VALUE: HAL_QSPI_Transmit_IT:status <- 0
	@DEBUG_VALUE: HAL_QSPI_Transmit_IT:pData <- $r1
	.loc	7 0 3                           @ ../Drivers/STM32H7xx_HAL_Driver/Src/stm32h7xx_hal_qspi.c:0:3
	movs	r0, #1
.Ltmp361:
	.loc	7 1146 3                        @ ../Drivers/STM32H7xx_HAL_Driver/Src/stm32h7xx_hal_qspi.c:1146:3
	strb.w	r0, [r2, #64]
.Ltmp362:
	.loc	7 1148 13 is_stmt 1             @ ../Drivers/STM32H7xx_HAL_Driver/Src/stm32h7xx_hal_qspi.c:1148:13
	ldrb.w	r0, [r2, #65]
.Ltmp363:
	.loc	7 1148 6 is_stmt 0              @ ../Drivers/STM32H7xx_HAL_Driver/Src/stm32h7xx_hal_qspi.c:1148:6
	cmp	r0, #1
	bne	.LBB20_4
.Ltmp364:
@ %bb.2:
	@DEBUG_VALUE: HAL_QSPI_Transmit_IT:hqspi <- $r2
	@DEBUG_VALUE: HAL_QSPI_Transmit_IT:status <- 0
	@DEBUG_VALUE: HAL_QSPI_Transmit_IT:pData <- $r1
	.loc	7 0 6                           @ ../Drivers/STM32H7xx_HAL_Driver/Src/stm32h7xx_hal_qspi.c:0:6
	mov.w	r0, #0
.Ltmp365:
	.loc	7 1150 22 is_stmt 1             @ ../Drivers/STM32H7xx_HAL_Driver/Src/stm32h7xx_hal_qspi.c:1150:22
	str	r0, [r2, #68]
	.loc	7 1152 8                        @ ../Drivers/STM32H7xx_HAL_Driver/Src/stm32h7xx_hal_qspi.c:1152:8
	cbz	r1, .LBB20_6
.Ltmp366:
@ %bb.3:
	@DEBUG_VALUE: HAL_QSPI_Transmit_IT:hqspi <- $r2
	@DEBUG_VALUE: HAL_QSPI_Transmit_IT:status <- 0
	@DEBUG_VALUE: HAL_QSPI_Transmit_IT:pData <- $r1
	.loc	7 0 8 is_stmt 0                 @ ../Drivers/STM32H7xx_HAL_Driver/Src/stm32h7xx_hal_qspi.c:0:8
	movs	r3, #18
.Ltmp367:
	.loc	7 1155 20 is_stmt 1             @ ../Drivers/STM32H7xx_HAL_Driver/Src/stm32h7xx_hal_qspi.c:1155:20
	strb.w	r3, [r2, #65]
	.loc	7 1158 28                       @ ../Drivers/STM32H7xx_HAL_Driver/Src/stm32h7xx_hal_qspi.c:1158:28
	ldr.w	r12, [r2]
	ldr.w	r3, [r12, #16]
	.loc	7 1158 59 is_stmt 0             @ ../Drivers/STM32H7xx_HAL_Driver/Src/stm32h7xx_hal_qspi.c:1158:59
	adds	r3, #1
	.loc	7 1158 26                       @ ../Drivers/STM32H7xx_HAL_Driver/Src/stm32h7xx_hal_qspi.c:1158:26
	str	r3, [r2, #44]
	.loc	7 1159 27 is_stmt 1             @ ../Drivers/STM32H7xx_HAL_Driver/Src/stm32h7xx_hal_qspi.c:1159:27
	ldr.w	r3, [r12, #16]
	.loc	7 1159 58 is_stmt 0             @ ../Drivers/STM32H7xx_HAL_Driver/Src/stm32h7xx_hal_qspi.c:1159:58
	adds	r3, #1
	.loc	7 1159 25                       @ ../Drivers/STM32H7xx_HAL_Driver/Src/stm32h7xx_hal_qspi.c:1159:25
	str	r3, [r2, #40]
	.loc	7 1160 25 is_stmt 1             @ ../Drivers/STM32H7xx_HAL_Driver/Src/stm32h7xx_hal_qspi.c:1160:25
	str	r1, [r2, #36]
	movs	r1, #3
.Ltmp368:
	@DEBUG_VALUE: HAL_QSPI_Transmit_IT:pData <- [DW_OP_LLVM_entry_value 1] $r1
	.loc	7 1163 7                        @ ../Drivers/STM32H7xx_HAL_Driver/Src/stm32h7xx_hal_qspi.c:1163:7
	str.w	r1, [r12, #12]
	.loc	7 1166 7                        @ ../Drivers/STM32H7xx_HAL_Driver/Src/stm32h7xx_hal_qspi.c:1166:7
	ldr.w	r1, [r12, #20]
	bic	r1, r1, #201326592
	str.w	r1, [r12, #20]
.Ltmp369:
	.loc	7 1169 7                        @ ../Drivers/STM32H7xx_HAL_Driver/Src/stm32h7xx_hal_qspi.c:1169:7
	strb.w	r0, [r2, #64]
.Ltmp370:
	.loc	7 1172 7                        @ ../Drivers/STM32H7xx_HAL_Driver/Src/stm32h7xx_hal_qspi.c:1172:7
	ldr.w	r1, [r12]
	orr	r1, r1, #458752
	str.w	r1, [r12]
.Ltmp371:
	.loc	7 1192 1                        @ ../Drivers/STM32H7xx_HAL_Driver/Src/stm32h7xx_hal_qspi.c:1192:1
	bx	lr
.Ltmp372:
	.p2align	2
.LBB20_4:
	@DEBUG_VALUE: HAL_QSPI_Transmit_IT:hqspi <- $r2
	@DEBUG_VALUE: HAL_QSPI_Transmit_IT:status <- 0
	@DEBUG_VALUE: HAL_QSPI_Transmit_IT:pData <- $r1
	@DEBUG_VALUE: HAL_QSPI_Transmit_IT:status <- 2
	.loc	7 0 1 is_stmt 0                 @ ../Drivers/STM32H7xx_HAL_Driver/Src/stm32h7xx_hal_qspi.c:0:1
	movs	r0, #0
.Ltmp373:
	.loc	7 1188 5 is_stmt 1              @ ../Drivers/STM32H7xx_HAL_Driver/Src/stm32h7xx_hal_qspi.c:1188:5
	strb.w	r0, [r2, #64]
.Ltmp374:
.LBB20_5:
	@DEBUG_VALUE: HAL_QSPI_Transmit_IT:hqspi <- $r2
	@DEBUG_VALUE: HAL_QSPI_Transmit_IT:pData <- $r1
	.loc	7 0 5 is_stmt 0                 @ ../Drivers/STM32H7xx_HAL_Driver/Src/stm32h7xx_hal_qspi.c:0:5
	movs	r0, #2
	.loc	7 1192 1 is_stmt 1              @ ../Drivers/STM32H7xx_HAL_Driver/Src/stm32h7xx_hal_qspi.c:1192:1
	bx	lr
.Ltmp375:
	.p2align	2
.LBB20_6:
	@DEBUG_VALUE: HAL_QSPI_Transmit_IT:hqspi <- $r2
	@DEBUG_VALUE: HAL_QSPI_Transmit_IT:status <- 0
	@DEBUG_VALUE: HAL_QSPI_Transmit_IT:pData <- $r1
	.loc	7 1176 24                       @ ../Drivers/STM32H7xx_HAL_Driver/Src/stm32h7xx_hal_qspi.c:1176:24
	ldr	r1, [r2, #68]
.Ltmp376:
	@DEBUG_VALUE: HAL_QSPI_Transmit_IT:pData <- [DW_OP_LLVM_entry_value 1] $r1
	orr	r1, r1, #8
	str	r1, [r2, #68]
.Ltmp377:
	@DEBUG_VALUE: HAL_QSPI_Transmit_IT:status <- 1
	.loc	7 1180 7                        @ ../Drivers/STM32H7xx_HAL_Driver/Src/stm32h7xx_hal_qspi.c:1180:7
	strb.w	r0, [r2, #64]
	movs	r0, #1
.Ltmp378:
	.loc	7 1192 1                        @ ../Drivers/STM32H7xx_HAL_Driver/Src/stm32h7xx_hal_qspi.c:1192:1
	bx	lr
.Ltmp379:
.Lfunc_end20:
	.size	HAL_QSPI_Transmit_IT, .Lfunc_end20-HAL_QSPI_Transmit_IT
	.cfi_endproc
	.cantunwind
	.fnend
                                        @ -- End function
	.hidden	HAL_QSPI_Receive_IT             @ -- Begin function HAL_QSPI_Receive_IT
	.globl	HAL_QSPI_Receive_IT
	.p2align	3
	.type	HAL_QSPI_Receive_IT,%function
	.code	16                              @ @HAL_QSPI_Receive_IT
	.thumb_func
HAL_QSPI_Receive_IT:
.Lfunc_begin21:
	.loc	7 1202 0                        @ ../Drivers/STM32H7xx_HAL_Driver/Src/stm32h7xx_hal_qspi.c:1202:0
	.fnstart
	.cfi_startproc
@ %bb.0:
	@DEBUG_VALUE: HAL_QSPI_Receive_IT:hqspi <- $r0
	@DEBUG_VALUE: HAL_QSPI_Receive_IT:pData <- $r1
	.save	{r7, lr}
	push	{r7, lr}
	.cfi_def_cfa_offset 8
	.cfi_offset lr, -4
	.cfi_offset r7, -8
.Ltmp380:
	.loc	7 1204 23 prologue_end          @ ../Drivers/STM32H7xx_HAL_Driver/Src/stm32h7xx_hal_qspi.c:1204:23
	ldr.w	lr, [r0]
	mov	r2, r0
.Ltmp381:
	@DEBUG_VALUE: HAL_QSPI_Receive_IT:status <- 0
	@DEBUG_VALUE: HAL_QSPI_Receive_IT:hqspi <- $r2
	ldr.w	r12, [lr, #24]
.Ltmp382:
	@DEBUG_VALUE: HAL_QSPI_Receive_IT:addr_reg <- $r12
	.loc	7 1207 3                        @ ../Drivers/STM32H7xx_HAL_Driver/Src/stm32h7xx_hal_qspi.c:1207:3
	ldrb.w	r0, [r0, #64]
.Ltmp383:
	.loc	7 1207 3 is_stmt 0              @ ../Drivers/STM32H7xx_HAL_Driver/Src/stm32h7xx_hal_qspi.c:1207:3
	cmp	r0, #1
	beq	.LBB21_5
.Ltmp384:
@ %bb.1:
	@DEBUG_VALUE: HAL_QSPI_Receive_IT:addr_reg <- $r12
	@DEBUG_VALUE: HAL_QSPI_Receive_IT:hqspi <- $r2
	@DEBUG_VALUE: HAL_QSPI_Receive_IT:status <- 0
	@DEBUG_VALUE: HAL_QSPI_Receive_IT:pData <- $r1
	.loc	7 0 3                           @ ../Drivers/STM32H7xx_HAL_Driver/Src/stm32h7xx_hal_qspi.c:0:3
	movs	r0, #1
.Ltmp385:
	.loc	7 1207 3                        @ ../Drivers/STM32H7xx_HAL_Driver/Src/stm32h7xx_hal_qspi.c:1207:3
	strb.w	r0, [r2, #64]
.Ltmp386:
	.loc	7 1209 13 is_stmt 1             @ ../Drivers/STM32H7xx_HAL_Driver/Src/stm32h7xx_hal_qspi.c:1209:13
	ldrb.w	r0, [r2, #65]
.Ltmp387:
	.loc	7 1209 6 is_stmt 0              @ ../Drivers/STM32H7xx_HAL_Driver/Src/stm32h7xx_hal_qspi.c:1209:6
	cmp	r0, #1
	bne	.LBB21_4
.Ltmp388:
@ %bb.2:
	@DEBUG_VALUE: HAL_QSPI_Receive_IT:addr_reg <- $r12
	@DEBUG_VALUE: HAL_QSPI_Receive_IT:hqspi <- $r2
	@DEBUG_VALUE: HAL_QSPI_Receive_IT:status <- 0
	@DEBUG_VALUE: HAL_QSPI_Receive_IT:pData <- $r1
	.loc	7 0 6                           @ ../Drivers/STM32H7xx_HAL_Driver/Src/stm32h7xx_hal_qspi.c:0:6
	mov.w	r0, #0
.Ltmp389:
	.loc	7 1211 22 is_stmt 1             @ ../Drivers/STM32H7xx_HAL_Driver/Src/stm32h7xx_hal_qspi.c:1211:22
	str	r0, [r2, #68]
	.loc	7 1213 8                        @ ../Drivers/STM32H7xx_HAL_Driver/Src/stm32h7xx_hal_qspi.c:1213:8
	cbz	r1, .LBB21_6
.Ltmp390:
@ %bb.3:
	@DEBUG_VALUE: HAL_QSPI_Receive_IT:addr_reg <- $r12
	@DEBUG_VALUE: HAL_QSPI_Receive_IT:hqspi <- $r2
	@DEBUG_VALUE: HAL_QSPI_Receive_IT:status <- 0
	@DEBUG_VALUE: HAL_QSPI_Receive_IT:pData <- $r1
	.loc	7 0 8 is_stmt 0                 @ ../Drivers/STM32H7xx_HAL_Driver/Src/stm32h7xx_hal_qspi.c:0:8
	movs	r3, #34
.Ltmp391:
	.loc	7 1216 20 is_stmt 1             @ ../Drivers/STM32H7xx_HAL_Driver/Src/stm32h7xx_hal_qspi.c:1216:20
	strb.w	r3, [r2, #65]
	.loc	7 1219 28                       @ ../Drivers/STM32H7xx_HAL_Driver/Src/stm32h7xx_hal_qspi.c:1219:28
	ldr.w	r3, [lr, #16]
	.loc	7 1219 59 is_stmt 0             @ ../Drivers/STM32H7xx_HAL_Driver/Src/stm32h7xx_hal_qspi.c:1219:59
	adds	r3, #1
	.loc	7 1219 26                       @ ../Drivers/STM32H7xx_HAL_Driver/Src/stm32h7xx_hal_qspi.c:1219:26
	str	r3, [r2, #56]
	.loc	7 1220 27 is_stmt 1             @ ../Drivers/STM32H7xx_HAL_Driver/Src/stm32h7xx_hal_qspi.c:1220:27
	ldr.w	r3, [lr, #16]
	.loc	7 1220 58 is_stmt 0             @ ../Drivers/STM32H7xx_HAL_Driver/Src/stm32h7xx_hal_qspi.c:1220:58
	adds	r3, #1
	.loc	7 1220 25                       @ ../Drivers/STM32H7xx_HAL_Driver/Src/stm32h7xx_hal_qspi.c:1220:25
	str	r3, [r2, #52]
	.loc	7 1221 25 is_stmt 1             @ ../Drivers/STM32H7xx_HAL_Driver/Src/stm32h7xx_hal_qspi.c:1221:25
	str	r1, [r2, #48]
	movs	r1, #3
.Ltmp392:
	@DEBUG_VALUE: HAL_QSPI_Receive_IT:pData <- [DW_OP_LLVM_entry_value 1] $r1
	.loc	7 1224 7                        @ ../Drivers/STM32H7xx_HAL_Driver/Src/stm32h7xx_hal_qspi.c:1224:7
	str.w	r1, [lr, #12]
	movs	r3, #1
	.loc	7 1227 7                        @ ../Drivers/STM32H7xx_HAL_Driver/Src/stm32h7xx_hal_qspi.c:1227:7
	ldr.w	r1, [lr, #20]
	bfi	r1, r3, #26, #2
	str.w	r1, [lr, #20]
	.loc	7 1230 7                        @ ../Drivers/STM32H7xx_HAL_Driver/Src/stm32h7xx_hal_qspi.c:1230:7
	str.w	r12, [lr, #24]
.Ltmp393:
	.loc	7 1233 7                        @ ../Drivers/STM32H7xx_HAL_Driver/Src/stm32h7xx_hal_qspi.c:1233:7
	strb.w	r0, [r2, #64]
.Ltmp394:
	.loc	7 1236 7                        @ ../Drivers/STM32H7xx_HAL_Driver/Src/stm32h7xx_hal_qspi.c:1236:7
	ldr.w	r1, [lr]
	orr	r1, r1, #458752
	str.w	r1, [lr]
.Ltmp395:
	.loc	7 1256 1                        @ ../Drivers/STM32H7xx_HAL_Driver/Src/stm32h7xx_hal_qspi.c:1256:1
	pop	{r7, pc}
.Ltmp396:
	.p2align	2
.LBB21_4:
	@DEBUG_VALUE: HAL_QSPI_Receive_IT:addr_reg <- $r12
	@DEBUG_VALUE: HAL_QSPI_Receive_IT:hqspi <- $r2
	@DEBUG_VALUE: HAL_QSPI_Receive_IT:status <- 0
	@DEBUG_VALUE: HAL_QSPI_Receive_IT:pData <- $r1
	@DEBUG_VALUE: HAL_QSPI_Receive_IT:status <- 2
	.loc	7 0 1 is_stmt 0                 @ ../Drivers/STM32H7xx_HAL_Driver/Src/stm32h7xx_hal_qspi.c:0:1
	movs	r0, #0
.Ltmp397:
	.loc	7 1252 5 is_stmt 1              @ ../Drivers/STM32H7xx_HAL_Driver/Src/stm32h7xx_hal_qspi.c:1252:5
	strb.w	r0, [r2, #64]
.Ltmp398:
.LBB21_5:
	@DEBUG_VALUE: HAL_QSPI_Receive_IT:addr_reg <- $r12
	@DEBUG_VALUE: HAL_QSPI_Receive_IT:hqspi <- $r2
	@DEBUG_VALUE: HAL_QSPI_Receive_IT:pData <- $r1
	.loc	7 0 5 is_stmt 0                 @ ../Drivers/STM32H7xx_HAL_Driver/Src/stm32h7xx_hal_qspi.c:0:5
	movs	r0, #2
	.loc	7 1256 1 is_stmt 1              @ ../Drivers/STM32H7xx_HAL_Driver/Src/stm32h7xx_hal_qspi.c:1256:1
	pop	{r7, pc}
.Ltmp399:
	.p2align	2
.LBB21_6:
	@DEBUG_VALUE: HAL_QSPI_Receive_IT:addr_reg <- $r12
	@DEBUG_VALUE: HAL_QSPI_Receive_IT:hqspi <- $r2
	@DEBUG_VALUE: HAL_QSPI_Receive_IT:status <- 0
	@DEBUG_VALUE: HAL_QSPI_Receive_IT:pData <- $r1
	.loc	7 1240 24                       @ ../Drivers/STM32H7xx_HAL_Driver/Src/stm32h7xx_hal_qspi.c:1240:24
	ldr	r1, [r2, #68]
.Ltmp400:
	@DEBUG_VALUE: HAL_QSPI_Receive_IT:pData <- [DW_OP_LLVM_entry_value 1] $r1
	orr	r1, r1, #8
	str	r1, [r2, #68]
.Ltmp401:
	@DEBUG_VALUE: HAL_QSPI_Receive_IT:status <- 1
	.loc	7 1244 7                        @ ../Drivers/STM32H7xx_HAL_Driver/Src/stm32h7xx_hal_qspi.c:1244:7
	strb.w	r0, [r2, #64]
	movs	r0, #1
.Ltmp402:
	.loc	7 1256 1                        @ ../Drivers/STM32H7xx_HAL_Driver/Src/stm32h7xx_hal_qspi.c:1256:1
	pop	{r7, pc}
.Ltmp403:
.Lfunc_end21:
	.size	HAL_QSPI_Receive_IT, .Lfunc_end21-HAL_QSPI_Receive_IT
	.cfi_endproc
	.cantunwind
	.fnend
                                        @ -- End function
	.hidden	HAL_QSPI_Transmit_DMA           @ -- Begin function HAL_QSPI_Transmit_DMA
	.globl	HAL_QSPI_Transmit_DMA
	.p2align	3
	.type	HAL_QSPI_Transmit_DMA,%function
	.code	16                              @ @HAL_QSPI_Transmit_DMA
	.thumb_func
HAL_QSPI_Transmit_DMA:
.Lfunc_begin22:
	.loc	7 1266 0                        @ ../Drivers/STM32H7xx_HAL_Driver/Src/stm32h7xx_hal_qspi.c:1266:0
	.fnstart
	.cfi_startproc
@ %bb.0:
	@DEBUG_VALUE: HAL_QSPI_Transmit_DMA:hqspi <- $r0
	@DEBUG_VALUE: HAL_QSPI_Transmit_DMA:pData <- $r1
	.save	{r4, r5, r6, lr}
	push	{r4, r5, r6, lr}
	.cfi_def_cfa_offset 16
	.cfi_offset lr, -4
	.cfi_offset r6, -8
	.cfi_offset r5, -12
	.cfi_offset r4, -16
	.pad	#8
	sub	sp, #8
	.cfi_def_cfa_offset 24
	mov	r4, r0
.Ltmp404:
	@DEBUG_VALUE: HAL_QSPI_Transmit_DMA:status <- 0
	@DEBUG_VALUE: HAL_QSPI_Transmit_DMA:hqspi <- $r4
	.loc	7 1268 25 prologue_end          @ ../Drivers/STM32H7xx_HAL_Driver/Src/stm32h7xx_hal_qspi.c:1268:25
	ldr	r2, [r0]
	ldr	r0, [r2, #16]
.Ltmp405:
	@DEBUG_VALUE: HAL_QSPI_Transmit_DMA:data_size <- undef
	.loc	7 1271 3                        @ ../Drivers/STM32H7xx_HAL_Driver/Src/stm32h7xx_hal_qspi.c:1271:3
	ldrb.w	r3, [r4, #64]
.Ltmp406:
	.loc	7 1271 3 is_stmt 0              @ ../Drivers/STM32H7xx_HAL_Driver/Src/stm32h7xx_hal_qspi.c:1271:3
	cmp	r3, #1
	bne	.LBB22_2
.Ltmp407:
@ %bb.1:
	@DEBUG_VALUE: HAL_QSPI_Transmit_DMA:hqspi <- $r4
	@DEBUG_VALUE: HAL_QSPI_Transmit_DMA:status <- 0
	@DEBUG_VALUE: HAL_QSPI_Transmit_DMA:pData <- $r1
	.loc	7 0 3                           @ ../Drivers/STM32H7xx_HAL_Driver/Src/stm32h7xx_hal_qspi.c:0:3
	movs	r5, #2
	.loc	7 1369 1 is_stmt 1              @ ../Drivers/STM32H7xx_HAL_Driver/Src/stm32h7xx_hal_qspi.c:1369:1
	mov	r0, r5
	add	sp, #8
	pop	{r4, r5, r6, pc}
.Ltmp408:
	.p2align	2
.LBB22_2:
	@DEBUG_VALUE: HAL_QSPI_Transmit_DMA:hqspi <- $r4
	@DEBUG_VALUE: HAL_QSPI_Transmit_DMA:status <- 0
	@DEBUG_VALUE: HAL_QSPI_Transmit_DMA:pData <- $r1
	@DEBUG_VALUE: HAL_QSPI_Transmit_DMA:data_size <- undef
	.loc	7 0 1 is_stmt 0                 @ ../Drivers/STM32H7xx_HAL_Driver/Src/stm32h7xx_hal_qspi.c:0:1
	movs	r3, #1
.Ltmp409:
	.loc	7 1271 3 is_stmt 1              @ ../Drivers/STM32H7xx_HAL_Driver/Src/stm32h7xx_hal_qspi.c:1271:3
	strb.w	r3, [r4, #64]
.Ltmp410:
	.loc	7 1273 13                       @ ../Drivers/STM32H7xx_HAL_Driver/Src/stm32h7xx_hal_qspi.c:1273:13
	ldrb.w	r3, [r4, #65]
.Ltmp411:
	.loc	7 1273 6 is_stmt 0              @ ../Drivers/STM32H7xx_HAL_Driver/Src/stm32h7xx_hal_qspi.c:1273:6
	cmp	r3, #1
	bne	.LBB22_8
.Ltmp412:
@ %bb.3:
	@DEBUG_VALUE: HAL_QSPI_Transmit_DMA:hqspi <- $r4
	@DEBUG_VALUE: HAL_QSPI_Transmit_DMA:status <- 0
	@DEBUG_VALUE: HAL_QSPI_Transmit_DMA:pData <- $r1
	@DEBUG_VALUE: HAL_QSPI_Transmit_DMA:data_size <- undef
	.loc	7 0 6                           @ ../Drivers/STM32H7xx_HAL_Driver/Src/stm32h7xx_hal_qspi.c:0:6
	mov.w	r5, #0
.Ltmp413:
	.loc	7 1276 22 is_stmt 1             @ ../Drivers/STM32H7xx_HAL_Driver/Src/stm32h7xx_hal_qspi.c:1276:22
	str	r5, [r4, #68]
	.loc	7 1278 8                        @ ../Drivers/STM32H7xx_HAL_Driver/Src/stm32h7xx_hal_qspi.c:1278:8
	cbz	r1, .LBB22_9
.Ltmp414:
@ %bb.4:
	@DEBUG_VALUE: HAL_QSPI_Transmit_DMA:hqspi <- $r4
	@DEBUG_VALUE: HAL_QSPI_Transmit_DMA:status <- 0
	@DEBUG_VALUE: HAL_QSPI_Transmit_DMA:pData <- $r1
	.loc	7 0 8 is_stmt 0                 @ ../Drivers/STM32H7xx_HAL_Driver/Src/stm32h7xx_hal_qspi.c:0:8
	adds	r0, #1
.Ltmp415:
	@DEBUG_VALUE: HAL_QSPI_Transmit_DMA:data_size <- $r0
	.loc	7 1281 26 is_stmt 1             @ ../Drivers/STM32H7xx_HAL_Driver/Src/stm32h7xx_hal_qspi.c:1281:26
	str	r0, [r4, #44]
	movs	r0, #18
.Ltmp416:
	.loc	7 1284 22                       @ ../Drivers/STM32H7xx_HAL_Driver/Src/stm32h7xx_hal_qspi.c:1284:22
	strb.w	r0, [r4, #65]
	movs	r0, #3
	.loc	7 1287 9                        @ ../Drivers/STM32H7xx_HAL_Driver/Src/stm32h7xx_hal_qspi.c:1287:9
	str	r0, [r2, #12]
	.loc	7 1290 36                       @ ../Drivers/STM32H7xx_HAL_Driver/Src/stm32h7xx_hal_qspi.c:1290:36
	ldr	r0, [r4, #44]
	.loc	7 1290 27 is_stmt 0             @ ../Drivers/STM32H7xx_HAL_Driver/Src/stm32h7xx_hal_qspi.c:1290:27
	str	r0, [r4, #40]
	.loc	7 1291 27 is_stmt 1             @ ../Drivers/STM32H7xx_HAL_Driver/Src/stm32h7xx_hal_qspi.c:1291:27
	str	r1, [r4, #36]
	movw	r12, #3084
	.loc	7 1294 9                        @ ../Drivers/STM32H7xx_HAL_Driver/Src/stm32h7xx_hal_qspi.c:1294:9
	ldr	r0, [r2, #20]
	bic	r0, r0, #201326592
	str	r0, [r2, #20]
	.loc	7 1297 16                       @ ../Drivers/STM32H7xx_HAL_Driver/Src/stm32h7xx_hal_qspi.c:1297:16
	ldr	r0, [r4, #60]
	.loc	7 1297 40 is_stmt 0             @ ../Drivers/STM32H7xx_HAL_Driver/Src/stm32h7xx_hal_qspi.c:1297:40
	movw	r3, :lower16:(QSPI_DMATxCplt-(.LPC22_0+4))
	movt	r3, :upper16:(QSPI_DMATxCplt-(.LPC22_0+4))
.LPC22_0:
	add	r3, pc
	str	r3, [r0, #68]
	.loc	7 1300 41 is_stmt 1             @ ../Drivers/STM32H7xx_HAL_Driver/Src/stm32h7xx_hal_qspi.c:1300:41
	movw	r3, :lower16:(QSPI_DMAError-(.LPC22_1+4))
	movt	r3, :upper16:(QSPI_DMAError-(.LPC22_1+4))
	.loc	7 1303 41                       @ ../Drivers/STM32H7xx_HAL_Driver/Src/stm32h7xx_hal_qspi.c:1303:41
	str	r5, [r0, #88]
	.loc	7 1300 41                       @ ../Drivers/STM32H7xx_HAL_Driver/Src/stm32h7xx_hal_qspi.c:1300:41
.LPC22_1:
	add	r3, pc
	str	r3, [r0, #84]
	.loc	7 1306 9                        @ ../Drivers/STM32H7xx_HAL_Driver/Src/stm32h7xx_hal_qspi.c:1306:9
	ldr	r3, [r0]
.Ltmp417:
	.loc	7 1309 32                       @ ../Drivers/STM32H7xx_HAL_Driver/Src/stm32h7xx_hal_qspi.c:1309:32
	ldr	r6, [r0, #28]
.Ltmp418:
	.loc	7 1309 13 is_stmt 0             @ ../Drivers/STM32H7xx_HAL_Driver/Src/stm32h7xx_hal_qspi.c:1309:13
	cmp	r6, #32
	.loc	7 1306 9 is_stmt 1              @ ../Drivers/STM32H7xx_HAL_Driver/Src/stm32h7xx_hal_qspi.c:1306:9
	ldr	r5, [r3, #16]
	bic.w	r5, r5, r12
	str	r5, [r3, #16]
	.loc	7 1309 13                       @ ../Drivers/STM32H7xx_HAL_Driver/Src/stm32h7xx_hal_qspi.c:1309:13
	beq	.LBB22_10
.Ltmp419:
@ %bb.5:
	@DEBUG_VALUE: HAL_QSPI_Transmit_DMA:hqspi <- $r4
	@DEBUG_VALUE: HAL_QSPI_Transmit_DMA:status <- 0
	@DEBUG_VALUE: HAL_QSPI_Transmit_DMA:pData <- $r1
	cmp	r6, #16
	beq	.LBB22_11
.Ltmp420:
@ %bb.6:
	@DEBUG_VALUE: HAL_QSPI_Transmit_DMA:hqspi <- $r4
	@DEBUG_VALUE: HAL_QSPI_Transmit_DMA:status <- 0
	@DEBUG_VALUE: HAL_QSPI_Transmit_DMA:pData <- $r1
	cbnz	r6, .LBB22_13
.Ltmp421:
@ %bb.7:
	@DEBUG_VALUE: HAL_QSPI_Transmit_DMA:hqspi <- $r4
	@DEBUG_VALUE: HAL_QSPI_Transmit_DMA:status <- 0
	@DEBUG_VALUE: HAL_QSPI_Transmit_DMA:pData <- $r1
	.loc	7 1311 11                       @ ../Drivers/STM32H7xx_HAL_Driver/Src/stm32h7xx_hal_qspi.c:1311:11
	ldr	r6, [r3, #16]
	movw	r5, #771
	bics	r6, r5
	adds	r6, #2
	b	.LBB22_12
.Ltmp422:
	.p2align	2
.LBB22_8:
	@DEBUG_VALUE: HAL_QSPI_Transmit_DMA:hqspi <- $r4
	@DEBUG_VALUE: HAL_QSPI_Transmit_DMA:status <- 0
	@DEBUG_VALUE: HAL_QSPI_Transmit_DMA:pData <- $r1
	@DEBUG_VALUE: HAL_QSPI_Transmit_DMA:status <- 2
	.loc	7 0 11 is_stmt 0                @ ../Drivers/STM32H7xx_HAL_Driver/Src/stm32h7xx_hal_qspi.c:0:11
	movs	r5, #2
	b	.LBB22_16
.Ltmp423:
	.p2align	2
.LBB22_9:
	@DEBUG_VALUE: HAL_QSPI_Transmit_DMA:hqspi <- $r4
	@DEBUG_VALUE: HAL_QSPI_Transmit_DMA:status <- 0
	@DEBUG_VALUE: HAL_QSPI_Transmit_DMA:pData <- $r1
	.loc	7 1353 24 is_stmt 1             @ ../Drivers/STM32H7xx_HAL_Driver/Src/stm32h7xx_hal_qspi.c:1353:24
	ldr	r0, [r4, #68]
	orr	r0, r0, #8
	str	r0, [r4, #68]
.Ltmp424:
	@DEBUG_VALUE: HAL_QSPI_Transmit_DMA:status <- 1
	.loc	7 1357 7                        @ ../Drivers/STM32H7xx_HAL_Driver/Src/stm32h7xx_hal_qspi.c:1357:7
	strb.w	r5, [r4, #64]
	movs	r5, #1
.Ltmp425:
	.loc	7 1369 1                        @ ../Drivers/STM32H7xx_HAL_Driver/Src/stm32h7xx_hal_qspi.c:1369:1
	mov	r0, r5
	add	sp, #8
	pop	{r4, r5, r6, pc}
.Ltmp426:
	.p2align	2
.LBB22_10:
	@DEBUG_VALUE: HAL_QSPI_Transmit_DMA:hqspi <- $r4
	@DEBUG_VALUE: HAL_QSPI_Transmit_DMA:status <- 0
	@DEBUG_VALUE: HAL_QSPI_Transmit_DMA:pData <- $r1
	.loc	7 1319 11                       @ ../Drivers/STM32H7xx_HAL_Driver/Src/stm32h7xx_hal_qspi.c:1319:11
	ldr	r6, [r3, #16]
	movw	r5, #771
	bics	r6, r5
	addw	r6, r6, #514
	b	.LBB22_12
.Ltmp427:
	.p2align	2
.LBB22_11:
	@DEBUG_VALUE: HAL_QSPI_Transmit_DMA:hqspi <- $r4
	@DEBUG_VALUE: HAL_QSPI_Transmit_DMA:status <- 0
	@DEBUG_VALUE: HAL_QSPI_Transmit_DMA:pData <- $r1
	.loc	7 1315 11                       @ ../Drivers/STM32H7xx_HAL_Driver/Src/stm32h7xx_hal_qspi.c:1315:11
	ldr	r6, [r3, #16]
	movw	r5, #771
	bics	r6, r5
	add.w	r6, r6, #258
.Ltmp428:
.LBB22_12:
	@DEBUG_VALUE: HAL_QSPI_Transmit_DMA:hqspi <- $r4
	@DEBUG_VALUE: HAL_QSPI_Transmit_DMA:status <- 0
	@DEBUG_VALUE: HAL_QSPI_Transmit_DMA:pData <- $r1
	.loc	7 0 0 is_stmt 0                 @ ../Drivers/STM32H7xx_HAL_Driver/Src/stm32h7xx_hal_qspi.c:0:0
	str	r6, [r3, #16]
	movs	r5, #0
	b	.LBB22_14
.Ltmp429:
	.p2align	2
.LBB22_13:
	@DEBUG_VALUE: HAL_QSPI_Transmit_DMA:hqspi <- $r4
	@DEBUG_VALUE: HAL_QSPI_Transmit_DMA:status <- 0
	@DEBUG_VALUE: HAL_QSPI_Transmit_DMA:pData <- $r1
	.loc	7 1324 28 is_stmt 1             @ ../Drivers/STM32H7xx_HAL_Driver/Src/stm32h7xx_hal_qspi.c:1324:28
	ldr	r3, [r4, #68]
	movs	r5, #1
.Ltmp430:
	@DEBUG_VALUE: HAL_QSPI_Transmit_DMA:status <- 1
	orr	r3, r3, #4
	str	r3, [r4, #68]
.Ltmp431:
.LBB22_14:
	@DEBUG_VALUE: HAL_QSPI_Transmit_DMA:hqspi <- $r4
	@DEBUG_VALUE: HAL_QSPI_Transmit_DMA:pData <- $r1
	@DEBUG_VALUE: HAL_QSPI_Transmit_DMA:status <- $r5
	.loc	7 1329 90                       @ ../Drivers/STM32H7xx_HAL_Driver/Src/stm32h7xx_hal_qspi.c:1329:90
	adds	r2, #32
	.loc	7 1329 101 is_stmt 0            @ ../Drivers/STM32H7xx_HAL_Driver/Src/stm32h7xx_hal_qspi.c:1329:101
	ldr	r3, [r4, #40]
	movs	r6, #1
	.loc	7 1329 13                       @ ../Drivers/STM32H7xx_HAL_Driver/Src/stm32h7xx_hal_qspi.c:1329:13
	str	r6, [sp]
	bl	HAL_MDMA_Start_IT
.Ltmp432:
	@DEBUG_VALUE: HAL_QSPI_Transmit_DMA:pData <- [DW_OP_LLVM_entry_value 1] $r1
	.loc	7 1329 13                       @ ../Drivers/STM32H7xx_HAL_Driver/Src/stm32h7xx_hal_qspi.c:1329:13
	cbz	r0, .LBB22_17
.Ltmp433:
@ %bb.15:
	@DEBUG_VALUE: HAL_QSPI_Transmit_DMA:pData <- [DW_OP_LLVM_entry_value 1] $r1
	@DEBUG_VALUE: HAL_QSPI_Transmit_DMA:status <- $r5
	@DEBUG_VALUE: HAL_QSPI_Transmit_DMA:hqspi <- $r4
	@DEBUG_VALUE: HAL_QSPI_Transmit_DMA:status <- 1
	.loc	7 1344 28 is_stmt 1             @ ../Drivers/STM32H7xx_HAL_Driver/Src/stm32h7xx_hal_qspi.c:1344:28
	ldr	r0, [r4, #68]
	movs	r5, #1
	orr	r0, r0, #4
	str	r0, [r4, #68]
	.loc	7 1345 24                       @ ../Drivers/STM32H7xx_HAL_Driver/Src/stm32h7xx_hal_qspi.c:1345:24
	strb.w	r6, [r4, #65]
.Ltmp434:
.LBB22_16:
	@DEBUG_VALUE: HAL_QSPI_Transmit_DMA:hqspi <- $r4
	.loc	7 0 24 is_stmt 0                @ ../Drivers/STM32H7xx_HAL_Driver/Src/stm32h7xx_hal_qspi.c:0:24
	movs	r0, #0
	strb.w	r0, [r4, #64]
.Ltmp435:
	.loc	7 1369 1 is_stmt 1              @ ../Drivers/STM32H7xx_HAL_Driver/Src/stm32h7xx_hal_qspi.c:1369:1
	mov	r0, r5
	add	sp, #8
	pop	{r4, r5, r6, pc}
.Ltmp436:
	.p2align	2
.LBB22_17:
	@DEBUG_VALUE: HAL_QSPI_Transmit_DMA:pData <- [DW_OP_LLVM_entry_value 1] $r1
	@DEBUG_VALUE: HAL_QSPI_Transmit_DMA:status <- $r5
	@DEBUG_VALUE: HAL_QSPI_Transmit_DMA:hqspi <- $r4
	.loc	7 0 1 is_stmt 0                 @ ../Drivers/STM32H7xx_HAL_Driver/Src/stm32h7xx_hal_qspi.c:0:1
	movs	r0, #0
.Ltmp437:
	.loc	7 1332 11 is_stmt 1             @ ../Drivers/STM32H7xx_HAL_Driver/Src/stm32h7xx_hal_qspi.c:1332:11
	strb.w	r0, [r4, #64]
.Ltmp438:
	.loc	7 1335 11                       @ ../Drivers/STM32H7xx_HAL_Driver/Src/stm32h7xx_hal_qspi.c:1335:11
	ldr	r0, [r4]
	ldr	r1, [r0]
	orr	r1, r1, #65536
	str	r1, [r0]
	.loc	7 1339 11                       @ ../Drivers/STM32H7xx_HAL_Driver/Src/stm32h7xx_hal_qspi.c:1339:11
	ldr	r1, [r0]
	orr	r1, r1, #4
	str	r1, [r0]
.Ltmp439:
	.loc	7 1369 1                        @ ../Drivers/STM32H7xx_HAL_Driver/Src/stm32h7xx_hal_qspi.c:1369:1
	mov	r0, r5
	add	sp, #8
	pop	{r4, r5, r6, pc}
.Ltmp440:
.Lfunc_end22:
	.size	HAL_QSPI_Transmit_DMA, .Lfunc_end22-HAL_QSPI_Transmit_DMA
	.cfi_endproc
	.cantunwind
	.fnend
                                        @ -- End function
	.p2align	3                               @ -- Begin function QSPI_DMATxCplt
	.type	QSPI_DMATxCplt,%function
	.code	16                              @ @QSPI_DMATxCplt
	.thumb_func
QSPI_DMATxCplt:
.Lfunc_begin23:
	.loc	7 2400 0                        @ ../Drivers/STM32H7xx_HAL_Driver/Src/stm32h7xx_hal_qspi.c:2400:0
	.fnstart
	.cfi_startproc
@ %bb.0:
	@DEBUG_VALUE: QSPI_DMATxCplt:hmdma <- $r0
	.loc	7 2401 60 prologue_end          @ ../Drivers/STM32H7xx_HAL_Driver/Src/stm32h7xx_hal_qspi.c:2401:60
	ldr	r0, [r0, #64]
.Ltmp441:
	@DEBUG_VALUE: QSPI_DMATxCplt:hmdma <- [DW_OP_LLVM_entry_value 1] $r0
	@DEBUG_VALUE: QSPI_DMATxCplt:hqspi <- $r0
	.loc	7 0 60 is_stmt 0                @ ../Drivers/STM32H7xx_HAL_Driver/Src/stm32h7xx_hal_qspi.c:0:60
	movs	r1, #0
	.loc	7 2402 22 is_stmt 1             @ ../Drivers/STM32H7xx_HAL_Driver/Src/stm32h7xx_hal_qspi.c:2402:22
	str	r1, [r0, #44]
	.loc	7 2405 3                        @ ../Drivers/STM32H7xx_HAL_Driver/Src/stm32h7xx_hal_qspi.c:2405:3
	ldr	r0, [r0]
.Ltmp442:
	ldr	r1, [r0]
	orr	r1, r1, #131072
	str	r1, [r0]
	.loc	7 2406 1                        @ ../Drivers/STM32H7xx_HAL_Driver/Src/stm32h7xx_hal_qspi.c:2406:1
	bx	lr
.Ltmp443:
.Lfunc_end23:
	.size	QSPI_DMATxCplt, .Lfunc_end23-QSPI_DMATxCplt
	.cfi_endproc
	.cantunwind
	.fnend
                                        @ -- End function
	.p2align	3                               @ -- Begin function QSPI_DMAError
	.type	QSPI_DMAError,%function
	.code	16                              @ @QSPI_DMAError
	.thumb_func
QSPI_DMAError:
.Lfunc_begin24:
	.loc	7 2414 0                        @ ../Drivers/STM32H7xx_HAL_Driver/Src/stm32h7xx_hal_qspi.c:2414:0
	.fnstart
	.cfi_startproc
@ %bb.0:
	@DEBUG_VALUE: QSPI_DMAError:hmdma <- $r0
	.save	{r4, lr}
	push	{r4, lr}
	.cfi_def_cfa_offset 8
	.cfi_offset lr, -4
	.cfi_offset r4, -8
.Ltmp444:
	.loc	7 2415 62 prologue_end          @ ../Drivers/STM32H7xx_HAL_Driver/Src/stm32h7xx_hal_qspi.c:2415:62
	ldr	r4, [r0, #64]
.Ltmp445:
	@DEBUG_VALUE: QSPI_DMAError:hqspi <- $r4
	.loc	7 0 62 is_stmt 0                @ ../Drivers/STM32H7xx_HAL_Driver/Src/stm32h7xx_hal_qspi.c:0:62
	movs	r1, #0
	.loc	7 2417 22 is_stmt 1             @ ../Drivers/STM32H7xx_HAL_Driver/Src/stm32h7xx_hal_qspi.c:2417:22
	str	r1, [r4, #56]
	.loc	7 2418 22                       @ ../Drivers/STM32H7xx_HAL_Driver/Src/stm32h7xx_hal_qspi.c:2418:22
	str	r1, [r4, #44]
	.loc	7 2419 22                       @ ../Drivers/STM32H7xx_HAL_Driver/Src/stm32h7xx_hal_qspi.c:2419:22
	ldr	r0, [r4, #68]
.Ltmp446:
	@DEBUG_VALUE: QSPI_DMAError:hmdma <- [DW_OP_LLVM_entry_value 1] $r0
	orr	r0, r0, #4
	str	r0, [r4, #68]
	.loc	7 2423 3                        @ ../Drivers/STM32H7xx_HAL_Driver/Src/stm32h7xx_hal_qspi.c:2423:3
	ldr	r0, [r4]
	ldr	r2, [r0]
	bic	r2, r2, #4
	str	r2, [r0]
.Ltmp447:
	@DEBUG_VALUE: HAL_QSPI_Abort_IT:status <- 0
	@DEBUG_VALUE: HAL_QSPI_Abort_IT:hqspi <- $r4
	.loc	7 2224 25                       @ ../Drivers/STM32H7xx_HAL_Driver/Src/stm32h7xx_hal_qspi.c:2224:25
	ldrb.w	r2, [r4, #65]
.Ltmp448:
	.loc	7 2224 7 is_stmt 0              @ ../Drivers/STM32H7xx_HAL_Driver/Src/stm32h7xx_hal_qspi.c:2224:7
	lsls	r2, r2, #30
	bpl	.LBB24_4
.Ltmp449:
@ %bb.1:
	@DEBUG_VALUE: HAL_QSPI_Abort_IT:hqspi <- $r4
	@DEBUG_VALUE: HAL_QSPI_Abort_IT:status <- 0
	@DEBUG_VALUE: QSPI_DMAError:hmdma <- [DW_OP_LLVM_entry_value 1] $r0
	@DEBUG_VALUE: QSPI_DMAError:hqspi <- $r4
	.loc	7 2227 5 is_stmt 1              @ ../Drivers/STM32H7xx_HAL_Driver/Src/stm32h7xx_hal_qspi.c:2227:5
	strb.w	r1, [r4, #64]
	movs	r1, #8
.Ltmp450:
	.loc	7 2230 18                       @ ../Drivers/STM32H7xx_HAL_Driver/Src/stm32h7xx_hal_qspi.c:2230:18
	strb.w	r1, [r4, #65]
	.loc	7 2233 5                        @ ../Drivers/STM32H7xx_HAL_Driver/Src/stm32h7xx_hal_qspi.c:2233:5
	ldr	r1, [r0]
	bic	r1, r1, #2031616
	str	r1, [r0]
.Ltmp451:
	.loc	7 2235 27                       @ ../Drivers/STM32H7xx_HAL_Driver/Src/stm32h7xx_hal_qspi.c:2235:27
	ldr	r1, [r0]
.Ltmp452:
	.loc	7 2235 9 is_stmt 0              @ ../Drivers/STM32H7xx_HAL_Driver/Src/stm32h7xx_hal_qspi.c:2235:9
	lsls	r1, r1, #29
	bmi	.LBB24_5
.Ltmp453:
@ %bb.2:
	@DEBUG_VALUE: HAL_QSPI_Abort_IT:hqspi <- $r4
	@DEBUG_VALUE: HAL_QSPI_Abort_IT:status <- 0
	@DEBUG_VALUE: QSPI_DMAError:hmdma <- [DW_OP_LLVM_entry_value 1] $r0
	@DEBUG_VALUE: QSPI_DMAError:hqspi <- $r4
	.loc	7 2258 11 is_stmt 1             @ ../Drivers/STM32H7xx_HAL_Driver/Src/stm32h7xx_hal_qspi.c:2258:11
	ldr	r1, [r0, #8]
.Ltmp454:
	.loc	7 2258 11 is_stmt 0             @ ../Drivers/STM32H7xx_HAL_Driver/Src/stm32h7xx_hal_qspi.c:2258:11
	lsls	r1, r1, #26
	bmi	.LBB24_7
.Ltmp455:
@ %bb.3:
	@DEBUG_VALUE: HAL_QSPI_Abort_IT:hqspi <- $r4
	@DEBUG_VALUE: HAL_QSPI_Abort_IT:status <- 0
	@DEBUG_VALUE: QSPI_DMAError:hmdma <- [DW_OP_LLVM_entry_value 1] $r0
	@DEBUG_VALUE: QSPI_DMAError:hqspi <- $r4
	.loc	7 0 11                          @ ../Drivers/STM32H7xx_HAL_Driver/Src/stm32h7xx_hal_qspi.c:0:11
	movs	r0, #1
.Ltmp456:
	.loc	7 2272 22 is_stmt 1             @ ../Drivers/STM32H7xx_HAL_Driver/Src/stm32h7xx_hal_qspi.c:2272:22
	strb.w	r0, [r4, #65]
.Ltmp457:
.LBB24_4:
	@DEBUG_VALUE: QSPI_DMAError:hmdma <- [DW_OP_LLVM_entry_value 1] $r0
	@DEBUG_VALUE: QSPI_DMAError:hqspi <- $r4
	.loc	7 2428 1                        @ ../Drivers/STM32H7xx_HAL_Driver/Src/stm32h7xx_hal_qspi.c:2428:1
	pop	{r4, pc}
.Ltmp458:
	.p2align	2
.LBB24_5:
	@DEBUG_VALUE: HAL_QSPI_Abort_IT:hqspi <- $r4
	@DEBUG_VALUE: HAL_QSPI_Abort_IT:status <- 0
	@DEBUG_VALUE: QSPI_DMAError:hmdma <- [DW_OP_LLVM_entry_value 1] $r0
	@DEBUG_VALUE: QSPI_DMAError:hqspi <- $r4
	.loc	7 2239 7                        @ ../Drivers/STM32H7xx_HAL_Driver/Src/stm32h7xx_hal_qspi.c:2239:7
	ldr	r1, [r0]
	bic	r1, r1, #4
	str	r1, [r0]
	.loc	7 2242 14                       @ ../Drivers/STM32H7xx_HAL_Driver/Src/stm32h7xx_hal_qspi.c:2242:14
	ldr	r0, [r4, #60]
	.loc	7 2242 39 is_stmt 0             @ ../Drivers/STM32H7xx_HAL_Driver/Src/stm32h7xx_hal_qspi.c:2242:39
	movw	r1, :lower16:(QSPI_DMAAbortCplt-(.LPC24_0+4))
	movt	r1, :upper16:(QSPI_DMAAbortCplt-(.LPC24_0+4))
.LPC24_0:
	add	r1, pc
	str	r1, [r0, #88]
.Ltmp459:
	.loc	7 2243 11 is_stmt 1             @ ../Drivers/STM32H7xx_HAL_Driver/Src/stm32h7xx_hal_qspi.c:2243:11
	bl	HAL_MDMA_Abort_IT
.Ltmp460:
	.loc	7 2243 11 is_stmt 0             @ ../Drivers/STM32H7xx_HAL_Driver/Src/stm32h7xx_hal_qspi.c:2243:11
	cmp	r0, #0
.Ltmp461:
	.loc	7 2428 1 is_stmt 1              @ ../Drivers/STM32H7xx_HAL_Driver/Src/stm32h7xx_hal_qspi.c:2428:1
	it	eq
	popeq	{r4, pc}
.Ltmp462:
.LBB24_6:
	@DEBUG_VALUE: HAL_QSPI_Abort_IT:status <- 0
	@DEBUG_VALUE: QSPI_DMAError:hmdma <- [DW_OP_LLVM_entry_value 1] $r0
	.loc	7 0 1 is_stmt 0                 @ ../Drivers/STM32H7xx_HAL_Driver/Src/stm32h7xx_hal_qspi.c:0:1
	movs	r0, #1
.Ltmp463:
	.loc	7 2246 22 is_stmt 1             @ ../Drivers/STM32H7xx_HAL_Driver/Src/stm32h7xx_hal_qspi.c:2246:22
	strb.w	r0, [r4, #65]
	.loc	7 2252 9                        @ ../Drivers/STM32H7xx_HAL_Driver/Src/stm32h7xx_hal_qspi.c:2252:9
	mov	r0, r4
	pop.w	{r4, lr}
.Ltmp464:
	b	HAL_QSPI_AbortCpltCallback
.Ltmp465:
	.p2align	2
.LBB24_7:
	@DEBUG_VALUE: HAL_QSPI_Abort_IT:hqspi <- $r4
	@DEBUG_VALUE: HAL_QSPI_Abort_IT:status <- 0
	@DEBUG_VALUE: QSPI_DMAError:hmdma <- [DW_OP_LLVM_entry_value 1] $r0
	@DEBUG_VALUE: QSPI_DMAError:hqspi <- $r4
	.loc	7 0 9 is_stmt 0                 @ ../Drivers/STM32H7xx_HAL_Driver/Src/stm32h7xx_hal_qspi.c:0:9
	movs	r1, #2
.Ltmp466:
	.loc	7 2261 9 is_stmt 1              @ ../Drivers/STM32H7xx_HAL_Driver/Src/stm32h7xx_hal_qspi.c:2261:9
	str	r1, [r0, #12]
	.loc	7 2264 9                        @ ../Drivers/STM32H7xx_HAL_Driver/Src/stm32h7xx_hal_qspi.c:2264:9
	ldr	r1, [r0]
	orr	r1, r1, #131072
	str	r1, [r0]
	.loc	7 2267 9                        @ ../Drivers/STM32H7xx_HAL_Driver/Src/stm32h7xx_hal_qspi.c:2267:9
	ldr	r1, [r0]
	orr	r1, r1, #2
	str	r1, [r0]
.Ltmp467:
	.loc	7 2428 1                        @ ../Drivers/STM32H7xx_HAL_Driver/Src/stm32h7xx_hal_qspi.c:2428:1
	pop	{r4, pc}
.Ltmp468:
.Lfunc_end24:
	.size	QSPI_DMAError, .Lfunc_end24-QSPI_DMAError
	.cfi_endproc
	.cantunwind
	.fnend
                                        @ -- End function
	.hidden	HAL_QSPI_Receive_DMA            @ -- Begin function HAL_QSPI_Receive_DMA
	.globl	HAL_QSPI_Receive_DMA
	.p2align	3
	.type	HAL_QSPI_Receive_DMA,%function
	.code	16                              @ @HAL_QSPI_Receive_DMA
	.thumb_func
HAL_QSPI_Receive_DMA:
.Lfunc_begin25:
	.loc	7 1379 0                        @ ../Drivers/STM32H7xx_HAL_Driver/Src/stm32h7xx_hal_qspi.c:1379:0
	.fnstart
	.cfi_startproc
@ %bb.0:
	@DEBUG_VALUE: HAL_QSPI_Receive_DMA:hqspi <- $r0
	@DEBUG_VALUE: HAL_QSPI_Receive_DMA:pData <- $r1
	.save	{r4, r5, r6, lr}
	push	{r4, r5, r6, lr}
	.cfi_def_cfa_offset 16
	.cfi_offset lr, -4
	.cfi_offset r6, -8
	.cfi_offset r5, -12
	.cfi_offset r4, -16
	.pad	#8
	sub	sp, #8
	.cfi_def_cfa_offset 24
	mov	r4, r0
.Ltmp469:
	@DEBUG_VALUE: HAL_QSPI_Receive_DMA:status <- 0
	@DEBUG_VALUE: HAL_QSPI_Receive_DMA:hqspi <- $r4
	.loc	7 1381 23 prologue_end          @ ../Drivers/STM32H7xx_HAL_Driver/Src/stm32h7xx_hal_qspi.c:1381:23
	ldr	r3, [r0]
	ldr.w	r12, [r3, #24]
.Ltmp470:
	@DEBUG_VALUE: HAL_QSPI_Receive_DMA:addr_reg <- $r12
	.loc	7 1382 25                       @ ../Drivers/STM32H7xx_HAL_Driver/Src/stm32h7xx_hal_qspi.c:1382:25
	ldr	r0, [r3, #16]
.Ltmp471:
	@DEBUG_VALUE: HAL_QSPI_Receive_DMA:data_size <- undef
	.loc	7 1385 3                        @ ../Drivers/STM32H7xx_HAL_Driver/Src/stm32h7xx_hal_qspi.c:1385:3
	ldrb.w	r2, [r4, #64]
.Ltmp472:
	.loc	7 1385 3 is_stmt 0              @ ../Drivers/STM32H7xx_HAL_Driver/Src/stm32h7xx_hal_qspi.c:1385:3
	cmp	r2, #1
	@DEBUG_VALUE: HAL_QSPI_Receive_DMA:pData <- $r1
	bne	.LBB25_2
.Ltmp473:
@ %bb.1:
	@DEBUG_VALUE: HAL_QSPI_Receive_DMA:addr_reg <- $r12
	@DEBUG_VALUE: HAL_QSPI_Receive_DMA:hqspi <- $r4
	@DEBUG_VALUE: HAL_QSPI_Receive_DMA:status <- 0
	@DEBUG_VALUE: HAL_QSPI_Receive_DMA:pData <- $r1
	.loc	7 0 3                           @ ../Drivers/STM32H7xx_HAL_Driver/Src/stm32h7xx_hal_qspi.c:0:3
	movs	r5, #2
	.loc	7 1484 1 is_stmt 1              @ ../Drivers/STM32H7xx_HAL_Driver/Src/stm32h7xx_hal_qspi.c:1484:1
	mov	r0, r5
	add	sp, #8
	pop	{r4, r5, r6, pc}
.Ltmp474:
	.p2align	2
.LBB25_2:
	@DEBUG_VALUE: HAL_QSPI_Receive_DMA:addr_reg <- $r12
	@DEBUG_VALUE: HAL_QSPI_Receive_DMA:hqspi <- $r4
	@DEBUG_VALUE: HAL_QSPI_Receive_DMA:status <- 0
	@DEBUG_VALUE: HAL_QSPI_Receive_DMA:pData <- $r1
	.loc	7 0 1 is_stmt 0                 @ ../Drivers/STM32H7xx_HAL_Driver/Src/stm32h7xx_hal_qspi.c:0:1
	mov	r2, r1
.Ltmp475:
	@DEBUG_VALUE: HAL_QSPI_Receive_DMA:pData <- $r2
	@DEBUG_VALUE: HAL_QSPI_Receive_DMA:data_size <- undef
	movs	r1, #1
.Ltmp476:
	.loc	7 1385 3 is_stmt 1              @ ../Drivers/STM32H7xx_HAL_Driver/Src/stm32h7xx_hal_qspi.c:1385:3
	strb.w	r1, [r4, #64]
.Ltmp477:
	.loc	7 1387 13                       @ ../Drivers/STM32H7xx_HAL_Driver/Src/stm32h7xx_hal_qspi.c:1387:13
	ldrb.w	r1, [r4, #65]
.Ltmp478:
	.loc	7 1387 6 is_stmt 0              @ ../Drivers/STM32H7xx_HAL_Driver/Src/stm32h7xx_hal_qspi.c:1387:6
	cmp	r1, #1
	bne	.LBB25_8
.Ltmp479:
@ %bb.3:
	@DEBUG_VALUE: HAL_QSPI_Receive_DMA:pData <- $r2
	@DEBUG_VALUE: HAL_QSPI_Receive_DMA:addr_reg <- $r12
	@DEBUG_VALUE: HAL_QSPI_Receive_DMA:hqspi <- $r4
	@DEBUG_VALUE: HAL_QSPI_Receive_DMA:status <- 0
	@DEBUG_VALUE: HAL_QSPI_Receive_DMA:data_size <- undef
	.loc	7 0 6                           @ ../Drivers/STM32H7xx_HAL_Driver/Src/stm32h7xx_hal_qspi.c:0:6
	mov.w	r5, #0
.Ltmp480:
	.loc	7 1390 22 is_stmt 1             @ ../Drivers/STM32H7xx_HAL_Driver/Src/stm32h7xx_hal_qspi.c:1390:22
	str	r5, [r4, #68]
	.loc	7 1392 8                        @ ../Drivers/STM32H7xx_HAL_Driver/Src/stm32h7xx_hal_qspi.c:1392:8
	cbz	r2, .LBB25_9
.Ltmp481:
@ %bb.4:
	@DEBUG_VALUE: HAL_QSPI_Receive_DMA:pData <- $r2
	@DEBUG_VALUE: HAL_QSPI_Receive_DMA:addr_reg <- $r12
	@DEBUG_VALUE: HAL_QSPI_Receive_DMA:hqspi <- $r4
	@DEBUG_VALUE: HAL_QSPI_Receive_DMA:status <- 0
	.loc	7 0 8 is_stmt 0                 @ ../Drivers/STM32H7xx_HAL_Driver/Src/stm32h7xx_hal_qspi.c:0:8
	adds	r0, #1
.Ltmp482:
	@DEBUG_VALUE: HAL_QSPI_Receive_DMA:data_size <- $r0
	.loc	7 1395 26 is_stmt 1             @ ../Drivers/STM32H7xx_HAL_Driver/Src/stm32h7xx_hal_qspi.c:1395:26
	str	r0, [r4, #56]
	movs	r0, #34
.Ltmp483:
	.loc	7 1397 22                       @ ../Drivers/STM32H7xx_HAL_Driver/Src/stm32h7xx_hal_qspi.c:1397:22
	strb.w	r0, [r4, #65]
	movs	r0, #3
	.loc	7 1400 9                        @ ../Drivers/STM32H7xx_HAL_Driver/Src/stm32h7xx_hal_qspi.c:1400:9
	str	r0, [r3, #12]
	.loc	7 1403 36                       @ ../Drivers/STM32H7xx_HAL_Driver/Src/stm32h7xx_hal_qspi.c:1403:36
	ldr	r0, [r4, #56]
	.loc	7 1403 27 is_stmt 0             @ ../Drivers/STM32H7xx_HAL_Driver/Src/stm32h7xx_hal_qspi.c:1403:27
	str	r0, [r4, #52]
	.loc	7 1407 16 is_stmt 1             @ ../Drivers/STM32H7xx_HAL_Driver/Src/stm32h7xx_hal_qspi.c:1407:16
	ldr	r0, [r4, #60]
	.loc	7 1404 27                       @ ../Drivers/STM32H7xx_HAL_Driver/Src/stm32h7xx_hal_qspi.c:1404:27
	str	r2, [r4, #48]
	.loc	7 1407 40                       @ ../Drivers/STM32H7xx_HAL_Driver/Src/stm32h7xx_hal_qspi.c:1407:40
	movw	r1, :lower16:(QSPI_DMARxCplt-(.LPC25_0+4))
	movw	lr, #771
	movt	r1, :upper16:(QSPI_DMARxCplt-(.LPC25_0+4))
.LPC25_0:
	add	r1, pc
	str	r1, [r0, #68]
	.loc	7 1410 41                       @ ../Drivers/STM32H7xx_HAL_Driver/Src/stm32h7xx_hal_qspi.c:1410:41
	movw	r1, :lower16:(QSPI_DMAError-(.LPC25_1+4))
	movt	r1, :upper16:(QSPI_DMAError-(.LPC25_1+4))
	.loc	7 1413 41                       @ ../Drivers/STM32H7xx_HAL_Driver/Src/stm32h7xx_hal_qspi.c:1413:41
	str	r5, [r0, #88]
	.loc	7 1410 41                       @ ../Drivers/STM32H7xx_HAL_Driver/Src/stm32h7xx_hal_qspi.c:1410:41
.LPC25_1:
	add	r1, pc
	str	r1, [r0, #84]
	.loc	7 1416 7                        @ ../Drivers/STM32H7xx_HAL_Driver/Src/stm32h7xx_hal_qspi.c:1416:7
	ldr	r1, [r0]
.Ltmp484:
	.loc	7 1419 30                       @ ../Drivers/STM32H7xx_HAL_Driver/Src/stm32h7xx_hal_qspi.c:1419:30
	ldr	r6, [r0, #32]
.Ltmp485:
	.loc	7 1416 7                        @ ../Drivers/STM32H7xx_HAL_Driver/Src/stm32h7xx_hal_qspi.c:1416:7
	ldr	r5, [r1, #16]
	.loc	7 1419 11                       @ ../Drivers/STM32H7xx_HAL_Driver/Src/stm32h7xx_hal_qspi.c:1419:11
	cmp	r6, #128
	.loc	7 1416 7                        @ ../Drivers/STM32H7xx_HAL_Driver/Src/stm32h7xx_hal_qspi.c:1416:7
	bic.w	r5, r5, lr
	str	r5, [r1, #16]
	.loc	7 1419 11                       @ ../Drivers/STM32H7xx_HAL_Driver/Src/stm32h7xx_hal_qspi.c:1419:11
	beq	.LBB25_10
.Ltmp486:
@ %bb.5:
	@DEBUG_VALUE: HAL_QSPI_Receive_DMA:pData <- $r2
	@DEBUG_VALUE: HAL_QSPI_Receive_DMA:addr_reg <- $r12
	@DEBUG_VALUE: HAL_QSPI_Receive_DMA:hqspi <- $r4
	@DEBUG_VALUE: HAL_QSPI_Receive_DMA:status <- 0
	cmp	r6, #64
	beq	.LBB25_11
.Ltmp487:
@ %bb.6:
	@DEBUG_VALUE: HAL_QSPI_Receive_DMA:pData <- $r2
	@DEBUG_VALUE: HAL_QSPI_Receive_DMA:addr_reg <- $r12
	@DEBUG_VALUE: HAL_QSPI_Receive_DMA:hqspi <- $r4
	@DEBUG_VALUE: HAL_QSPI_Receive_DMA:status <- 0
	cbnz	r6, .LBB25_13
.Ltmp488:
@ %bb.7:
	@DEBUG_VALUE: HAL_QSPI_Receive_DMA:pData <- $r2
	@DEBUG_VALUE: HAL_QSPI_Receive_DMA:addr_reg <- $r12
	@DEBUG_VALUE: HAL_QSPI_Receive_DMA:hqspi <- $r4
	@DEBUG_VALUE: HAL_QSPI_Receive_DMA:status <- 0
	.loc	7 1421 9                        @ ../Drivers/STM32H7xx_HAL_Driver/Src/stm32h7xx_hal_qspi.c:1421:9
	ldr	r6, [r1, #16]
	movw	r5, #3084
	bics	r6, r5
	adds	r6, #8
	b	.LBB25_12
.Ltmp489:
	.p2align	2
.LBB25_8:
	@DEBUG_VALUE: HAL_QSPI_Receive_DMA:pData <- $r2
	@DEBUG_VALUE: HAL_QSPI_Receive_DMA:addr_reg <- $r12
	@DEBUG_VALUE: HAL_QSPI_Receive_DMA:hqspi <- $r4
	@DEBUG_VALUE: HAL_QSPI_Receive_DMA:status <- 0
	@DEBUG_VALUE: HAL_QSPI_Receive_DMA:status <- 2
	.loc	7 0 9 is_stmt 0                 @ ../Drivers/STM32H7xx_HAL_Driver/Src/stm32h7xx_hal_qspi.c:0:9
	movs	r5, #2
	b	.LBB25_16
.Ltmp490:
	.p2align	2
.LBB25_9:
	@DEBUG_VALUE: HAL_QSPI_Receive_DMA:pData <- $r2
	@DEBUG_VALUE: HAL_QSPI_Receive_DMA:addr_reg <- $r12
	@DEBUG_VALUE: HAL_QSPI_Receive_DMA:hqspi <- $r4
	@DEBUG_VALUE: HAL_QSPI_Receive_DMA:status <- 0
	.loc	7 1468 24 is_stmt 1             @ ../Drivers/STM32H7xx_HAL_Driver/Src/stm32h7xx_hal_qspi.c:1468:24
	ldr	r0, [r4, #68]
	orr	r0, r0, #8
	str	r0, [r4, #68]
.Ltmp491:
	@DEBUG_VALUE: HAL_QSPI_Receive_DMA:status <- 1
	.loc	7 1472 7                        @ ../Drivers/STM32H7xx_HAL_Driver/Src/stm32h7xx_hal_qspi.c:1472:7
	strb.w	r5, [r4, #64]
	movs	r5, #1
.Ltmp492:
	.loc	7 1484 1                        @ ../Drivers/STM32H7xx_HAL_Driver/Src/stm32h7xx_hal_qspi.c:1484:1
	mov	r0, r5
	add	sp, #8
	pop	{r4, r5, r6, pc}
.Ltmp493:
	.p2align	2
.LBB25_10:
	@DEBUG_VALUE: HAL_QSPI_Receive_DMA:pData <- $r2
	@DEBUG_VALUE: HAL_QSPI_Receive_DMA:addr_reg <- $r12
	@DEBUG_VALUE: HAL_QSPI_Receive_DMA:hqspi <- $r4
	@DEBUG_VALUE: HAL_QSPI_Receive_DMA:status <- 0
	.loc	7 1429 9                        @ ../Drivers/STM32H7xx_HAL_Driver/Src/stm32h7xx_hal_qspi.c:1429:9
	ldr	r6, [r1, #16]
	movw	r5, #3084
	bics	r6, r5
	addw	r6, r6, #2056
	b	.LBB25_12
.Ltmp494:
	.p2align	2
.LBB25_11:
	@DEBUG_VALUE: HAL_QSPI_Receive_DMA:pData <- $r2
	@DEBUG_VALUE: HAL_QSPI_Receive_DMA:addr_reg <- $r12
	@DEBUG_VALUE: HAL_QSPI_Receive_DMA:hqspi <- $r4
	@DEBUG_VALUE: HAL_QSPI_Receive_DMA:status <- 0
	.loc	7 1425 9                        @ ../Drivers/STM32H7xx_HAL_Driver/Src/stm32h7xx_hal_qspi.c:1425:9
	ldr	r6, [r1, #16]
	movw	r5, #3084
	bics	r6, r5
	add.w	r6, r6, #1032
.Ltmp495:
.LBB25_12:
	@DEBUG_VALUE: HAL_QSPI_Receive_DMA:pData <- $r2
	@DEBUG_VALUE: HAL_QSPI_Receive_DMA:addr_reg <- $r12
	@DEBUG_VALUE: HAL_QSPI_Receive_DMA:hqspi <- $r4
	@DEBUG_VALUE: HAL_QSPI_Receive_DMA:status <- 0
	.loc	7 0 0 is_stmt 0                 @ ../Drivers/STM32H7xx_HAL_Driver/Src/stm32h7xx_hal_qspi.c:0:0
	str	r6, [r1, #16]
	movs	r5, #0
	b	.LBB25_14
.Ltmp496:
	.p2align	2
.LBB25_13:
	@DEBUG_VALUE: HAL_QSPI_Receive_DMA:pData <- $r2
	@DEBUG_VALUE: HAL_QSPI_Receive_DMA:addr_reg <- $r12
	@DEBUG_VALUE: HAL_QSPI_Receive_DMA:hqspi <- $r4
	@DEBUG_VALUE: HAL_QSPI_Receive_DMA:status <- 0
	.loc	7 1434 26 is_stmt 1             @ ../Drivers/STM32H7xx_HAL_Driver/Src/stm32h7xx_hal_qspi.c:1434:26
	ldr	r1, [r4, #68]
	movs	r5, #1
.Ltmp497:
	@DEBUG_VALUE: HAL_QSPI_Receive_DMA:status <- 1
	orr	r1, r1, #4
	str	r1, [r4, #68]
.Ltmp498:
.LBB25_14:
	@DEBUG_VALUE: HAL_QSPI_Receive_DMA:pData <- $r2
	@DEBUG_VALUE: HAL_QSPI_Receive_DMA:addr_reg <- $r12
	@DEBUG_VALUE: HAL_QSPI_Receive_DMA:hqspi <- $r4
	@DEBUG_VALUE: HAL_QSPI_Receive_DMA:status <- $r5
	.loc	7 1438 11                       @ ../Drivers/STM32H7xx_HAL_Driver/Src/stm32h7xx_hal_qspi.c:1438:11
	ldr	r1, [r3, #20]
	movs	r6, #1
	bfi	r1, r6, #26, #2
	str	r1, [r3, #20]
	.loc	7 1441 11                       @ ../Drivers/STM32H7xx_HAL_Driver/Src/stm32h7xx_hal_qspi.c:1441:11
	str.w	r12, [r3, #24]
.Ltmp499:
	.loc	7 1444 73                       @ ../Drivers/STM32H7xx_HAL_Driver/Src/stm32h7xx_hal_qspi.c:1444:73
	add.w	r1, r3, #32
	.loc	7 1444 101 is_stmt 0            @ ../Drivers/STM32H7xx_HAL_Driver/Src/stm32h7xx_hal_qspi.c:1444:101
	ldr	r3, [r4, #52]
	.loc	7 1444 13                       @ ../Drivers/STM32H7xx_HAL_Driver/Src/stm32h7xx_hal_qspi.c:1444:13
	str	r6, [sp]
	bl	HAL_MDMA_Start_IT
.Ltmp500:
	.loc	7 1444 13                       @ ../Drivers/STM32H7xx_HAL_Driver/Src/stm32h7xx_hal_qspi.c:1444:13
	cbz	r0, .LBB25_17
.Ltmp501:
@ %bb.15:
	@DEBUG_VALUE: HAL_QSPI_Receive_DMA:status <- $r5
	@DEBUG_VALUE: HAL_QSPI_Receive_DMA:hqspi <- $r4
	@DEBUG_VALUE: HAL_QSPI_Receive_DMA:status <- 1
	.loc	7 1459 28 is_stmt 1             @ ../Drivers/STM32H7xx_HAL_Driver/Src/stm32h7xx_hal_qspi.c:1459:28
	ldr	r0, [r4, #68]
	movs	r5, #1
	orr	r0, r0, #4
	str	r0, [r4, #68]
	.loc	7 1460 24                       @ ../Drivers/STM32H7xx_HAL_Driver/Src/stm32h7xx_hal_qspi.c:1460:24
	strb.w	r6, [r4, #65]
.Ltmp502:
.LBB25_16:
	@DEBUG_VALUE: HAL_QSPI_Receive_DMA:hqspi <- $r4
	.loc	7 0 24 is_stmt 0                @ ../Drivers/STM32H7xx_HAL_Driver/Src/stm32h7xx_hal_qspi.c:0:24
	movs	r0, #0
	strb.w	r0, [r4, #64]
.Ltmp503:
	.loc	7 1484 1 is_stmt 1              @ ../Drivers/STM32H7xx_HAL_Driver/Src/stm32h7xx_hal_qspi.c:1484:1
	mov	r0, r5
	add	sp, #8
	pop	{r4, r5, r6, pc}
.Ltmp504:
	.p2align	2
.LBB25_17:
	@DEBUG_VALUE: HAL_QSPI_Receive_DMA:status <- $r5
	@DEBUG_VALUE: HAL_QSPI_Receive_DMA:hqspi <- $r4
	.loc	7 0 1 is_stmt 0                 @ ../Drivers/STM32H7xx_HAL_Driver/Src/stm32h7xx_hal_qspi.c:0:1
	movs	r0, #0
.Ltmp505:
	.loc	7 1447 11 is_stmt 1             @ ../Drivers/STM32H7xx_HAL_Driver/Src/stm32h7xx_hal_qspi.c:1447:11
	strb.w	r0, [r4, #64]
.Ltmp506:
	.loc	7 1450 11                       @ ../Drivers/STM32H7xx_HAL_Driver/Src/stm32h7xx_hal_qspi.c:1450:11
	ldr	r0, [r4]
	ldr	r1, [r0]
	orr	r1, r1, #65536
	str	r1, [r0]
	.loc	7 1454 11                       @ ../Drivers/STM32H7xx_HAL_Driver/Src/stm32h7xx_hal_qspi.c:1454:11
	ldr	r1, [r0]
	orr	r1, r1, #4
	str	r1, [r0]
.Ltmp507:
	.loc	7 1484 1                        @ ../Drivers/STM32H7xx_HAL_Driver/Src/stm32h7xx_hal_qspi.c:1484:1
	mov	r0, r5
	add	sp, #8
	pop	{r4, r5, r6, pc}
.Ltmp508:
.Lfunc_end25:
	.size	HAL_QSPI_Receive_DMA, .Lfunc_end25-HAL_QSPI_Receive_DMA
	.cfi_endproc
	.cantunwind
	.fnend
                                        @ -- End function
	.p2align	3                               @ -- Begin function QSPI_DMARxCplt
	.type	QSPI_DMARxCplt,%function
	.code	16                              @ @QSPI_DMARxCplt
	.thumb_func
QSPI_DMARxCplt:
.Lfunc_begin26:
	.loc	7 2386 0                        @ ../Drivers/STM32H7xx_HAL_Driver/Src/stm32h7xx_hal_qspi.c:2386:0
	.fnstart
	.cfi_startproc
@ %bb.0:
	@DEBUG_VALUE: QSPI_DMARxCplt:hmdma <- $r0
	.loc	7 2387 60 prologue_end          @ ../Drivers/STM32H7xx_HAL_Driver/Src/stm32h7xx_hal_qspi.c:2387:60
	ldr	r0, [r0, #64]
.Ltmp509:
	@DEBUG_VALUE: QSPI_DMARxCplt:hmdma <- [DW_OP_LLVM_entry_value 1] $r0
	@DEBUG_VALUE: QSPI_DMARxCplt:hqspi <- $r0
	.loc	7 0 60 is_stmt 0                @ ../Drivers/STM32H7xx_HAL_Driver/Src/stm32h7xx_hal_qspi.c:0:60
	movs	r1, #0
	.loc	7 2388 22 is_stmt 1             @ ../Drivers/STM32H7xx_HAL_Driver/Src/stm32h7xx_hal_qspi.c:2388:22
	str	r1, [r0, #56]
	.loc	7 2391 3                        @ ../Drivers/STM32H7xx_HAL_Driver/Src/stm32h7xx_hal_qspi.c:2391:3
	ldr	r0, [r0]
.Ltmp510:
	ldr	r1, [r0]
	orr	r1, r1, #131072
	str	r1, [r0]
	.loc	7 2392 1                        @ ../Drivers/STM32H7xx_HAL_Driver/Src/stm32h7xx_hal_qspi.c:2392:1
	bx	lr
.Ltmp511:
.Lfunc_end26:
	.size	QSPI_DMARxCplt, .Lfunc_end26-QSPI_DMARxCplt
	.cfi_endproc
	.cantunwind
	.fnend
                                        @ -- End function
	.hidden	HAL_QSPI_AutoPolling            @ -- Begin function HAL_QSPI_AutoPolling
	.globl	HAL_QSPI_AutoPolling
	.p2align	3
	.type	HAL_QSPI_AutoPolling,%function
	.code	16                              @ @HAL_QSPI_AutoPolling
	.thumb_func
HAL_QSPI_AutoPolling:
.Lfunc_begin27:
	.loc	7 1496 0                        @ ../Drivers/STM32H7xx_HAL_Driver/Src/stm32h7xx_hal_qspi.c:1496:0
	.fnstart
	.cfi_startproc
@ %bb.0:
	@DEBUG_VALUE: HAL_QSPI_AutoPolling:hqspi <- $r0
	@DEBUG_VALUE: HAL_QSPI_AutoPolling:cmd <- $r1
	@DEBUG_VALUE: HAL_QSPI_AutoPolling:cfg <- $r2
	@DEBUG_VALUE: HAL_QSPI_AutoPolling:Timeout <- $r3
	.save	{r4, r5, r6, lr}
	push	{r4, r5, r6, lr}
	.cfi_def_cfa_offset 16
	.cfi_offset lr, -4
	.cfi_offset r6, -8
	.cfi_offset r5, -12
	.cfi_offset r4, -16
	mov	r6, r2
.Ltmp512:
	@DEBUG_VALUE: HAL_QSPI_AutoPolling:cfg <- $r6
	@DEBUG_VALUE: HAL_QSPI_AutoPolling:cfg <- $r6
	mov	r5, r1
.Ltmp513:
	@DEBUG_VALUE: HAL_QSPI_AutoPolling:cmd <- $r5
	@DEBUG_VALUE: HAL_QSPI_AutoPolling:cmd <- $r5
	mov	r4, r0
.Ltmp514:
	@DEBUG_VALUE: HAL_QSPI_AutoPolling:hqspi <- $r4
	@DEBUG_VALUE: HAL_QSPI_AutoPolling:hqspi <- $r4
	.loc	7 1498 24 prologue_end          @ ../Drivers/STM32H7xx_HAL_Driver/Src/stm32h7xx_hal_qspi.c:1498:24
	bl	HAL_GetTick
.Ltmp515:
	@DEBUG_VALUE: HAL_QSPI_AutoPolling:Timeout <- [DW_OP_LLVM_entry_value 1] $r3
	@DEBUG_VALUE: HAL_QSPI_AutoPolling:tickstart <- undef
	.loc	7 1531 3                        @ ../Drivers/STM32H7xx_HAL_Driver/Src/stm32h7xx_hal_qspi.c:1531:3
	ldrb.w	r0, [r4, #64]
.Ltmp516:
	.loc	7 1531 3 is_stmt 0              @ ../Drivers/STM32H7xx_HAL_Driver/Src/stm32h7xx_hal_qspi.c:1531:3
	cmp	r0, #1
	bne	.LBB27_2
.Ltmp517:
@ %bb.1:
	@DEBUG_VALUE: HAL_QSPI_AutoPolling:Timeout <- [DW_OP_LLVM_entry_value 1] $r3
	@DEBUG_VALUE: HAL_QSPI_AutoPolling:hqspi <- $r4
	@DEBUG_VALUE: HAL_QSPI_AutoPolling:cmd <- $r5
	@DEBUG_VALUE: HAL_QSPI_AutoPolling:cfg <- $r6
	.loc	7 0 3                           @ ../Drivers/STM32H7xx_HAL_Driver/Src/stm32h7xx_hal_qspi.c:0:3
	movs	r0, #2
	.loc	7 1585 1 is_stmt 1              @ ../Drivers/STM32H7xx_HAL_Driver/Src/stm32h7xx_hal_qspi.c:1585:1
	pop	{r4, r5, r6, pc}
.Ltmp518:
	.p2align	2
.LBB27_2:
	@DEBUG_VALUE: HAL_QSPI_AutoPolling:Timeout <- [DW_OP_LLVM_entry_value 1] $r3
	@DEBUG_VALUE: HAL_QSPI_AutoPolling:hqspi <- $r4
	@DEBUG_VALUE: HAL_QSPI_AutoPolling:cmd <- $r5
	@DEBUG_VALUE: HAL_QSPI_AutoPolling:cfg <- $r6
	.loc	7 0 1 is_stmt 0                 @ ../Drivers/STM32H7xx_HAL_Driver/Src/stm32h7xx_hal_qspi.c:0:1
	movs	r0, #1
.Ltmp519:
	.loc	7 1531 3 is_stmt 1              @ ../Drivers/STM32H7xx_HAL_Driver/Src/stm32h7xx_hal_qspi.c:1531:3
	strb.w	r0, [r4, #64]
.Ltmp520:
	.loc	7 1533 13                       @ ../Drivers/STM32H7xx_HAL_Driver/Src/stm32h7xx_hal_qspi.c:1533:13
	ldrb.w	r0, [r4, #65]
.Ltmp521:
	.loc	7 1533 6 is_stmt 0              @ ../Drivers/STM32H7xx_HAL_Driver/Src/stm32h7xx_hal_qspi.c:1533:6
	cmp	r0, #1
	bne	.LBB27_12
.Ltmp522:
@ %bb.3:
	@DEBUG_VALUE: HAL_QSPI_AutoPolling:Timeout <- [DW_OP_LLVM_entry_value 1] $r3
	@DEBUG_VALUE: HAL_QSPI_AutoPolling:hqspi <- $r4
	@DEBUG_VALUE: HAL_QSPI_AutoPolling:cmd <- $r5
	@DEBUG_VALUE: HAL_QSPI_AutoPolling:cfg <- $r6
	.loc	7 0 6                           @ ../Drivers/STM32H7xx_HAL_Driver/Src/stm32h7xx_hal_qspi.c:0:6
	movs	r0, #0
.Ltmp523:
	.loc	7 1535 22 is_stmt 1             @ ../Drivers/STM32H7xx_HAL_Driver/Src/stm32h7xx_hal_qspi.c:1535:22
	str	r0, [r4, #68]
	movs	r0, #66
	.loc	7 1538 18                       @ ../Drivers/STM32H7xx_HAL_Driver/Src/stm32h7xx_hal_qspi.c:1538:18
	strb.w	r0, [r4, #65]
	@DEBUG_VALUE: QSPI_WaitFlagStateUntilTimeout:Timeout <- undef
	@DEBUG_VALUE: QSPI_WaitFlagStateUntilTimeout:Tickstart <- undef
	@DEBUG_VALUE: QSPI_WaitFlagStateUntilTimeout:State <- 0
	@DEBUG_VALUE: QSPI_WaitFlagStateUntilTimeout:Flag <- 32
	@DEBUG_VALUE: QSPI_WaitFlagStateUntilTimeout:hqspi <- $r4
	ldr	r0, [r4]
.Ltmp524:
.LBB27_4:                               @ =>This Inner Loop Header: Depth=1
	@DEBUG_VALUE: QSPI_WaitFlagStateUntilTimeout:hqspi <- $r4
	@DEBUG_VALUE: QSPI_WaitFlagStateUntilTimeout:Flag <- 32
	@DEBUG_VALUE: QSPI_WaitFlagStateUntilTimeout:State <- 0
	@DEBUG_VALUE: HAL_QSPI_AutoPolling:Timeout <- [DW_OP_LLVM_entry_value 1] $r3
	@DEBUG_VALUE: HAL_QSPI_AutoPolling:hqspi <- $r4
	@DEBUG_VALUE: HAL_QSPI_AutoPolling:cmd <- $r5
	@DEBUG_VALUE: HAL_QSPI_AutoPolling:cfg <- $r6
	.loc	7 2482 10                       @ ../Drivers/STM32H7xx_HAL_Driver/Src/stm32h7xx_hal_qspi.c:2482:10
	ldr	r1, [r0, #8]
	.loc	7 2482 3 is_stmt 0              @ ../Drivers/STM32H7xx_HAL_Driver/Src/stm32h7xx_hal_qspi.c:2482:3
	lsls	r1, r1, #26
	bpl	.LBB27_7
.Ltmp525:
@ %bb.5:                                @   in Loop: Header=BB27_4 Depth=1
	@DEBUG_VALUE: QSPI_WaitFlagStateUntilTimeout:hqspi <- $r4
	@DEBUG_VALUE: QSPI_WaitFlagStateUntilTimeout:Flag <- 32
	@DEBUG_VALUE: QSPI_WaitFlagStateUntilTimeout:State <- 0
	@DEBUG_VALUE: HAL_QSPI_AutoPolling:Timeout <- [DW_OP_LLVM_entry_value 1] $r3
	@DEBUG_VALUE: HAL_QSPI_AutoPolling:hqspi <- $r4
	@DEBUG_VALUE: HAL_QSPI_AutoPolling:cmd <- $r5
	@DEBUG_VALUE: HAL_QSPI_AutoPolling:cfg <- $r6
	.loc	7 2482 10                       @ ../Drivers/STM32H7xx_HAL_Driver/Src/stm32h7xx_hal_qspi.c:2482:10
	ldr	r1, [r0, #8]
	.loc	7 2482 3                        @ ../Drivers/STM32H7xx_HAL_Driver/Src/stm32h7xx_hal_qspi.c:2482:3
	lsls	r1, r1, #26
	.loc	7 2482 10                       @ ../Drivers/STM32H7xx_HAL_Driver/Src/stm32h7xx_hal_qspi.c:2482:10
	itt	mi
	ldrmi	r1, [r0, #8]
	.loc	7 2482 3                        @ ../Drivers/STM32H7xx_HAL_Driver/Src/stm32h7xx_hal_qspi.c:2482:3
	lslsmi.w	r1, r1, #26
	bpl	.LBB27_7
.Ltmp526:
@ %bb.6:                                @   in Loop: Header=BB27_4 Depth=1
	@DEBUG_VALUE: QSPI_WaitFlagStateUntilTimeout:hqspi <- $r4
	@DEBUG_VALUE: QSPI_WaitFlagStateUntilTimeout:Flag <- 32
	@DEBUG_VALUE: QSPI_WaitFlagStateUntilTimeout:State <- 0
	@DEBUG_VALUE: HAL_QSPI_AutoPolling:Timeout <- [DW_OP_LLVM_entry_value 1] $r3
	@DEBUG_VALUE: HAL_QSPI_AutoPolling:hqspi <- $r4
	@DEBUG_VALUE: HAL_QSPI_AutoPolling:cmd <- $r5
	@DEBUG_VALUE: HAL_QSPI_AutoPolling:cfg <- $r6
	.loc	7 2482 10                       @ ../Drivers/STM32H7xx_HAL_Driver/Src/stm32h7xx_hal_qspi.c:2482:10
	ldr	r1, [r0, #8]
	.loc	7 2482 3                        @ ../Drivers/STM32H7xx_HAL_Driver/Src/stm32h7xx_hal_qspi.c:2482:3
	lsls	r1, r1, #26
	bmi	.LBB27_4
.Ltmp527:
.LBB27_7:
	@DEBUG_VALUE: HAL_QSPI_AutoPolling:Timeout <- [DW_OP_LLVM_entry_value 1] $r3
	@DEBUG_VALUE: HAL_QSPI_AutoPolling:hqspi <- $r4
	@DEBUG_VALUE: HAL_QSPI_AutoPolling:cmd <- $r5
	@DEBUG_VALUE: HAL_QSPI_AutoPolling:cfg <- $r6
	@DEBUG_VALUE: HAL_QSPI_AutoPolling:status <- 0
	.loc	7 1546 7 is_stmt 1              @ ../Drivers/STM32H7xx_HAL_Driver/Src/stm32h7xx_hal_qspi.c:1546:7
	ldm.w	r6, {r1, r2, r3, r12}
	str	r1, [r0, #40]
	.loc	7 1549 7                        @ ../Drivers/STM32H7xx_HAL_Driver/Src/stm32h7xx_hal_qspi.c:1549:7
	str	r2, [r0, #36]
	.loc	7 1552 7                        @ ../Drivers/STM32H7xx_HAL_Driver/Src/stm32h7xx_hal_qspi.c:1552:7
	str	r3, [r0, #44]
	.loc	7 1556 7                        @ ../Drivers/STM32H7xx_HAL_Driver/Src/stm32h7xx_hal_qspi.c:1556:7
	ldr	r1, [r0]
	ldr	r2, [r6, #16]
	bic	r1, r1, #12582912
	orrs	r1, r2
	.loc	7 1561 7                        @ ../Drivers/STM32H7xx_HAL_Driver/Src/stm32h7xx_hal_qspi.c:1561:7
	mov.w	r2, #134217728
	.loc	7 1556 7                        @ ../Drivers/STM32H7xx_HAL_Driver/Src/stm32h7xx_hal_qspi.c:1556:7
	orr	r1, r1, #4194304
	str	r1, [r0]
	.loc	7 1561 7                        @ ../Drivers/STM32H7xx_HAL_Driver/Src/stm32h7xx_hal_qspi.c:1561:7
	mov	r0, r4
	mov	r1, r5
	.loc	7 1560 19                       @ ../Drivers/STM32H7xx_HAL_Driver/Src/stm32h7xx_hal_qspi.c:1560:19
	str.w	r12, [r5, #40]
	.loc	7 1561 7                        @ ../Drivers/STM32H7xx_HAL_Driver/Src/stm32h7xx_hal_qspi.c:1561:7
	bl	QSPI_Config
.Ltmp528:
	@DEBUG_VALUE: QSPI_WaitFlagStateUntilTimeout:Timeout <- undef
	@DEBUG_VALUE: QSPI_WaitFlagStateUntilTimeout:Tickstart <- undef
	@DEBUG_VALUE: QSPI_WaitFlagStateUntilTimeout:State <- 1
	@DEBUG_VALUE: QSPI_WaitFlagStateUntilTimeout:Flag <- 8
	@DEBUG_VALUE: QSPI_WaitFlagStateUntilTimeout:hqspi <- $r4
	.loc	7 0 7 is_stmt 0                 @ ../Drivers/STM32H7xx_HAL_Driver/Src/stm32h7xx_hal_qspi.c:0:7
	ldr	r0, [r4]
.Ltmp529:
.LBB27_8:                               @ =>This Inner Loop Header: Depth=1
	@DEBUG_VALUE: QSPI_WaitFlagStateUntilTimeout:hqspi <- $r4
	@DEBUG_VALUE: QSPI_WaitFlagStateUntilTimeout:Flag <- 8
	@DEBUG_VALUE: QSPI_WaitFlagStateUntilTimeout:State <- 1
	@DEBUG_VALUE: HAL_QSPI_AutoPolling:status <- 0
	@DEBUG_VALUE: HAL_QSPI_AutoPolling:Timeout <- [DW_OP_LLVM_entry_value 1] $r3
	@DEBUG_VALUE: HAL_QSPI_AutoPolling:hqspi <- $r4
	@DEBUG_VALUE: HAL_QSPI_AutoPolling:cmd <- $r5
	@DEBUG_VALUE: HAL_QSPI_AutoPolling:cfg <- $r6
	.loc	7 2482 10 is_stmt 1             @ ../Drivers/STM32H7xx_HAL_Driver/Src/stm32h7xx_hal_qspi.c:2482:10
	ldr	r1, [r0, #8]
	.loc	7 2482 3 is_stmt 0              @ ../Drivers/STM32H7xx_HAL_Driver/Src/stm32h7xx_hal_qspi.c:2482:3
	lsls	r1, r1, #28
	bmi	.LBB27_11
.Ltmp530:
@ %bb.9:                                @   in Loop: Header=BB27_8 Depth=1
	@DEBUG_VALUE: QSPI_WaitFlagStateUntilTimeout:hqspi <- $r4
	@DEBUG_VALUE: QSPI_WaitFlagStateUntilTimeout:Flag <- 8
	@DEBUG_VALUE: QSPI_WaitFlagStateUntilTimeout:State <- 1
	@DEBUG_VALUE: HAL_QSPI_AutoPolling:status <- 0
	@DEBUG_VALUE: HAL_QSPI_AutoPolling:Timeout <- [DW_OP_LLVM_entry_value 1] $r3
	@DEBUG_VALUE: HAL_QSPI_AutoPolling:hqspi <- $r4
	@DEBUG_VALUE: HAL_QSPI_AutoPolling:cmd <- $r5
	@DEBUG_VALUE: HAL_QSPI_AutoPolling:cfg <- $r6
	.loc	7 2482 10                       @ ../Drivers/STM32H7xx_HAL_Driver/Src/stm32h7xx_hal_qspi.c:2482:10
	ldr	r1, [r0, #8]
	.loc	7 2482 3                        @ ../Drivers/STM32H7xx_HAL_Driver/Src/stm32h7xx_hal_qspi.c:2482:3
	lsls	r1, r1, #28
	.loc	7 2482 10                       @ ../Drivers/STM32H7xx_HAL_Driver/Src/stm32h7xx_hal_qspi.c:2482:10
	itt	pl
	ldrpl	r1, [r0, #8]
	.loc	7 2482 3                        @ ../Drivers/STM32H7xx_HAL_Driver/Src/stm32h7xx_hal_qspi.c:2482:3
	lslspl.w	r1, r1, #28
	bmi	.LBB27_11
.Ltmp531:
@ %bb.10:                               @   in Loop: Header=BB27_8 Depth=1
	@DEBUG_VALUE: QSPI_WaitFlagStateUntilTimeout:hqspi <- $r4
	@DEBUG_VALUE: QSPI_WaitFlagStateUntilTimeout:Flag <- 8
	@DEBUG_VALUE: QSPI_WaitFlagStateUntilTimeout:State <- 1
	@DEBUG_VALUE: HAL_QSPI_AutoPolling:status <- 0
	@DEBUG_VALUE: HAL_QSPI_AutoPolling:Timeout <- [DW_OP_LLVM_entry_value 1] $r3
	@DEBUG_VALUE: HAL_QSPI_AutoPolling:hqspi <- $r4
	@DEBUG_VALUE: HAL_QSPI_AutoPolling:cmd <- $r5
	@DEBUG_VALUE: HAL_QSPI_AutoPolling:cfg <- $r6
	.loc	7 2482 10                       @ ../Drivers/STM32H7xx_HAL_Driver/Src/stm32h7xx_hal_qspi.c:2482:10
	ldr	r1, [r0, #8]
	.loc	7 2482 3                        @ ../Drivers/STM32H7xx_HAL_Driver/Src/stm32h7xx_hal_qspi.c:2482:3
	lsls	r1, r1, #28
	bpl	.LBB27_8
.Ltmp532:
.LBB27_11:
	@DEBUG_VALUE: HAL_QSPI_AutoPolling:status <- 0
	@DEBUG_VALUE: HAL_QSPI_AutoPolling:Timeout <- [DW_OP_LLVM_entry_value 1] $r3
	@DEBUG_VALUE: HAL_QSPI_AutoPolling:hqspi <- $r4
	@DEBUG_VALUE: HAL_QSPI_AutoPolling:cmd <- $r5
	@DEBUG_VALUE: HAL_QSPI_AutoPolling:cfg <- $r6
	@DEBUG_VALUE: HAL_QSPI_AutoPolling:status <- 0
	.loc	7 0 3                           @ ../Drivers/STM32H7xx_HAL_Driver/Src/stm32h7xx_hal_qspi.c:0:3
	movs	r1, #8
.Ltmp533:
	.loc	7 1568 9 is_stmt 1              @ ../Drivers/STM32H7xx_HAL_Driver/Src/stm32h7xx_hal_qspi.c:1568:9
	str	r1, [r0, #12]
	movs	r0, #1
	.loc	7 1571 22                       @ ../Drivers/STM32H7xx_HAL_Driver/Src/stm32h7xx_hal_qspi.c:1571:22
	strb.w	r0, [r4, #65]
	movs	r0, #0
.Ltmp534:
	@DEBUG_VALUE: HAL_QSPI_AutoPolling:status <- $r0
	.loc	7 0 22 is_stmt 0                @ ../Drivers/STM32H7xx_HAL_Driver/Src/stm32h7xx_hal_qspi.c:0:22
	movs	r1, #0
.Ltmp535:
	.loc	7 1581 3 is_stmt 1              @ ../Drivers/STM32H7xx_HAL_Driver/Src/stm32h7xx_hal_qspi.c:1581:3
	strb.w	r1, [r4, #64]
.Ltmp536:
	.loc	7 1585 1                        @ ../Drivers/STM32H7xx_HAL_Driver/Src/stm32h7xx_hal_qspi.c:1585:1
	pop	{r4, r5, r6, pc}
.Ltmp537:
	.p2align	2
.LBB27_12:
	@DEBUG_VALUE: HAL_QSPI_AutoPolling:Timeout <- [DW_OP_LLVM_entry_value 1] $r3
	@DEBUG_VALUE: HAL_QSPI_AutoPolling:hqspi <- $r4
	@DEBUG_VALUE: HAL_QSPI_AutoPolling:cmd <- $r5
	@DEBUG_VALUE: HAL_QSPI_AutoPolling:cfg <- $r6
	.loc	7 0 1 is_stmt 0                 @ ../Drivers/STM32H7xx_HAL_Driver/Src/stm32h7xx_hal_qspi.c:0:1
	movs	r0, #2
.Ltmp538:
	@DEBUG_VALUE: HAL_QSPI_AutoPolling:status <- $r0
	movs	r1, #0
.Ltmp539:
	.loc	7 1581 3 is_stmt 1              @ ../Drivers/STM32H7xx_HAL_Driver/Src/stm32h7xx_hal_qspi.c:1581:3
	strb.w	r1, [r4, #64]
.Ltmp540:
	.loc	7 1585 1                        @ ../Drivers/STM32H7xx_HAL_Driver/Src/stm32h7xx_hal_qspi.c:1585:1
	pop	{r4, r5, r6, pc}
.Ltmp541:
.Lfunc_end27:
	.size	HAL_QSPI_AutoPolling, .Lfunc_end27-HAL_QSPI_AutoPolling
	.cfi_endproc
	.cantunwind
	.fnend
                                        @ -- End function
	.hidden	HAL_QSPI_AutoPolling_IT         @ -- Begin function HAL_QSPI_AutoPolling_IT
	.globl	HAL_QSPI_AutoPolling_IT
	.p2align	3
	.type	HAL_QSPI_AutoPolling_IT,%function
	.code	16                              @ @HAL_QSPI_AutoPolling_IT
	.thumb_func
HAL_QSPI_AutoPolling_IT:
.Lfunc_begin28:
	.loc	7 1596 0                        @ ../Drivers/STM32H7xx_HAL_Driver/Src/stm32h7xx_hal_qspi.c:1596:0
	.fnstart
	.cfi_startproc
@ %bb.0:
	@DEBUG_VALUE: HAL_QSPI_AutoPolling_IT:hqspi <- $r0
	@DEBUG_VALUE: HAL_QSPI_AutoPolling_IT:cmd <- $r1
	@DEBUG_VALUE: HAL_QSPI_AutoPolling_IT:cfg <- $r2
	.save	{r4, r5, r6, lr}
	push	{r4, r5, r6, lr}
	.cfi_def_cfa_offset 16
	.cfi_offset lr, -4
	.cfi_offset r6, -8
	.cfi_offset r5, -12
	.cfi_offset r4, -16
	mov	r6, r2
.Ltmp542:
	@DEBUG_VALUE: HAL_QSPI_AutoPolling_IT:cfg <- $r6
	@DEBUG_VALUE: HAL_QSPI_AutoPolling_IT:cfg <- $r6
	mov	r5, r1
.Ltmp543:
	@DEBUG_VALUE: HAL_QSPI_AutoPolling_IT:cmd <- $r5
	@DEBUG_VALUE: HAL_QSPI_AutoPolling_IT:cmd <- $r5
	mov	r4, r0
.Ltmp544:
	@DEBUG_VALUE: HAL_QSPI_AutoPolling_IT:hqspi <- $r4
	@DEBUG_VALUE: HAL_QSPI_AutoPolling_IT:hqspi <- $r4
	.loc	7 1598 24 prologue_end          @ ../Drivers/STM32H7xx_HAL_Driver/Src/stm32h7xx_hal_qspi.c:1598:24
	bl	HAL_GetTick
.Ltmp545:
	@DEBUG_VALUE: HAL_QSPI_AutoPolling_IT:tickstart <- undef
	.loc	7 1632 3                        @ ../Drivers/STM32H7xx_HAL_Driver/Src/stm32h7xx_hal_qspi.c:1632:3
	ldrb.w	r0, [r4, #64]
.Ltmp546:
	.loc	7 1632 3 is_stmt 0              @ ../Drivers/STM32H7xx_HAL_Driver/Src/stm32h7xx_hal_qspi.c:1632:3
	cmp	r0, #1
	beq	.LBB28_8
.Ltmp547:
@ %bb.1:
	@DEBUG_VALUE: HAL_QSPI_AutoPolling_IT:hqspi <- $r4
	@DEBUG_VALUE: HAL_QSPI_AutoPolling_IT:cmd <- $r5
	@DEBUG_VALUE: HAL_QSPI_AutoPolling_IT:cfg <- $r6
	.loc	7 0 3                           @ ../Drivers/STM32H7xx_HAL_Driver/Src/stm32h7xx_hal_qspi.c:0:3
	movs	r0, #1
.Ltmp548:
	.loc	7 1632 3                        @ ../Drivers/STM32H7xx_HAL_Driver/Src/stm32h7xx_hal_qspi.c:1632:3
	strb.w	r0, [r4, #64]
.Ltmp549:
	.loc	7 1634 13 is_stmt 1             @ ../Drivers/STM32H7xx_HAL_Driver/Src/stm32h7xx_hal_qspi.c:1634:13
	ldrb.w	r0, [r4, #65]
.Ltmp550:
	.loc	7 1634 6 is_stmt 0              @ ../Drivers/STM32H7xx_HAL_Driver/Src/stm32h7xx_hal_qspi.c:1634:6
	cmp	r0, #1
	bne	.LBB28_7
.Ltmp551:
@ %bb.2:
	@DEBUG_VALUE: HAL_QSPI_AutoPolling_IT:hqspi <- $r4
	@DEBUG_VALUE: HAL_QSPI_AutoPolling_IT:cmd <- $r5
	@DEBUG_VALUE: HAL_QSPI_AutoPolling_IT:cfg <- $r6
	.loc	7 0 6                           @ ../Drivers/STM32H7xx_HAL_Driver/Src/stm32h7xx_hal_qspi.c:0:6
	movs	r0, #0
.Ltmp552:
	.loc	7 1636 22 is_stmt 1             @ ../Drivers/STM32H7xx_HAL_Driver/Src/stm32h7xx_hal_qspi.c:1636:22
	str	r0, [r4, #68]
	movs	r0, #66
	.loc	7 1639 18                       @ ../Drivers/STM32H7xx_HAL_Driver/Src/stm32h7xx_hal_qspi.c:1639:18
	strb.w	r0, [r4, #65]
	@DEBUG_VALUE: QSPI_WaitFlagStateUntilTimeout:Timeout <- undef
	@DEBUG_VALUE: QSPI_WaitFlagStateUntilTimeout:Tickstart <- undef
	@DEBUG_VALUE: QSPI_WaitFlagStateUntilTimeout:State <- 0
	@DEBUG_VALUE: QSPI_WaitFlagStateUntilTimeout:Flag <- 32
	@DEBUG_VALUE: QSPI_WaitFlagStateUntilTimeout:hqspi <- $r4
	ldr	r0, [r4]
.Ltmp553:
.LBB28_3:                               @ =>This Inner Loop Header: Depth=1
	@DEBUG_VALUE: QSPI_WaitFlagStateUntilTimeout:hqspi <- $r4
	@DEBUG_VALUE: QSPI_WaitFlagStateUntilTimeout:Flag <- 32
	@DEBUG_VALUE: QSPI_WaitFlagStateUntilTimeout:State <- 0
	@DEBUG_VALUE: HAL_QSPI_AutoPolling_IT:hqspi <- $r4
	@DEBUG_VALUE: HAL_QSPI_AutoPolling_IT:cmd <- $r5
	@DEBUG_VALUE: HAL_QSPI_AutoPolling_IT:cfg <- $r6
	.loc	7 2482 10                       @ ../Drivers/STM32H7xx_HAL_Driver/Src/stm32h7xx_hal_qspi.c:2482:10
	ldr	r1, [r0, #8]
	.loc	7 2482 3 is_stmt 0              @ ../Drivers/STM32H7xx_HAL_Driver/Src/stm32h7xx_hal_qspi.c:2482:3
	lsls	r1, r1, #26
	bpl	.LBB28_6
.Ltmp554:
@ %bb.4:                                @   in Loop: Header=BB28_3 Depth=1
	@DEBUG_VALUE: QSPI_WaitFlagStateUntilTimeout:hqspi <- $r4
	@DEBUG_VALUE: QSPI_WaitFlagStateUntilTimeout:Flag <- 32
	@DEBUG_VALUE: QSPI_WaitFlagStateUntilTimeout:State <- 0
	@DEBUG_VALUE: HAL_QSPI_AutoPolling_IT:hqspi <- $r4
	@DEBUG_VALUE: HAL_QSPI_AutoPolling_IT:cmd <- $r5
	@DEBUG_VALUE: HAL_QSPI_AutoPolling_IT:cfg <- $r6
	.loc	7 2482 10                       @ ../Drivers/STM32H7xx_HAL_Driver/Src/stm32h7xx_hal_qspi.c:2482:10
	ldr	r1, [r0, #8]
	.loc	7 2482 3                        @ ../Drivers/STM32H7xx_HAL_Driver/Src/stm32h7xx_hal_qspi.c:2482:3
	lsls	r1, r1, #26
	.loc	7 2482 10                       @ ../Drivers/STM32H7xx_HAL_Driver/Src/stm32h7xx_hal_qspi.c:2482:10
	itt	mi
	ldrmi	r1, [r0, #8]
	.loc	7 2482 3                        @ ../Drivers/STM32H7xx_HAL_Driver/Src/stm32h7xx_hal_qspi.c:2482:3
	lslsmi.w	r1, r1, #26
	bpl	.LBB28_6
.Ltmp555:
@ %bb.5:                                @   in Loop: Header=BB28_3 Depth=1
	@DEBUG_VALUE: QSPI_WaitFlagStateUntilTimeout:hqspi <- $r4
	@DEBUG_VALUE: QSPI_WaitFlagStateUntilTimeout:Flag <- 32
	@DEBUG_VALUE: QSPI_WaitFlagStateUntilTimeout:State <- 0
	@DEBUG_VALUE: HAL_QSPI_AutoPolling_IT:hqspi <- $r4
	@DEBUG_VALUE: HAL_QSPI_AutoPolling_IT:cmd <- $r5
	@DEBUG_VALUE: HAL_QSPI_AutoPolling_IT:cfg <- $r6
	.loc	7 2482 10                       @ ../Drivers/STM32H7xx_HAL_Driver/Src/stm32h7xx_hal_qspi.c:2482:10
	ldr	r1, [r0, #8]
	.loc	7 2482 3                        @ ../Drivers/STM32H7xx_HAL_Driver/Src/stm32h7xx_hal_qspi.c:2482:3
	lsls	r1, r1, #26
	bmi	.LBB28_3
.Ltmp556:
.LBB28_6:
	@DEBUG_VALUE: HAL_QSPI_AutoPolling_IT:hqspi <- $r4
	@DEBUG_VALUE: HAL_QSPI_AutoPolling_IT:cmd <- $r5
	@DEBUG_VALUE: HAL_QSPI_AutoPolling_IT:cfg <- $r6
	@DEBUG_VALUE: HAL_QSPI_AutoPolling_IT:status <- 0
	.loc	7 1647 7 is_stmt 1              @ ../Drivers/STM32H7xx_HAL_Driver/Src/stm32h7xx_hal_qspi.c:1647:7
	ldm.w	r6, {r1, r2, r3, r12}
	str	r1, [r0, #40]
	.loc	7 1650 7                        @ ../Drivers/STM32H7xx_HAL_Driver/Src/stm32h7xx_hal_qspi.c:1650:7
	str	r2, [r0, #36]
	.loc	7 1653 7                        @ ../Drivers/STM32H7xx_HAL_Driver/Src/stm32h7xx_hal_qspi.c:1653:7
	str	r3, [r0, #44]
	.loc	7 1656 7                        @ ../Drivers/STM32H7xx_HAL_Driver/Src/stm32h7xx_hal_qspi.c:1656:7
	ldr	r1, [r0]
	bic	r1, r1, #12582912
	ldrd	r2, r3, [r6, #16]
	orrs	r1, r2
	.loc	7 1664 7                        @ ../Drivers/STM32H7xx_HAL_Driver/Src/stm32h7xx_hal_qspi.c:1664:7
	mov.w	r2, #134217728
	.loc	7 1656 7                        @ ../Drivers/STM32H7xx_HAL_Driver/Src/stm32h7xx_hal_qspi.c:1656:7
	orrs	r1, r3
	str	r1, [r0]
	movs	r1, #9
	.loc	7 1660 7                        @ ../Drivers/STM32H7xx_HAL_Driver/Src/stm32h7xx_hal_qspi.c:1660:7
	str	r1, [r0, #12]
	.loc	7 1664 7                        @ ../Drivers/STM32H7xx_HAL_Driver/Src/stm32h7xx_hal_qspi.c:1664:7
	mov	r0, r4
	mov	r1, r5
	.loc	7 1663 19                       @ ../Drivers/STM32H7xx_HAL_Driver/Src/stm32h7xx_hal_qspi.c:1663:19
	str.w	r12, [r5, #40]
	.loc	7 1664 7                        @ ../Drivers/STM32H7xx_HAL_Driver/Src/stm32h7xx_hal_qspi.c:1664:7
	bl	QSPI_Config
.Ltmp557:
	.loc	7 0 7 is_stmt 0                 @ ../Drivers/STM32H7xx_HAL_Driver/Src/stm32h7xx_hal_qspi.c:0:7
	movs	r0, #0
.Ltmp558:
	.loc	7 1667 7 is_stmt 1              @ ../Drivers/STM32H7xx_HAL_Driver/Src/stm32h7xx_hal_qspi.c:1667:7
	strb.w	r0, [r4, #64]
.Ltmp559:
	.loc	7 1670 7                        @ ../Drivers/STM32H7xx_HAL_Driver/Src/stm32h7xx_hal_qspi.c:1670:7
	ldr	r1, [r4]
	ldr	r2, [r1]
	orr	r2, r2, #589824
	str	r2, [r1]
.Ltmp560:
	.loc	7 1689 1                        @ ../Drivers/STM32H7xx_HAL_Driver/Src/stm32h7xx_hal_qspi.c:1689:1
	pop	{r4, r5, r6, pc}
.Ltmp561:
	.p2align	2
.LBB28_7:
	@DEBUG_VALUE: HAL_QSPI_AutoPolling_IT:hqspi <- $r4
	@DEBUG_VALUE: HAL_QSPI_AutoPolling_IT:cmd <- $r5
	@DEBUG_VALUE: HAL_QSPI_AutoPolling_IT:cfg <- $r6
	@DEBUG_VALUE: HAL_QSPI_AutoPolling_IT:status <- 2
	.loc	7 0 1 is_stmt 0                 @ ../Drivers/STM32H7xx_HAL_Driver/Src/stm32h7xx_hal_qspi.c:0:1
	movs	r0, #0
.Ltmp562:
	.loc	7 1684 5 is_stmt 1              @ ../Drivers/STM32H7xx_HAL_Driver/Src/stm32h7xx_hal_qspi.c:1684:5
	strb.w	r0, [r4, #64]
.Ltmp563:
.LBB28_8:
	@DEBUG_VALUE: HAL_QSPI_AutoPolling_IT:hqspi <- $r4
	@DEBUG_VALUE: HAL_QSPI_AutoPolling_IT:cmd <- $r5
	@DEBUG_VALUE: HAL_QSPI_AutoPolling_IT:cfg <- $r6
	.loc	7 0 5 is_stmt 0                 @ ../Drivers/STM32H7xx_HAL_Driver/Src/stm32h7xx_hal_qspi.c:0:5
	movs	r0, #2
	.loc	7 1689 1 is_stmt 1              @ ../Drivers/STM32H7xx_HAL_Driver/Src/stm32h7xx_hal_qspi.c:1689:1
	pop	{r4, r5, r6, pc}
.Ltmp564:
.Lfunc_end28:
	.size	HAL_QSPI_AutoPolling_IT, .Lfunc_end28-HAL_QSPI_AutoPolling_IT
	.cfi_endproc
	.cantunwind
	.fnend
                                        @ -- End function
	.hidden	HAL_QSPI_MemoryMapped           @ -- Begin function HAL_QSPI_MemoryMapped
	.globl	HAL_QSPI_MemoryMapped
	.p2align	3
	.type	HAL_QSPI_MemoryMapped,%function
	.code	16                              @ @HAL_QSPI_MemoryMapped
	.thumb_func
HAL_QSPI_MemoryMapped:
.Lfunc_begin29:
	.loc	7 1700 0                        @ ../Drivers/STM32H7xx_HAL_Driver/Src/stm32h7xx_hal_qspi.c:1700:0
	.fnstart
	.cfi_startproc
@ %bb.0:
	@DEBUG_VALUE: HAL_QSPI_MemoryMapped:hqspi <- $r0
	@DEBUG_VALUE: HAL_QSPI_MemoryMapped:cmd <- $r1
	@DEBUG_VALUE: HAL_QSPI_MemoryMapped:cfg <- $r2
	.save	{r4, r5, r6, lr}
	push	{r4, r5, r6, lr}
	.cfi_def_cfa_offset 16
	.cfi_offset lr, -4
	.cfi_offset r6, -8
	.cfi_offset r5, -12
	.cfi_offset r4, -16
	mov	r6, r2
.Ltmp565:
	@DEBUG_VALUE: HAL_QSPI_MemoryMapped:cfg <- $r6
	@DEBUG_VALUE: HAL_QSPI_MemoryMapped:cfg <- $r6
	mov	r5, r1
.Ltmp566:
	@DEBUG_VALUE: HAL_QSPI_MemoryMapped:cmd <- $r5
	@DEBUG_VALUE: HAL_QSPI_MemoryMapped:cmd <- $r5
	mov	r4, r0
.Ltmp567:
	@DEBUG_VALUE: HAL_QSPI_MemoryMapped:hqspi <- $r4
	@DEBUG_VALUE: HAL_QSPI_MemoryMapped:hqspi <- $r4
	.loc	7 1702 24 prologue_end          @ ../Drivers/STM32H7xx_HAL_Driver/Src/stm32h7xx_hal_qspi.c:1702:24
	bl	HAL_GetTick
.Ltmp568:
	@DEBUG_VALUE: HAL_QSPI_MemoryMapped:tickstart <- undef
	.loc	7 1733 3                        @ ../Drivers/STM32H7xx_HAL_Driver/Src/stm32h7xx_hal_qspi.c:1733:3
	ldrb.w	r0, [r4, #64]
.Ltmp569:
	.loc	7 1733 3 is_stmt 0              @ ../Drivers/STM32H7xx_HAL_Driver/Src/stm32h7xx_hal_qspi.c:1733:3
	cmp	r0, #1
	bne	.LBB29_2
.Ltmp570:
@ %bb.1:
	@DEBUG_VALUE: HAL_QSPI_MemoryMapped:hqspi <- $r4
	@DEBUG_VALUE: HAL_QSPI_MemoryMapped:cmd <- $r5
	@DEBUG_VALUE: HAL_QSPI_MemoryMapped:cfg <- $r6
	.loc	7 0 3                           @ ../Drivers/STM32H7xx_HAL_Driver/Src/stm32h7xx_hal_qspi.c:0:3
	movs	r0, #2
	.loc	7 1778 1 is_stmt 1              @ ../Drivers/STM32H7xx_HAL_Driver/Src/stm32h7xx_hal_qspi.c:1778:1
	pop	{r4, r5, r6, pc}
.Ltmp571:
	.p2align	2
.LBB29_2:
	@DEBUG_VALUE: HAL_QSPI_MemoryMapped:hqspi <- $r4
	@DEBUG_VALUE: HAL_QSPI_MemoryMapped:cmd <- $r5
	@DEBUG_VALUE: HAL_QSPI_MemoryMapped:cfg <- $r6
	.loc	7 0 1 is_stmt 0                 @ ../Drivers/STM32H7xx_HAL_Driver/Src/stm32h7xx_hal_qspi.c:0:1
	movs	r0, #1
.Ltmp572:
	.loc	7 1733 3 is_stmt 1              @ ../Drivers/STM32H7xx_HAL_Driver/Src/stm32h7xx_hal_qspi.c:1733:3
	strb.w	r0, [r4, #64]
.Ltmp573:
	.loc	7 1735 13                       @ ../Drivers/STM32H7xx_HAL_Driver/Src/stm32h7xx_hal_qspi.c:1735:13
	ldrb.w	r0, [r4, #65]
.Ltmp574:
	.loc	7 1735 6 is_stmt 0              @ ../Drivers/STM32H7xx_HAL_Driver/Src/stm32h7xx_hal_qspi.c:1735:6
	cmp	r0, #1
	bne	.LBB29_10
.Ltmp575:
@ %bb.3:
	@DEBUG_VALUE: HAL_QSPI_MemoryMapped:hqspi <- $r4
	@DEBUG_VALUE: HAL_QSPI_MemoryMapped:cmd <- $r5
	@DEBUG_VALUE: HAL_QSPI_MemoryMapped:cfg <- $r6
	.loc	7 0 6                           @ ../Drivers/STM32H7xx_HAL_Driver/Src/stm32h7xx_hal_qspi.c:0:6
	movs	r0, #0
.Ltmp576:
	.loc	7 1737 22 is_stmt 1             @ ../Drivers/STM32H7xx_HAL_Driver/Src/stm32h7xx_hal_qspi.c:1737:22
	str	r0, [r4, #68]
	movs	r0, #130
	.loc	7 1740 18                       @ ../Drivers/STM32H7xx_HAL_Driver/Src/stm32h7xx_hal_qspi.c:1740:18
	strb.w	r0, [r4, #65]
	@DEBUG_VALUE: QSPI_WaitFlagStateUntilTimeout:Timeout <- undef
	@DEBUG_VALUE: QSPI_WaitFlagStateUntilTimeout:Tickstart <- undef
	@DEBUG_VALUE: QSPI_WaitFlagStateUntilTimeout:State <- 0
	@DEBUG_VALUE: QSPI_WaitFlagStateUntilTimeout:Flag <- 32
	@DEBUG_VALUE: QSPI_WaitFlagStateUntilTimeout:hqspi <- $r4
	ldr	r0, [r4]
.Ltmp577:
.LBB29_4:                               @ =>This Inner Loop Header: Depth=1
	@DEBUG_VALUE: QSPI_WaitFlagStateUntilTimeout:hqspi <- $r4
	@DEBUG_VALUE: QSPI_WaitFlagStateUntilTimeout:Flag <- 32
	@DEBUG_VALUE: QSPI_WaitFlagStateUntilTimeout:State <- 0
	@DEBUG_VALUE: HAL_QSPI_MemoryMapped:hqspi <- $r4
	@DEBUG_VALUE: HAL_QSPI_MemoryMapped:cmd <- $r5
	@DEBUG_VALUE: HAL_QSPI_MemoryMapped:cfg <- $r6
	.loc	7 2482 10                       @ ../Drivers/STM32H7xx_HAL_Driver/Src/stm32h7xx_hal_qspi.c:2482:10
	ldr	r1, [r0, #8]
	.loc	7 2482 3 is_stmt 0              @ ../Drivers/STM32H7xx_HAL_Driver/Src/stm32h7xx_hal_qspi.c:2482:3
	lsls	r1, r1, #26
	bpl	.LBB29_7
.Ltmp578:
@ %bb.5:                                @   in Loop: Header=BB29_4 Depth=1
	@DEBUG_VALUE: QSPI_WaitFlagStateUntilTimeout:hqspi <- $r4
	@DEBUG_VALUE: QSPI_WaitFlagStateUntilTimeout:Flag <- 32
	@DEBUG_VALUE: QSPI_WaitFlagStateUntilTimeout:State <- 0
	@DEBUG_VALUE: HAL_QSPI_MemoryMapped:hqspi <- $r4
	@DEBUG_VALUE: HAL_QSPI_MemoryMapped:cmd <- $r5
	@DEBUG_VALUE: HAL_QSPI_MemoryMapped:cfg <- $r6
	.loc	7 2482 10                       @ ../Drivers/STM32H7xx_HAL_Driver/Src/stm32h7xx_hal_qspi.c:2482:10
	ldr	r1, [r0, #8]
	.loc	7 2482 3                        @ ../Drivers/STM32H7xx_HAL_Driver/Src/stm32h7xx_hal_qspi.c:2482:3
	lsls	r1, r1, #26
	.loc	7 2482 10                       @ ../Drivers/STM32H7xx_HAL_Driver/Src/stm32h7xx_hal_qspi.c:2482:10
	itt	mi
	ldrmi	r1, [r0, #8]
	.loc	7 2482 3                        @ ../Drivers/STM32H7xx_HAL_Driver/Src/stm32h7xx_hal_qspi.c:2482:3
	lslsmi.w	r1, r1, #26
	bpl	.LBB29_7
.Ltmp579:
@ %bb.6:                                @   in Loop: Header=BB29_4 Depth=1
	@DEBUG_VALUE: QSPI_WaitFlagStateUntilTimeout:hqspi <- $r4
	@DEBUG_VALUE: QSPI_WaitFlagStateUntilTimeout:Flag <- 32
	@DEBUG_VALUE: QSPI_WaitFlagStateUntilTimeout:State <- 0
	@DEBUG_VALUE: HAL_QSPI_MemoryMapped:hqspi <- $r4
	@DEBUG_VALUE: HAL_QSPI_MemoryMapped:cmd <- $r5
	@DEBUG_VALUE: HAL_QSPI_MemoryMapped:cfg <- $r6
	.loc	7 2482 10                       @ ../Drivers/STM32H7xx_HAL_Driver/Src/stm32h7xx_hal_qspi.c:2482:10
	ldr	r1, [r0, #8]
	.loc	7 2482 3                        @ ../Drivers/STM32H7xx_HAL_Driver/Src/stm32h7xx_hal_qspi.c:2482:3
	lsls	r1, r1, #26
	bmi	.LBB29_4
.Ltmp580:
.LBB29_7:
	@DEBUG_VALUE: HAL_QSPI_MemoryMapped:hqspi <- $r4
	@DEBUG_VALUE: HAL_QSPI_MemoryMapped:cmd <- $r5
	@DEBUG_VALUE: HAL_QSPI_MemoryMapped:cfg <- $r6
	@DEBUG_VALUE: HAL_QSPI_MemoryMapped:status <- 0
	.loc	7 1748 5 is_stmt 1              @ ../Drivers/STM32H7xx_HAL_Driver/Src/stm32h7xx_hal_qspi.c:1748:5
	ldr	r1, [r0]
	ldr	r2, [r6, #4]
	bic	r1, r1, #8
	.loc	7 1750 9                        @ ../Drivers/STM32H7xx_HAL_Driver/Src/stm32h7xx_hal_qspi.c:1750:9
	cmp	r2, #8
	.loc	7 1748 5                        @ ../Drivers/STM32H7xx_HAL_Driver/Src/stm32h7xx_hal_qspi.c:1748:5
	orr.w	r1, r1, r2
	str	r1, [r0]
	.loc	7 1750 9                        @ ../Drivers/STM32H7xx_HAL_Driver/Src/stm32h7xx_hal_qspi.c:1750:9
	bne	.LBB29_9
.Ltmp581:
@ %bb.8:
	@DEBUG_VALUE: HAL_QSPI_MemoryMapped:status <- 0
	@DEBUG_VALUE: HAL_QSPI_MemoryMapped:hqspi <- $r4
	@DEBUG_VALUE: HAL_QSPI_MemoryMapped:cmd <- $r5
	@DEBUG_VALUE: HAL_QSPI_MemoryMapped:cfg <- $r6
	.loc	7 1755 9                        @ ../Drivers/STM32H7xx_HAL_Driver/Src/stm32h7xx_hal_qspi.c:1755:9
	ldr	r1, [r6]
	str	r1, [r0, #48]
	movs	r1, #16
	.loc	7 1758 9                        @ ../Drivers/STM32H7xx_HAL_Driver/Src/stm32h7xx_hal_qspi.c:1758:9
	str	r1, [r0, #12]
	.loc	7 1761 9                        @ ../Drivers/STM32H7xx_HAL_Driver/Src/stm32h7xx_hal_qspi.c:1761:9
	ldr	r1, [r0]
	orr	r1, r1, #1048576
	str	r1, [r0]
.Ltmp582:
.LBB29_9:
	@DEBUG_VALUE: HAL_QSPI_MemoryMapped:status <- 0
	@DEBUG_VALUE: HAL_QSPI_MemoryMapped:hqspi <- $r4
	@DEBUG_VALUE: HAL_QSPI_MemoryMapped:cmd <- $r5
	@DEBUG_VALUE: HAL_QSPI_MemoryMapped:cfg <- $r6
	.loc	7 1765 7                        @ ../Drivers/STM32H7xx_HAL_Driver/Src/stm32h7xx_hal_qspi.c:1765:7
	mov.w	r2, #201326592
	mov	r0, r4
	mov	r1, r5
	bl	QSPI_Config
.Ltmp583:
	.loc	7 0 7 is_stmt 0                 @ ../Drivers/STM32H7xx_HAL_Driver/Src/stm32h7xx_hal_qspi.c:0:7
	movs	r0, #0
.Ltmp584:
	@DEBUG_VALUE: HAL_QSPI_MemoryMapped:status <- $r0
	movs	r1, #0
.Ltmp585:
	.loc	7 1774 3 is_stmt 1              @ ../Drivers/STM32H7xx_HAL_Driver/Src/stm32h7xx_hal_qspi.c:1774:3
	strb.w	r1, [r4, #64]
.Ltmp586:
	.loc	7 1778 1                        @ ../Drivers/STM32H7xx_HAL_Driver/Src/stm32h7xx_hal_qspi.c:1778:1
	pop	{r4, r5, r6, pc}
.Ltmp587:
	.p2align	2
.LBB29_10:
	@DEBUG_VALUE: HAL_QSPI_MemoryMapped:hqspi <- $r4
	@DEBUG_VALUE: HAL_QSPI_MemoryMapped:cmd <- $r5
	@DEBUG_VALUE: HAL_QSPI_MemoryMapped:cfg <- $r6
	.loc	7 0 1 is_stmt 0                 @ ../Drivers/STM32H7xx_HAL_Driver/Src/stm32h7xx_hal_qspi.c:0:1
	movs	r0, #2
.Ltmp588:
	@DEBUG_VALUE: HAL_QSPI_MemoryMapped:status <- $r0
	movs	r1, #0
.Ltmp589:
	.loc	7 1774 3 is_stmt 1              @ ../Drivers/STM32H7xx_HAL_Driver/Src/stm32h7xx_hal_qspi.c:1774:3
	strb.w	r1, [r4, #64]
.Ltmp590:
	.loc	7 1778 1                        @ ../Drivers/STM32H7xx_HAL_Driver/Src/stm32h7xx_hal_qspi.c:1778:1
	pop	{r4, r5, r6, pc}
.Ltmp591:
.Lfunc_end29:
	.size	HAL_QSPI_MemoryMapped, .Lfunc_end29-HAL_QSPI_MemoryMapped
	.cfi_endproc
	.cantunwind
	.fnend
                                        @ -- End function
	.hidden	HAL_QSPI_GetState               @ -- Begin function HAL_QSPI_GetState
	.globl	HAL_QSPI_GetState
	.p2align	3
	.type	HAL_QSPI_GetState,%function
	.code	16                              @ @HAL_QSPI_GetState
	.thumb_func
HAL_QSPI_GetState:
.Lfunc_begin30:
	.loc	7 2134 0                        @ ../Drivers/STM32H7xx_HAL_Driver/Src/stm32h7xx_hal_qspi.c:2134:0
	.fnstart
	.cfi_startproc
@ %bb.0:
	@DEBUG_VALUE: HAL_QSPI_GetState:hqspi <- $r0
	.loc	7 2136 17 prologue_end          @ ../Drivers/STM32H7xx_HAL_Driver/Src/stm32h7xx_hal_qspi.c:2136:17
	ldrb.w	r0, [r0, #65]
.Ltmp592:
	@DEBUG_VALUE: HAL_QSPI_GetState:hqspi <- [DW_OP_LLVM_entry_value 1] $r0
	.loc	7 2136 3 is_stmt 0              @ ../Drivers/STM32H7xx_HAL_Driver/Src/stm32h7xx_hal_qspi.c:2136:3
	bx	lr
.Ltmp593:
.Lfunc_end30:
	.size	HAL_QSPI_GetState, .Lfunc_end30-HAL_QSPI_GetState
	.cfi_endproc
	.cantunwind
	.fnend
                                        @ -- End function
	.hidden	HAL_QSPI_GetError               @ -- Begin function HAL_QSPI_GetError
	.globl	HAL_QSPI_GetError
	.p2align	3
	.type	HAL_QSPI_GetError,%function
	.code	16                              @ @HAL_QSPI_GetError
	.thumb_func
HAL_QSPI_GetError:
.Lfunc_begin31:
	.loc	7 2145 0 is_stmt 1              @ ../Drivers/STM32H7xx_HAL_Driver/Src/stm32h7xx_hal_qspi.c:2145:0
	.fnstart
	.cfi_startproc
@ %bb.0:
	@DEBUG_VALUE: HAL_QSPI_GetError:hqspi <- $r0
	.loc	7 2146 17 prologue_end          @ ../Drivers/STM32H7xx_HAL_Driver/Src/stm32h7xx_hal_qspi.c:2146:17
	ldr	r0, [r0, #68]
.Ltmp594:
	@DEBUG_VALUE: HAL_QSPI_GetError:hqspi <- [DW_OP_LLVM_entry_value 1] $r0
	.loc	7 2146 3 is_stmt 0              @ ../Drivers/STM32H7xx_HAL_Driver/Src/stm32h7xx_hal_qspi.c:2146:3
	bx	lr
.Ltmp595:
.Lfunc_end31:
	.size	HAL_QSPI_GetError, .Lfunc_end31-HAL_QSPI_GetError
	.cfi_endproc
	.cantunwind
	.fnend
                                        @ -- End function
	.hidden	HAL_QSPI_Abort                  @ -- Begin function HAL_QSPI_Abort
	.globl	HAL_QSPI_Abort
	.p2align	3
	.type	HAL_QSPI_Abort,%function
	.code	16                              @ @HAL_QSPI_Abort
	.thumb_func
HAL_QSPI_Abort:
.Lfunc_begin32:
	.loc	7 2155 0 is_stmt 1              @ ../Drivers/STM32H7xx_HAL_Driver/Src/stm32h7xx_hal_qspi.c:2155:0
	.fnstart
	.cfi_startproc
@ %bb.0:
	@DEBUG_VALUE: HAL_QSPI_Abort:hqspi <- $r0
	.save	{r4, lr}
	push	{r4, lr}
	.cfi_def_cfa_offset 8
	.cfi_offset lr, -4
	.cfi_offset r4, -8
	mov	r4, r0
.Ltmp596:
	@DEBUG_VALUE: HAL_QSPI_Abort:hqspi <- $r4
	@DEBUG_VALUE: HAL_QSPI_Abort:status <- 0
	@DEBUG_VALUE: HAL_QSPI_Abort:hqspi <- $r4
	.loc	7 2157 24 prologue_end          @ ../Drivers/STM32H7xx_HAL_Driver/Src/stm32h7xx_hal_qspi.c:2157:24
	bl	HAL_GetTick
.Ltmp597:
	@DEBUG_VALUE: HAL_QSPI_Abort:tickstart <- undef
	.loc	7 2160 25                       @ ../Drivers/STM32H7xx_HAL_Driver/Src/stm32h7xx_hal_qspi.c:2160:25
	ldrb.w	r0, [r4, #65]
.Ltmp598:
	.loc	7 2160 7 is_stmt 0              @ ../Drivers/STM32H7xx_HAL_Driver/Src/stm32h7xx_hal_qspi.c:2160:7
	lsls	r0, r0, #30
	mov.w	r0, #0
.Ltmp599:
	@DEBUG_VALUE: HAL_QSPI_Abort:status <- $r0
	.loc	7 2211 3 is_stmt 1              @ ../Drivers/STM32H7xx_HAL_Driver/Src/stm32h7xx_hal_qspi.c:2211:3
	it	pl
	poppl	{r4, pc}
.Ltmp600:
.LBB32_1:
	@DEBUG_VALUE: HAL_QSPI_Abort:status <- $r0
	.loc	7 2163 5                        @ ../Drivers/STM32H7xx_HAL_Driver/Src/stm32h7xx_hal_qspi.c:2163:5
	strb.w	r0, [r4, #64]
.Ltmp601:
	.loc	7 2165 17                       @ ../Drivers/STM32H7xx_HAL_Driver/Src/stm32h7xx_hal_qspi.c:2165:17
	ldr	r1, [r4]
	.loc	7 2165 27 is_stmt 0             @ ../Drivers/STM32H7xx_HAL_Driver/Src/stm32h7xx_hal_qspi.c:2165:27
	ldr	r2, [r1]
.Ltmp602:
	.loc	7 2165 9                        @ ../Drivers/STM32H7xx_HAL_Driver/Src/stm32h7xx_hal_qspi.c:2165:9
	lsls	r2, r2, #29
	bmi	.LBB32_4
.Ltmp603:
@ %bb.2:
	@DEBUG_VALUE: HAL_QSPI_Abort:status <- $r0
	@DEBUG_VALUE: HAL_QSPI_Abort:status <- $r0
	.loc	7 2179 9 is_stmt 1              @ ../Drivers/STM32H7xx_HAL_Driver/Src/stm32h7xx_hal_qspi.c:2179:9
	ldr	r1, [r4]
	ldr	r2, [r1, #8]
.Ltmp604:
	.loc	7 2179 9 is_stmt 0              @ ../Drivers/STM32H7xx_HAL_Driver/Src/stm32h7xx_hal_qspi.c:2179:9
	lsls	r2, r2, #26
	bmi	.LBB32_7
.Ltmp605:
.LBB32_3:
	@DEBUG_VALUE: HAL_QSPI_Abort:status <- $r0
	.loc	7 0 9                           @ ../Drivers/STM32H7xx_HAL_Driver/Src/stm32h7xx_hal_qspi.c:0:9
	movs	r1, #1
.Ltmp606:
	strb.w	r1, [r4, #65]
.Ltmp607:
	@DEBUG_VALUE: HAL_QSPI_Abort:status <- $r0
	.loc	7 2211 3 is_stmt 1              @ ../Drivers/STM32H7xx_HAL_Driver/Src/stm32h7xx_hal_qspi.c:2211:3
	pop	{r4, pc}
.Ltmp608:
	.p2align	2
.LBB32_4:
	@DEBUG_VALUE: HAL_QSPI_Abort:status <- $r0
	.loc	7 2169 7                        @ ../Drivers/STM32H7xx_HAL_Driver/Src/stm32h7xx_hal_qspi.c:2169:7
	ldr	r0, [r1]
.Ltmp609:
	bic	r0, r0, #4
	str	r0, [r1]
	.loc	7 2172 38                       @ ../Drivers/STM32H7xx_HAL_Driver/Src/stm32h7xx_hal_qspi.c:2172:38
	ldr	r0, [r4, #60]
	.loc	7 2172 16 is_stmt 0             @ ../Drivers/STM32H7xx_HAL_Driver/Src/stm32h7xx_hal_qspi.c:2172:16
	bl	HAL_MDMA_Abort
.Ltmp610:
	@DEBUG_VALUE: HAL_QSPI_Abort:status <- $r0
	.loc	7 2173 10 is_stmt 1             @ ../Drivers/STM32H7xx_HAL_Driver/Src/stm32h7xx_hal_qspi.c:2173:10
	cbz	r0, .LBB32_6
.Ltmp611:
@ %bb.5:
	@DEBUG_VALUE: HAL_QSPI_Abort:status <- $r0
	.loc	7 2175 26                       @ ../Drivers/STM32H7xx_HAL_Driver/Src/stm32h7xx_hal_qspi.c:2175:26
	ldr	r1, [r4, #68]
	orr	r1, r1, #4
	str	r1, [r4, #68]
.Ltmp612:
	@DEBUG_VALUE: HAL_QSPI_Abort:status <- $r0
	.loc	7 2179 9                        @ ../Drivers/STM32H7xx_HAL_Driver/Src/stm32h7xx_hal_qspi.c:2179:9
	ldr	r1, [r4]
	ldr	r2, [r1, #8]
.Ltmp613:
	.loc	7 2179 9 is_stmt 0              @ ../Drivers/STM32H7xx_HAL_Driver/Src/stm32h7xx_hal_qspi.c:2179:9
	lsls	r2, r2, #26
	bpl	.LBB32_3
	b	.LBB32_7
.Ltmp614:
	.p2align	2
.LBB32_6:
	@DEBUG_VALUE: HAL_QSPI_Abort:status <- $r0
	.loc	7 0 9                           @ ../Drivers/STM32H7xx_HAL_Driver/Src/stm32h7xx_hal_qspi.c:0:9
	movs	r0, #0
.Ltmp615:
	@DEBUG_VALUE: HAL_QSPI_Abort:status <- $r0
	.loc	7 2179 9                        @ ../Drivers/STM32H7xx_HAL_Driver/Src/stm32h7xx_hal_qspi.c:2179:9
	ldr	r1, [r4]
	ldr	r2, [r1, #8]
.Ltmp616:
	.loc	7 2179 9                        @ ../Drivers/STM32H7xx_HAL_Driver/Src/stm32h7xx_hal_qspi.c:2179:9
	lsls	r2, r2, #26
	bpl	.LBB32_3
.Ltmp617:
.LBB32_7:
	@DEBUG_VALUE: HAL_QSPI_Abort:status <- $r0
	.loc	7 2182 7 is_stmt 1              @ ../Drivers/STM32H7xx_HAL_Driver/Src/stm32h7xx_hal_qspi.c:2182:7
	ldr	r0, [r1]
.Ltmp618:
	orr	r0, r0, #2
	str	r0, [r1]
	@DEBUG_VALUE: QSPI_WaitFlagStateUntilTimeout:Timeout <- undef
	@DEBUG_VALUE: QSPI_WaitFlagStateUntilTimeout:Tickstart <- undef
	@DEBUG_VALUE: QSPI_WaitFlagStateUntilTimeout:State <- 1
	@DEBUG_VALUE: QSPI_WaitFlagStateUntilTimeout:Flag <- 2
	@DEBUG_VALUE: QSPI_WaitFlagStateUntilTimeout:hqspi <- $r4
.LBB32_8:                               @ =>This Inner Loop Header: Depth=1
.Ltmp619:
	@DEBUG_VALUE: QSPI_WaitFlagStateUntilTimeout:hqspi <- $r4
	@DEBUG_VALUE: QSPI_WaitFlagStateUntilTimeout:Flag <- 2
	@DEBUG_VALUE: QSPI_WaitFlagStateUntilTimeout:State <- 1
	.loc	7 2482 10                       @ ../Drivers/STM32H7xx_HAL_Driver/Src/stm32h7xx_hal_qspi.c:2482:10
	ldr	r0, [r1, #8]
	.loc	7 2482 3 is_stmt 0              @ ../Drivers/STM32H7xx_HAL_Driver/Src/stm32h7xx_hal_qspi.c:2482:3
	lsls	r0, r0, #30
	bmi	.LBB32_11
.Ltmp620:
@ %bb.9:                                @   in Loop: Header=BB32_8 Depth=1
	@DEBUG_VALUE: QSPI_WaitFlagStateUntilTimeout:hqspi <- $r4
	@DEBUG_VALUE: QSPI_WaitFlagStateUntilTimeout:Flag <- 2
	@DEBUG_VALUE: QSPI_WaitFlagStateUntilTimeout:State <- 1
	.loc	7 2482 10                       @ ../Drivers/STM32H7xx_HAL_Driver/Src/stm32h7xx_hal_qspi.c:2482:10
	ldr	r0, [r1, #8]
	.loc	7 2482 3                        @ ../Drivers/STM32H7xx_HAL_Driver/Src/stm32h7xx_hal_qspi.c:2482:3
	lsls	r0, r0, #30
	.loc	7 2482 10                       @ ../Drivers/STM32H7xx_HAL_Driver/Src/stm32h7xx_hal_qspi.c:2482:10
	itt	pl
	ldrpl	r0, [r1, #8]
	.loc	7 2482 3                        @ ../Drivers/STM32H7xx_HAL_Driver/Src/stm32h7xx_hal_qspi.c:2482:3
	lslspl.w	r0, r0, #30
	bmi	.LBB32_11
.Ltmp621:
@ %bb.10:                               @   in Loop: Header=BB32_8 Depth=1
	@DEBUG_VALUE: QSPI_WaitFlagStateUntilTimeout:hqspi <- $r4
	@DEBUG_VALUE: QSPI_WaitFlagStateUntilTimeout:Flag <- 2
	@DEBUG_VALUE: QSPI_WaitFlagStateUntilTimeout:State <- 1
	.loc	7 2482 10                       @ ../Drivers/STM32H7xx_HAL_Driver/Src/stm32h7xx_hal_qspi.c:2482:10
	ldr	r0, [r1, #8]
	.loc	7 2482 3                        @ ../Drivers/STM32H7xx_HAL_Driver/Src/stm32h7xx_hal_qspi.c:2482:3
	lsls	r0, r0, #30
	bpl	.LBB32_8
.Ltmp622:
.LBB32_11:
	@DEBUG_VALUE: HAL_QSPI_Abort:status <- 0
	.loc	7 0 3                           @ ../Drivers/STM32H7xx_HAL_Driver/Src/stm32h7xx_hal_qspi.c:0:3
	movs	r0, #2
.Ltmp623:
	.loc	7 2189 9 is_stmt 1              @ ../Drivers/STM32H7xx_HAL_Driver/Src/stm32h7xx_hal_qspi.c:2189:9
	str	r0, [r1, #12]
	@DEBUG_VALUE: QSPI_WaitFlagStateUntilTimeout:Timeout <- undef
	@DEBUG_VALUE: QSPI_WaitFlagStateUntilTimeout:Tickstart <- undef
	@DEBUG_VALUE: QSPI_WaitFlagStateUntilTimeout:State <- 0
	@DEBUG_VALUE: QSPI_WaitFlagStateUntilTimeout:Flag <- 32
	@DEBUG_VALUE: QSPI_WaitFlagStateUntilTimeout:hqspi <- $r4
.Ltmp624:
.LBB32_12:                              @ =>This Inner Loop Header: Depth=1
	@DEBUG_VALUE: QSPI_WaitFlagStateUntilTimeout:hqspi <- $r4
	@DEBUG_VALUE: QSPI_WaitFlagStateUntilTimeout:Flag <- 32
	@DEBUG_VALUE: QSPI_WaitFlagStateUntilTimeout:State <- 0
	@DEBUG_VALUE: HAL_QSPI_Abort:status <- 0
	.loc	7 2482 10                       @ ../Drivers/STM32H7xx_HAL_Driver/Src/stm32h7xx_hal_qspi.c:2482:10
	ldr	r0, [r1, #8]
	.loc	7 2482 3 is_stmt 0              @ ../Drivers/STM32H7xx_HAL_Driver/Src/stm32h7xx_hal_qspi.c:2482:3
	lsls	r0, r0, #26
	bpl	.LBB32_15
.Ltmp625:
@ %bb.13:                               @   in Loop: Header=BB32_12 Depth=1
	@DEBUG_VALUE: QSPI_WaitFlagStateUntilTimeout:hqspi <- $r4
	@DEBUG_VALUE: QSPI_WaitFlagStateUntilTimeout:Flag <- 32
	@DEBUG_VALUE: QSPI_WaitFlagStateUntilTimeout:State <- 0
	@DEBUG_VALUE: HAL_QSPI_Abort:status <- 0
	.loc	7 2482 10                       @ ../Drivers/STM32H7xx_HAL_Driver/Src/stm32h7xx_hal_qspi.c:2482:10
	ldr	r0, [r1, #8]
	.loc	7 2482 3                        @ ../Drivers/STM32H7xx_HAL_Driver/Src/stm32h7xx_hal_qspi.c:2482:3
	lsls	r0, r0, #26
	.loc	7 2482 10                       @ ../Drivers/STM32H7xx_HAL_Driver/Src/stm32h7xx_hal_qspi.c:2482:10
	itt	mi
	ldrmi	r0, [r1, #8]
	.loc	7 2482 3                        @ ../Drivers/STM32H7xx_HAL_Driver/Src/stm32h7xx_hal_qspi.c:2482:3
	lslsmi.w	r0, r0, #26
	bpl	.LBB32_15
.Ltmp626:
@ %bb.14:                               @   in Loop: Header=BB32_12 Depth=1
	@DEBUG_VALUE: QSPI_WaitFlagStateUntilTimeout:hqspi <- $r4
	@DEBUG_VALUE: QSPI_WaitFlagStateUntilTimeout:Flag <- 32
	@DEBUG_VALUE: QSPI_WaitFlagStateUntilTimeout:State <- 0
	@DEBUG_VALUE: HAL_QSPI_Abort:status <- 0
	.loc	7 2482 10                       @ ../Drivers/STM32H7xx_HAL_Driver/Src/stm32h7xx_hal_qspi.c:2482:10
	ldr	r0, [r1, #8]
	.loc	7 2482 3                        @ ../Drivers/STM32H7xx_HAL_Driver/Src/stm32h7xx_hal_qspi.c:2482:3
	lsls	r0, r0, #26
	bmi	.LBB32_12
.Ltmp627:
.LBB32_15:
	@DEBUG_VALUE: HAL_QSPI_Abort:status <- 0
	@DEBUG_VALUE: HAL_QSPI_Abort:status <- 0
	.loc	7 2198 9 is_stmt 1              @ ../Drivers/STM32H7xx_HAL_Driver/Src/stm32h7xx_hal_qspi.c:2198:9
	ldr	r0, [r1, #20]
	bic	r0, r0, #201326592
	str	r0, [r1, #20]
	movs	r0, #0
	movs	r1, #1
.Ltmp628:
	.loc	7 0 0 is_stmt 0                 @ ../Drivers/STM32H7xx_HAL_Driver/Src/stm32h7xx_hal_qspi.c:0:0
	strb.w	r1, [r4, #65]
.Ltmp629:
	@DEBUG_VALUE: HAL_QSPI_Abort:status <- $r0
	.loc	7 2211 3 is_stmt 1              @ ../Drivers/STM32H7xx_HAL_Driver/Src/stm32h7xx_hal_qspi.c:2211:3
	pop	{r4, pc}
.Ltmp630:
.Lfunc_end32:
	.size	HAL_QSPI_Abort, .Lfunc_end32-HAL_QSPI_Abort
	.cfi_endproc
	.cantunwind
	.fnend
                                        @ -- End function
	.hidden	HAL_QSPI_Abort_IT               @ -- Begin function HAL_QSPI_Abort_IT
	.globl	HAL_QSPI_Abort_IT
	.p2align	3
	.type	HAL_QSPI_Abort_IT,%function
	.code	16                              @ @HAL_QSPI_Abort_IT
	.thumb_func
HAL_QSPI_Abort_IT:
.Lfunc_begin33:
	.loc	7 2220 0                        @ ../Drivers/STM32H7xx_HAL_Driver/Src/stm32h7xx_hal_qspi.c:2220:0
	.fnstart
	.cfi_startproc
@ %bb.0:
	@DEBUG_VALUE: HAL_QSPI_Abort_IT:hqspi <- $r0
	.save	{r4, lr}
	push	{r4, lr}
	.cfi_def_cfa_offset 8
	.cfi_offset lr, -4
	.cfi_offset r4, -8
	mov	r4, r0
.Ltmp631:
	@DEBUG_VALUE: HAL_QSPI_Abort_IT:status <- 0
	@DEBUG_VALUE: HAL_QSPI_Abort_IT:hqspi <- $r4
	.loc	7 2224 25 prologue_end          @ ../Drivers/STM32H7xx_HAL_Driver/Src/stm32h7xx_hal_qspi.c:2224:25
	ldrb.w	r0, [r0, #65]
.Ltmp632:
	.loc	7 2224 7 is_stmt 0              @ ../Drivers/STM32H7xx_HAL_Driver/Src/stm32h7xx_hal_qspi.c:2224:7
	lsls	r0, r0, #30
	bpl	.LBB33_4
.Ltmp633:
@ %bb.1:
	@DEBUG_VALUE: HAL_QSPI_Abort_IT:hqspi <- $r4
	@DEBUG_VALUE: HAL_QSPI_Abort_IT:status <- 0
	.loc	7 0 7                           @ ../Drivers/STM32H7xx_HAL_Driver/Src/stm32h7xx_hal_qspi.c:0:7
	movs	r0, #0
.Ltmp634:
	.loc	7 2227 5 is_stmt 1              @ ../Drivers/STM32H7xx_HAL_Driver/Src/stm32h7xx_hal_qspi.c:2227:5
	strb.w	r0, [r4, #64]
	movs	r0, #8
.Ltmp635:
	.loc	7 2230 18                       @ ../Drivers/STM32H7xx_HAL_Driver/Src/stm32h7xx_hal_qspi.c:2230:18
	strb.w	r0, [r4, #65]
	.loc	7 2233 5                        @ ../Drivers/STM32H7xx_HAL_Driver/Src/stm32h7xx_hal_qspi.c:2233:5
	ldr	r0, [r4]
	ldr	r1, [r0]
	bic	r1, r1, #2031616
	str	r1, [r0]
.Ltmp636:
	.loc	7 2235 27                       @ ../Drivers/STM32H7xx_HAL_Driver/Src/stm32h7xx_hal_qspi.c:2235:27
	ldr	r1, [r0]
.Ltmp637:
	.loc	7 2235 9 is_stmt 0              @ ../Drivers/STM32H7xx_HAL_Driver/Src/stm32h7xx_hal_qspi.c:2235:9
	lsls	r1, r1, #29
	bmi	.LBB33_5
.Ltmp638:
@ %bb.2:
	@DEBUG_VALUE: HAL_QSPI_Abort_IT:hqspi <- $r4
	@DEBUG_VALUE: HAL_QSPI_Abort_IT:status <- 0
	.loc	7 2258 11 is_stmt 1             @ ../Drivers/STM32H7xx_HAL_Driver/Src/stm32h7xx_hal_qspi.c:2258:11
	ldr	r1, [r0, #8]
.Ltmp639:
	.loc	7 2258 11 is_stmt 0             @ ../Drivers/STM32H7xx_HAL_Driver/Src/stm32h7xx_hal_qspi.c:2258:11
	lsls	r1, r1, #26
	bmi	.LBB33_7
.Ltmp640:
@ %bb.3:
	@DEBUG_VALUE: HAL_QSPI_Abort_IT:hqspi <- $r4
	@DEBUG_VALUE: HAL_QSPI_Abort_IT:status <- 0
	.loc	7 0 11                          @ ../Drivers/STM32H7xx_HAL_Driver/Src/stm32h7xx_hal_qspi.c:0:11
	movs	r0, #1
.Ltmp641:
	.loc	7 2272 22 is_stmt 1             @ ../Drivers/STM32H7xx_HAL_Driver/Src/stm32h7xx_hal_qspi.c:2272:22
	strb.w	r0, [r4, #65]
.Ltmp642:
.LBB33_4:
	@DEBUG_VALUE: HAL_QSPI_Abort_IT:hqspi <- $r4
	@DEBUG_VALUE: HAL_QSPI_Abort_IT:status <- 0
	.loc	7 2276 3                        @ ../Drivers/STM32H7xx_HAL_Driver/Src/stm32h7xx_hal_qspi.c:2276:3
	movs	r0, #0
	pop	{r4, pc}
.Ltmp643:
	.p2align	2
.LBB33_5:
	@DEBUG_VALUE: HAL_QSPI_Abort_IT:hqspi <- $r4
	@DEBUG_VALUE: HAL_QSPI_Abort_IT:status <- 0
	.loc	7 2239 7                        @ ../Drivers/STM32H7xx_HAL_Driver/Src/stm32h7xx_hal_qspi.c:2239:7
	ldr	r1, [r0]
	bic	r1, r1, #4
	str	r1, [r0]
	.loc	7 2242 14                       @ ../Drivers/STM32H7xx_HAL_Driver/Src/stm32h7xx_hal_qspi.c:2242:14
	ldr	r0, [r4, #60]
	.loc	7 2242 39 is_stmt 0             @ ../Drivers/STM32H7xx_HAL_Driver/Src/stm32h7xx_hal_qspi.c:2242:39
	movw	r1, :lower16:(QSPI_DMAAbortCplt-(.LPC33_0+4))
	movt	r1, :upper16:(QSPI_DMAAbortCplt-(.LPC33_0+4))
.LPC33_0:
	add	r1, pc
	str	r1, [r0, #88]
.Ltmp644:
	.loc	7 2243 11 is_stmt 1             @ ../Drivers/STM32H7xx_HAL_Driver/Src/stm32h7xx_hal_qspi.c:2243:11
	bl	HAL_MDMA_Abort_IT
.Ltmp645:
	.loc	7 2243 11 is_stmt 0             @ ../Drivers/STM32H7xx_HAL_Driver/Src/stm32h7xx_hal_qspi.c:2243:11
	cmp	r0, #0
	beq	.LBB33_4
.Ltmp646:
@ %bb.6:
	@DEBUG_VALUE: HAL_QSPI_Abort_IT:hqspi <- $r4
	@DEBUG_VALUE: HAL_QSPI_Abort_IT:status <- 0
	.loc	7 0 11                          @ ../Drivers/STM32H7xx_HAL_Driver/Src/stm32h7xx_hal_qspi.c:0:11
	movs	r0, #1
.Ltmp647:
	.loc	7 2246 22 is_stmt 1             @ ../Drivers/STM32H7xx_HAL_Driver/Src/stm32h7xx_hal_qspi.c:2246:22
	strb.w	r0, [r4, #65]
	.loc	7 2252 9                        @ ../Drivers/STM32H7xx_HAL_Driver/Src/stm32h7xx_hal_qspi.c:2252:9
	mov	r0, r4
	bl	HAL_QSPI_AbortCpltCallback
.Ltmp648:
	.loc	7 2276 3                        @ ../Drivers/STM32H7xx_HAL_Driver/Src/stm32h7xx_hal_qspi.c:2276:3
	movs	r0, #0
	pop	{r4, pc}
.Ltmp649:
	.p2align	2
.LBB33_7:
	@DEBUG_VALUE: HAL_QSPI_Abort_IT:hqspi <- $r4
	@DEBUG_VALUE: HAL_QSPI_Abort_IT:status <- 0
	.loc	7 0 3 is_stmt 0                 @ ../Drivers/STM32H7xx_HAL_Driver/Src/stm32h7xx_hal_qspi.c:0:3
	movs	r1, #2
.Ltmp650:
	.loc	7 2261 9 is_stmt 1              @ ../Drivers/STM32H7xx_HAL_Driver/Src/stm32h7xx_hal_qspi.c:2261:9
	str	r1, [r0, #12]
	.loc	7 2264 9                        @ ../Drivers/STM32H7xx_HAL_Driver/Src/stm32h7xx_hal_qspi.c:2264:9
	ldr	r1, [r0]
	orr	r1, r1, #131072
	str	r1, [r0]
	.loc	7 2267 9                        @ ../Drivers/STM32H7xx_HAL_Driver/Src/stm32h7xx_hal_qspi.c:2267:9
	ldr	r1, [r0]
	orr	r1, r1, #2
	str	r1, [r0]
.Ltmp651:
	.loc	7 2276 3                        @ ../Drivers/STM32H7xx_HAL_Driver/Src/stm32h7xx_hal_qspi.c:2276:3
	movs	r0, #0
	pop	{r4, pc}
.Ltmp652:
.Lfunc_end33:
	.size	HAL_QSPI_Abort_IT, .Lfunc_end33-HAL_QSPI_Abort_IT
	.cfi_endproc
	.cantunwind
	.fnend
                                        @ -- End function
	.hidden	HAL_QSPI_SetFifoThreshold       @ -- Begin function HAL_QSPI_SetFifoThreshold
	.globl	HAL_QSPI_SetFifoThreshold
	.p2align	3
	.type	HAL_QSPI_SetFifoThreshold,%function
	.code	16                              @ @HAL_QSPI_SetFifoThreshold
	.thumb_func
HAL_QSPI_SetFifoThreshold:
.Lfunc_begin34:
	.loc	7 2295 0                        @ ../Drivers/STM32H7xx_HAL_Driver/Src/stm32h7xx_hal_qspi.c:2295:0
	.fnstart
	.cfi_startproc
@ %bb.0:
	@DEBUG_VALUE: HAL_QSPI_SetFifoThreshold:hqspi <- $r0
	@DEBUG_VALUE: HAL_QSPI_SetFifoThreshold:Threshold <- $r1
	@DEBUG_VALUE: HAL_QSPI_SetFifoThreshold:status <- 0
	.loc	7 2299 3 prologue_end           @ ../Drivers/STM32H7xx_HAL_Driver/Src/stm32h7xx_hal_qspi.c:2299:3
	ldrb.w	r2, [r0, #64]
.Ltmp653:
	.loc	7 2299 3 is_stmt 0              @ ../Drivers/STM32H7xx_HAL_Driver/Src/stm32h7xx_hal_qspi.c:2299:3
	cmp	r2, #1
	bne	.LBB34_2
.Ltmp654:
@ %bb.1:
	@DEBUG_VALUE: HAL_QSPI_SetFifoThreshold:status <- 0
	@DEBUG_VALUE: HAL_QSPI_SetFifoThreshold:Threshold <- $r1
	@DEBUG_VALUE: HAL_QSPI_SetFifoThreshold:hqspi <- $r0
	.loc	7 0 3                           @ ../Drivers/STM32H7xx_HAL_Driver/Src/stm32h7xx_hal_qspi.c:0:3
	movs	r0, #2
.Ltmp655:
	@DEBUG_VALUE: HAL_QSPI_SetFifoThreshold:hqspi <- [DW_OP_LLVM_entry_value 1] $r0
	.loc	7 2320 1 is_stmt 1              @ ../Drivers/STM32H7xx_HAL_Driver/Src/stm32h7xx_hal_qspi.c:2320:1
	bx	lr
.Ltmp656:
	.p2align	2
.LBB34_2:
	@DEBUG_VALUE: HAL_QSPI_SetFifoThreshold:status <- 0
	@DEBUG_VALUE: HAL_QSPI_SetFifoThreshold:Threshold <- $r1
	@DEBUG_VALUE: HAL_QSPI_SetFifoThreshold:hqspi <- $r0
	.loc	7 0 1 is_stmt 0                 @ ../Drivers/STM32H7xx_HAL_Driver/Src/stm32h7xx_hal_qspi.c:0:1
	movs	r2, #1
.Ltmp657:
	.loc	7 2299 3 is_stmt 1              @ ../Drivers/STM32H7xx_HAL_Driver/Src/stm32h7xx_hal_qspi.c:2299:3
	strb.w	r2, [r0, #64]
.Ltmp658:
	.loc	7 2301 13                       @ ../Drivers/STM32H7xx_HAL_Driver/Src/stm32h7xx_hal_qspi.c:2301:13
	ldrb.w	r2, [r0, #65]
.Ltmp659:
	.loc	7 2301 6 is_stmt 0              @ ../Drivers/STM32H7xx_HAL_Driver/Src/stm32h7xx_hal_qspi.c:2301:6
	cmp	r2, #1
	bne	.LBB34_4
.Ltmp660:
@ %bb.3:
	@DEBUG_VALUE: HAL_QSPI_SetFifoThreshold:status <- 0
	@DEBUG_VALUE: HAL_QSPI_SetFifoThreshold:Threshold <- $r1
	@DEBUG_VALUE: HAL_QSPI_SetFifoThreshold:hqspi <- $r0
	.loc	7 2307 5 is_stmt 1              @ ../Drivers/STM32H7xx_HAL_Driver/Src/stm32h7xx_hal_qspi.c:2307:5
	ldr	r2, [r0]
	.loc	7 2304 31                       @ ../Drivers/STM32H7xx_HAL_Driver/Src/stm32h7xx_hal_qspi.c:2304:31
	str	r1, [r0, #8]
	mvn	r12, #255
	.loc	7 2307 5                        @ ../Drivers/STM32H7xx_HAL_Driver/Src/stm32h7xx_hal_qspi.c:2307:5
	ldr	r3, [r2]
	add.w	r1, r12, r1, lsl #8
.Ltmp661:
	@DEBUG_VALUE: HAL_QSPI_SetFifoThreshold:Threshold <- [DW_OP_LLVM_entry_value 1] $r1
	bic	r3, r3, #7936
	orrs	r1, r3
	str	r1, [r2]
	movs	r1, #0
.Ltmp662:
	@DEBUG_VALUE: HAL_QSPI_SetFifoThreshold:status <- $r1
	.loc	7 0 5 is_stmt 0                 @ ../Drivers/STM32H7xx_HAL_Driver/Src/stm32h7xx_hal_qspi.c:0:5
	movs	r2, #0
.Ltmp663:
	.loc	7 2316 3 is_stmt 1              @ ../Drivers/STM32H7xx_HAL_Driver/Src/stm32h7xx_hal_qspi.c:2316:3
	strb.w	r2, [r0, #64]
.Ltmp664:
	.loc	7 2320 1                        @ ../Drivers/STM32H7xx_HAL_Driver/Src/stm32h7xx_hal_qspi.c:2320:1
	mov	r0, r1
.Ltmp665:
	@DEBUG_VALUE: HAL_QSPI_SetFifoThreshold:hqspi <- [DW_OP_LLVM_entry_value 1] $r0
	bx	lr
.Ltmp666:
	.p2align	2
.LBB34_4:
	@DEBUG_VALUE: HAL_QSPI_SetFifoThreshold:status <- 0
	@DEBUG_VALUE: HAL_QSPI_SetFifoThreshold:Threshold <- $r1
	@DEBUG_VALUE: HAL_QSPI_SetFifoThreshold:hqspi <- $r0
	.loc	7 0 1 is_stmt 0                 @ ../Drivers/STM32H7xx_HAL_Driver/Src/stm32h7xx_hal_qspi.c:0:1
	movs	r1, #2
.Ltmp667:
	@DEBUG_VALUE: HAL_QSPI_SetFifoThreshold:Threshold <- [DW_OP_LLVM_entry_value 1] $r1
	@DEBUG_VALUE: HAL_QSPI_SetFifoThreshold:status <- $r1
	movs	r2, #0
.Ltmp668:
	.loc	7 2316 3 is_stmt 1              @ ../Drivers/STM32H7xx_HAL_Driver/Src/stm32h7xx_hal_qspi.c:2316:3
	strb.w	r2, [r0, #64]
.Ltmp669:
	.loc	7 2320 1                        @ ../Drivers/STM32H7xx_HAL_Driver/Src/stm32h7xx_hal_qspi.c:2320:1
	mov	r0, r1
.Ltmp670:
	@DEBUG_VALUE: HAL_QSPI_SetFifoThreshold:hqspi <- [DW_OP_LLVM_entry_value 1] $r0
	bx	lr
.Ltmp671:
.Lfunc_end34:
	.size	HAL_QSPI_SetFifoThreshold, .Lfunc_end34-HAL_QSPI_SetFifoThreshold
	.cfi_endproc
	.cantunwind
	.fnend
                                        @ -- End function
	.hidden	HAL_QSPI_GetFifoThreshold       @ -- Begin function HAL_QSPI_GetFifoThreshold
	.globl	HAL_QSPI_GetFifoThreshold
	.p2align	3
	.type	HAL_QSPI_GetFifoThreshold,%function
	.code	16                              @ @HAL_QSPI_GetFifoThreshold
	.thumb_func
HAL_QSPI_GetFifoThreshold:
.Lfunc_begin35:
	.loc	7 2327 0                        @ ../Drivers/STM32H7xx_HAL_Driver/Src/stm32h7xx_hal_qspi.c:2327:0
	.fnstart
	.cfi_startproc
@ %bb.0:
	@DEBUG_VALUE: HAL_QSPI_GetFifoThreshold:hqspi <- $r0
	.loc	7 2328 12 prologue_end          @ ../Drivers/STM32H7xx_HAL_Driver/Src/stm32h7xx_hal_qspi.c:2328:12
	ldr	r0, [r0]
.Ltmp672:
	@DEBUG_VALUE: HAL_QSPI_GetFifoThreshold:hqspi <- [DW_OP_LLVM_entry_value 1] $r0
	ldr	r0, [r0]
	.loc	7 2328 61 is_stmt 0             @ ../Drivers/STM32H7xx_HAL_Driver/Src/stm32h7xx_hal_qspi.c:2328:61
	ubfx	r0, r0, #8, #5
	.loc	7 2328 87                       @ ../Drivers/STM32H7xx_HAL_Driver/Src/stm32h7xx_hal_qspi.c:2328:87
	adds	r0, #1
	.loc	7 2328 3                        @ ../Drivers/STM32H7xx_HAL_Driver/Src/stm32h7xx_hal_qspi.c:2328:3
	bx	lr
.Ltmp673:
.Lfunc_end35:
	.size	HAL_QSPI_GetFifoThreshold, .Lfunc_end35-HAL_QSPI_GetFifoThreshold
	.cfi_endproc
	.cantunwind
	.fnend
                                        @ -- End function
	.hidden	HAL_QSPI_SetFlashID             @ -- Begin function HAL_QSPI_SetFlashID
	.globl	HAL_QSPI_SetFlashID
	.p2align	3
	.type	HAL_QSPI_SetFlashID,%function
	.code	16                              @ @HAL_QSPI_SetFlashID
	.thumb_func
HAL_QSPI_SetFlashID:
.Lfunc_begin36:
	.loc	7 2339 0 is_stmt 1              @ ../Drivers/STM32H7xx_HAL_Driver/Src/stm32h7xx_hal_qspi.c:2339:0
	.fnstart
	.cfi_startproc
@ %bb.0:
	@DEBUG_VALUE: HAL_QSPI_SetFlashID:hqspi <- $r0
	@DEBUG_VALUE: HAL_QSPI_SetFlashID:FlashID <- $r1
	@DEBUG_VALUE: HAL_QSPI_SetFlashID:status <- 0
	.loc	7 2346 3 prologue_end           @ ../Drivers/STM32H7xx_HAL_Driver/Src/stm32h7xx_hal_qspi.c:2346:3
	ldrb.w	r2, [r0, #64]
.Ltmp674:
	.loc	7 2346 3 is_stmt 0              @ ../Drivers/STM32H7xx_HAL_Driver/Src/stm32h7xx_hal_qspi.c:2346:3
	cmp	r2, #1
	bne	.LBB36_2
.Ltmp675:
@ %bb.1:
	@DEBUG_VALUE: HAL_QSPI_SetFlashID:status <- 0
	@DEBUG_VALUE: HAL_QSPI_SetFlashID:FlashID <- $r1
	@DEBUG_VALUE: HAL_QSPI_SetFlashID:hqspi <- $r0
	.loc	7 0 3                           @ ../Drivers/STM32H7xx_HAL_Driver/Src/stm32h7xx_hal_qspi.c:0:3
	movs	r0, #2
.Ltmp676:
	@DEBUG_VALUE: HAL_QSPI_SetFlashID:hqspi <- [DW_OP_LLVM_entry_value 1] $r0
	.loc	7 2366 1 is_stmt 1              @ ../Drivers/STM32H7xx_HAL_Driver/Src/stm32h7xx_hal_qspi.c:2366:1
	bx	lr
.Ltmp677:
	.p2align	2
.LBB36_2:
	@DEBUG_VALUE: HAL_QSPI_SetFlashID:status <- 0
	@DEBUG_VALUE: HAL_QSPI_SetFlashID:FlashID <- $r1
	@DEBUG_VALUE: HAL_QSPI_SetFlashID:hqspi <- $r0
	.loc	7 0 1 is_stmt 0                 @ ../Drivers/STM32H7xx_HAL_Driver/Src/stm32h7xx_hal_qspi.c:0:1
	movs	r2, #1
.Ltmp678:
	.loc	7 2346 3 is_stmt 1              @ ../Drivers/STM32H7xx_HAL_Driver/Src/stm32h7xx_hal_qspi.c:2346:3
	strb.w	r2, [r0, #64]
.Ltmp679:
	.loc	7 2348 13                       @ ../Drivers/STM32H7xx_HAL_Driver/Src/stm32h7xx_hal_qspi.c:2348:13
	ldrb.w	r2, [r0, #65]
.Ltmp680:
	.loc	7 2348 6 is_stmt 0              @ ../Drivers/STM32H7xx_HAL_Driver/Src/stm32h7xx_hal_qspi.c:2348:6
	cmp	r2, #1
	bne	.LBB36_4
.Ltmp681:
@ %bb.3:
	@DEBUG_VALUE: HAL_QSPI_SetFlashID:status <- 0
	@DEBUG_VALUE: HAL_QSPI_SetFlashID:FlashID <- $r1
	@DEBUG_VALUE: HAL_QSPI_SetFlashID:hqspi <- $r0
	.loc	7 2354 5 is_stmt 1              @ ../Drivers/STM32H7xx_HAL_Driver/Src/stm32h7xx_hal_qspi.c:2354:5
	ldr	r2, [r0]
	.loc	7 2351 25                       @ ../Drivers/STM32H7xx_HAL_Driver/Src/stm32h7xx_hal_qspi.c:2351:25
	str	r1, [r0, #28]
	.loc	7 2354 5                        @ ../Drivers/STM32H7xx_HAL_Driver/Src/stm32h7xx_hal_qspi.c:2354:5
	ldr	r3, [r2]
	bic	r3, r3, #128
	orrs	r1, r3
.Ltmp682:
	@DEBUG_VALUE: HAL_QSPI_SetFlashID:FlashID <- [DW_OP_LLVM_entry_value 1] $r1
	str	r1, [r2]
	movs	r1, #0
.Ltmp683:
	@DEBUG_VALUE: HAL_QSPI_SetFlashID:status <- $r1
	.loc	7 0 5 is_stmt 0                 @ ../Drivers/STM32H7xx_HAL_Driver/Src/stm32h7xx_hal_qspi.c:0:5
	movs	r2, #0
.Ltmp684:
	.loc	7 2362 3 is_stmt 1              @ ../Drivers/STM32H7xx_HAL_Driver/Src/stm32h7xx_hal_qspi.c:2362:3
	strb.w	r2, [r0, #64]
.Ltmp685:
	.loc	7 2366 1                        @ ../Drivers/STM32H7xx_HAL_Driver/Src/stm32h7xx_hal_qspi.c:2366:1
	mov	r0, r1
.Ltmp686:
	@DEBUG_VALUE: HAL_QSPI_SetFlashID:hqspi <- [DW_OP_LLVM_entry_value 1] $r0
	bx	lr
.Ltmp687:
	.p2align	2
.LBB36_4:
	@DEBUG_VALUE: HAL_QSPI_SetFlashID:status <- 0
	@DEBUG_VALUE: HAL_QSPI_SetFlashID:FlashID <- $r1
	@DEBUG_VALUE: HAL_QSPI_SetFlashID:hqspi <- $r0
	.loc	7 0 1 is_stmt 0                 @ ../Drivers/STM32H7xx_HAL_Driver/Src/stm32h7xx_hal_qspi.c:0:1
	movs	r1, #2
.Ltmp688:
	@DEBUG_VALUE: HAL_QSPI_SetFlashID:FlashID <- [DW_OP_LLVM_entry_value 1] $r1
	@DEBUG_VALUE: HAL_QSPI_SetFlashID:status <- $r1
	movs	r2, #0
.Ltmp689:
	.loc	7 2362 3 is_stmt 1              @ ../Drivers/STM32H7xx_HAL_Driver/Src/stm32h7xx_hal_qspi.c:2362:3
	strb.w	r2, [r0, #64]
.Ltmp690:
	.loc	7 2366 1                        @ ../Drivers/STM32H7xx_HAL_Driver/Src/stm32h7xx_hal_qspi.c:2366:1
	mov	r0, r1
.Ltmp691:
	@DEBUG_VALUE: HAL_QSPI_SetFlashID:hqspi <- [DW_OP_LLVM_entry_value 1] $r0
	bx	lr
.Ltmp692:
.Lfunc_end36:
	.size	HAL_QSPI_SetFlashID, .Lfunc_end36-HAL_QSPI_SetFlashID
	.cfi_endproc
	.cantunwind
	.fnend
                                        @ -- End function
	.section	".note.GNU-stack","",%progbits
	.eabi_attribute	30, 2	@ Tag_ABI_optimization_goals
	.ARM_attribute	16, 1	@ Tag_AV_eba