	.text
	.syntax unified
	.eabi_attribute	67, "2.09"	@ Tag_conformance
	.cpu	cortex-m7
	.eabi_attribute	6, 13	@ Tag_CPU_arch
	.eabi_attribute	7, 77	@ Tag_CPU_arch_profile
	.eabi_attribute	8, 0	@ Tag_ARM_ISA_use
	.eabi_attribute	9, 2	@ Tag_THUMB_ISA_use
	.fpu	fpv5-d16
	.eabi_attribute	36, 1	@ Tag_FP_HP_extension
	.eabi_attribute	34, 1	@ Tag_CPU_unaligned_access
	.eabi_attribute	15, 2	@ Tag_ABI_PCS_RW_data
	.eabi_attribute	16, 1	@ Tag_ABI_PCS_RO_data
	.eabi_attribute	17, 1	@ Tag_ABI_PCS_GOT_use
	.eabi_attribute	20, 2	@ Tag_ABI_FP_denormal
	.eabi_attribute	21, 0	@ Tag_ABI_FP_exceptions
	.eabi_attribute	23, 1	@ Tag_ABI_FP_number_model
	.eabi_attribute	24, 1	@ Tag_ABI_align_needed
	.eabi_attribute	25, 1	@ Tag_ABI_align_preserved
	.eabi_attribute	28, 1	@ Tag_ABI_VFP_args
	.eabi_attribute	38, 1	@ Tag_ABI_FP_16bit_format
	.eabi_attribute	18, 2	@ Tag_ABI_PCS_wchar_t
	.eabi_attribute	26, 1	@ Tag_ABI_enum_size
	.eabi_attribute	14, 1	@ Tag_ABI_PCS_R9_use
	.file	"stm32h7xx_hal_flash_ex.c"
	.file	1 "F:\\3.git\\1.Github\\ExFlash_Algorithm\\embedfire\\Algorithm_QSPI\\STLDR\\MDK-ARM" "../Drivers/STM32H7xx_HAL_Driver/Inc/stm32h7xx_hal_def.h"
	.file	2 "F:\\3.git\\1.Github\\ExFlash_Algorithm\\embedfire\\Algorithm_QSPI\\STLDR\\MDK-ARM" "../Drivers/STM32H7xx_HAL_Driver/Inc\\stm32h7xx_hal_flash.h"
	.file	3 "D:\\Program\\Keil\\Keil_v5\\ARM\\ARMCLANG\\Bin\\..\\include" "stdint.h"
	.file	4 "F:\\3.git\\1.Github\\ExFlash_Algorithm\\embedfire\\Algorithm_QSPI\\STLDR\\MDK-ARM" "../Drivers/CMSIS/Device/ST/STM32H7xx/Include/stm32h750xx.h"
	.hidden	HAL_FLASHEx_Erase               @ -- Begin function HAL_FLASHEx_Erase
	.globl	HAL_FLASHEx_Erase
	.p2align	3
	.type	HAL_FLASHEx_Erase,%function
	.code	16                              @ @HAL_FLASHEx_Erase
	.thumb_func
HAL_FLASHEx_Erase:
.Lfunc_begin0:
	.file	5 "F:\\3.git\\1.Github\\ExFlash_Algorithm\\embedfire\\Algorithm_QSPI\\STLDR\\MDK-ARM" "../Drivers/STM32H7xx_HAL_Driver/Src/stm32h7xx_hal_flash_ex.c"
	.loc	5 177 0                         @ ../Drivers/STM32H7xx_HAL_Driver/Src/stm32h7xx_hal_flash_ex.c:177:0
	.fnstart
	.cfi_sections .debug_frame
	.cfi_startproc
@ %bb.0:
	@DEBUG_VALUE: HAL_FLASHEx_Erase:pEraseInit <- $r0
	@DEBUG_VALUE: HAL_FLASHEx_Erase:SectorError <- $r1
	.save	{r4, r5, r6, r7, r8, r10, r11, lr}
	push.w	{r4, r5, r6, r7, r8, r10, r11, lr}
	.cfi_def_cfa_offset 32
	.cfi_offset lr, -4
	.cfi_offset r11, -8
	.cfi_offset r10, -12
	.cfi_offset r8, -16
	.cfi_offset r7, -20
	.cfi_offset r6, -24
	.cfi_offset r5, -28
	.cfi_offset r4, -32
.Ltmp0:
	.loc	5 186 3 prologue_end            @ ../Drivers/STM32H7xx_HAL_Driver/Src/stm32h7xx_hal_flash_ex.c:186:3
	movw	r8, :lower16:pFlash(sbrel)
	movt	r8, :upper16:pFlash(sbrel)
	add.w	r2, r9, r8
	ldrb	r2, [r2, #20]
.Ltmp1:
	.loc	5 186 3 is_stmt 0               @ ../Drivers/STM32H7xx_HAL_Driver/Src/stm32h7xx_hal_flash_ex.c:186:3
	cmp	r2, #1
	@DEBUG_VALUE: HAL_FLASHEx_Erase:SectorError <- $r1
.Ltmp2:
	@DEBUG_VALUE: HAL_FLASHEx_Erase:status <- 0
	@DEBUG_VALUE: HAL_FLASHEx_Erase:pEraseInit <- $r0
	bne	.LBB0_2
.Ltmp3:
@ %bb.1:
	@DEBUG_VALUE: HAL_FLASHEx_Erase:status <- 0
	@DEBUG_VALUE: HAL_FLASHEx_Erase:SectorError <- $r1
	@DEBUG_VALUE: HAL_FLASHEx_Erase:pEraseInit <- $r0
	.loc	5 0 3                           @ ../Drivers/STM32H7xx_HAL_Driver/Src/stm32h7xx_hal_flash_ex.c:0:3
	movs	r0, #2
.Ltmp4:
	.loc	5 284 1 is_stmt 1               @ ../Drivers/STM32H7xx_HAL_Driver/Src/stm32h7xx_hal_flash_ex.c:284:1
	pop.w	{r4, r5, r6, r7, r8, r10, r11, pc}
.Ltmp5:
	.p2align	2
.LBB0_2:
	@DEBUG_VALUE: HAL_FLASHEx_Erase:status <- 0
	@DEBUG_VALUE: HAL_FLASHEx_Erase:SectorError <- $r1
	@DEBUG_VALUE: HAL_FLASHEx_Erase:pEraseInit <- $r0
	.loc	5 0 1 is_stmt 0                 @ ../Drivers/STM32H7xx_HAL_Driver/Src/stm32h7xx_hal_flash_ex.c:0:1
	mov	r4, r0
.Ltmp6:
	@DEBUG_VALUE: HAL_FLASHEx_Erase:pEraseInit <- $r4
	@DEBUG_VALUE: HAL_FLASHEx_Erase:pEraseInit <- $r4
	.loc	5 186 3 is_stmt 1               @ ../Drivers/STM32H7xx_HAL_Driver/Src/stm32h7xx_hal_flash_ex.c:186:3
	add.w	r0, r9, r8
	mov	r10, r1
.Ltmp7:
	@DEBUG_VALUE: HAL_FLASHEx_Erase:SectorError <- $r10
	@DEBUG_VALUE: HAL_FLASHEx_Erase:SectorError <- $r10
	.loc	5 0 3 is_stmt 0                 @ ../Drivers/STM32H7xx_HAL_Driver/Src/stm32h7xx_hal_flash_ex.c:0:3
	movs	r1, #1
	.loc	5 186 3                         @ ../Drivers/STM32H7xx_HAL_Driver/Src/stm32h7xx_hal_flash_ex.c:186:3
	strb	r1, [r0, #20]
	movs	r1, #0
.Ltmp8:
	.loc	5 189 20 is_stmt 1              @ ../Drivers/STM32H7xx_HAL_Driver/Src/stm32h7xx_hal_flash_ex.c:189:20
	str	r1, [r0, #24]
	.loc	5 192 6                         @ ../Drivers/STM32H7xx_HAL_Driver/Src/stm32h7xx_hal_flash_ex.c:192:6
	ldrb	r0, [r4, #4]
	lsls	r0, r0, #31
	beq	.LBB0_4
.Ltmp9:
@ %bb.3:
	@DEBUG_VALUE: HAL_FLASHEx_Erase:SectorError <- $r10
	@DEBUG_VALUE: HAL_FLASHEx_Erase:pEraseInit <- $r4
	@DEBUG_VALUE: HAL_FLASHEx_Erase:status <- 0
	.loc	5 194 8                         @ ../Drivers/STM32H7xx_HAL_Driver/Src/stm32h7xx_hal_flash_ex.c:194:8
	movw	r0, #50000
	movs	r1, #1
	movs	r6, #1
	bl	FLASH_WaitForLastOperation
.Ltmp10:
	@DEBUG_VALUE: HAL_FLASHEx_Erase:status <- undef
	.loc	5 211 6                         @ ../Drivers/STM32H7xx_HAL_Driver/Src/stm32h7xx_hal_flash_ex.c:211:6
	cmp	r0, #0
	bne	.LBB0_14
.Ltmp11:
.LBB0_4:
	@DEBUG_VALUE: HAL_FLASHEx_Erase:SectorError <- $r10
	@DEBUG_VALUE: HAL_FLASHEx_Erase:pEraseInit <- $r4
	.loc	5 213 20                        @ ../Drivers/STM32H7xx_HAL_Driver/Src/stm32h7xx_hal_flash_ex.c:213:20
	ldr	r0, [r4]
.Ltmp12:
	.loc	5 213 8 is_stmt 0               @ ../Drivers/STM32H7xx_HAL_Driver/Src/stm32h7xx_hal_flash_ex.c:213:8
	cmp	r0, #1
	bne	.LBB0_7
.Ltmp13:
@ %bb.5:
	@DEBUG_VALUE: HAL_FLASHEx_Erase:SectorError <- $r10
	@DEBUG_VALUE: HAL_FLASHEx_Erase:pEraseInit <- $r4
	@DEBUG_VALUE: FLASH_MassErase:VoltageRange <- undef
	@DEBUG_VALUE: FLASH_MassErase:Banks <- undef
	.loc	5 879 8 is_stmt 1               @ ../Drivers/STM32H7xx_HAL_Driver/Src/stm32h7xx_hal_flash_ex.c:879:8
	ldrb	r0, [r4, #4]
	lsls	r0, r0, #31
	beq	.LBB0_13
.Ltmp14:
@ %bb.6:
	@DEBUG_VALUE: HAL_FLASHEx_Erase:SectorError <- $r10
	@DEBUG_VALUE: HAL_FLASHEx_Erase:pEraseInit <- $r4
	.loc	5 0 8 is_stmt 0                 @ ../Drivers/STM32H7xx_HAL_Driver/Src/stm32h7xx_hal_flash_ex.c:0:8
	movw	r5, #8204
	.loc	5 216 35 is_stmt 1              @ ../Drivers/STM32H7xx_HAL_Driver/Src/stm32h7xx_hal_flash_ex.c:216:35
	ldr	r0, [r4, #16]
.Ltmp15:
	@DEBUG_VALUE: FLASH_MassErase:VoltageRange <- $r0
	.loc	5 0 35 is_stmt 0                @ ../Drivers/STM32H7xx_HAL_Driver/Src/stm32h7xx_hal_flash_ex.c:0:35
	movt	r5, #20992
.Ltmp16:
	.loc	5 883 18 is_stmt 1              @ ../Drivers/STM32H7xx_HAL_Driver/Src/stm32h7xx_hal_flash_ex.c:883:18
	ldr	r1, [r5]
	bic	r1, r1, #48
	str	r1, [r5]
	.loc	5 884 18                        @ ../Drivers/STM32H7xx_HAL_Driver/Src/stm32h7xx_hal_flash_ex.c:884:18
	ldr	r1, [r5]
	orrs	r0, r1
.Ltmp17:
	str	r0, [r5]
	.loc	5 888 18                        @ ../Drivers/STM32H7xx_HAL_Driver/Src/stm32h7xx_hal_flash_ex.c:888:18
	ldr	r0, [r5]
.Ltmp18:
	.loc	5 221 12                        @ ../Drivers/STM32H7xx_HAL_Driver/Src/stm32h7xx_hal_flash_ex.c:221:12
	movs	r1, #1
.Ltmp19:
	.loc	5 888 18                        @ ../Drivers/STM32H7xx_HAL_Driver/Src/stm32h7xx_hal_flash_ex.c:888:18
	orr	r0, r0, #136
	str	r0, [r5]
.Ltmp20:
	.loc	5 221 12                        @ ../Drivers/STM32H7xx_HAL_Driver/Src/stm32h7xx_hal_flash_ex.c:221:12
	movw	r0, #50000
	bl	FLASH_WaitForLastOperation
.Ltmp21:
	mov	r6, r0
	.loc	5 221 84 is_stmt 0              @ ../Drivers/STM32H7xx_HAL_Driver/Src/stm32h7xx_hal_flash_ex.c:221:84
	cmp	r0, #0
	it	ne
	movne	r6, #1
.Ltmp22:
	@DEBUG_VALUE: HAL_FLASHEx_Erase:status <- undef
	.loc	5 226 20 is_stmt 1              @ ../Drivers/STM32H7xx_HAL_Driver/Src/stm32h7xx_hal_flash_ex.c:226:20
	ldr	r0, [r5]
	bic	r0, r0, #8
	str	r0, [r5]
	b	.LBB0_14
.Ltmp23:
	.p2align	2
.LBB0_7:
	@DEBUG_VALUE: HAL_FLASHEx_Erase:SectorError <- $r10
	@DEBUG_VALUE: HAL_FLASHEx_Erase:pEraseInit <- $r4
	.loc	5 0 20 is_stmt 0                @ ../Drivers/STM32H7xx_HAL_Driver/Src/stm32h7xx_hal_flash_ex.c:0:20
	mov.w	r0, #-1
.Ltmp24:
	.loc	5 244 20 is_stmt 1              @ ../Drivers/STM32H7xx_HAL_Driver/Src/stm32h7xx_hal_flash_ex.c:244:20
	str.w	r0, [r10]
.Ltmp25:
	@DEBUG_VALUE: HAL_FLASHEx_Erase:sector_index <- undef
	@DEBUG_VALUE: HAL_FLASHEx_Erase:status <- 0
	.loc	5 247 38                        @ ../Drivers/STM32H7xx_HAL_Driver/Src/stm32h7xx_hal_flash_ex.c:247:38
	ldrd	r7, r0, [r4, #8]
.Ltmp26:
	.loc	5 247 84 is_stmt 0              @ ../Drivers/STM32H7xx_HAL_Driver/Src/stm32h7xx_hal_flash_ex.c:247:84
	add	r0, r7
.Ltmp27:
	.loc	5 247 7                         @ ../Drivers/STM32H7xx_HAL_Driver/Src/stm32h7xx_hal_flash_ex.c:247:7
	cmp	r7, r0
	bhs	.LBB0_13
.Ltmp28:
@ %bb.8:
	@DEBUG_VALUE: HAL_FLASHEx_Erase:SectorError <- $r10
	@DEBUG_VALUE: HAL_FLASHEx_Erase:pEraseInit <- $r4
	@DEBUG_VALUE: HAL_FLASHEx_Erase:status <- 0
	.loc	5 0 7                           @ ../Drivers/STM32H7xx_HAL_Driver/Src/stm32h7xx_hal_flash_ex.c:0:7
	movw	r11, #8204
	.loc	5 247 7                         @ ../Drivers/STM32H7xx_HAL_Driver/Src/stm32h7xx_hal_flash_ex.c:247:7
	lsls	r5, r7, #8
	movt	r11, #20992
	b	.LBB0_10
.Ltmp29:
	.p2align	2
.LBB0_9:                                @   in Loop: Header=BB0_10 Depth=1
	@DEBUG_VALUE: HAL_FLASHEx_Erase:sector_index <- $r7
	@DEBUG_VALUE: HAL_FLASHEx_Erase:SectorError <- $r10
	@DEBUG_VALUE: HAL_FLASHEx_Erase:pEraseInit <- $r4
	.loc	5 247 98                        @ ../Drivers/STM32H7xx_HAL_Driver/Src/stm32h7xx_hal_flash_ex.c:247:98
	ldrd	r0, r1, [r4, #8]
	.loc	5 247 119                       @ ../Drivers/STM32H7xx_HAL_Driver/Src/stm32h7xx_hal_flash_ex.c:247:119
	adds	r7, #1
.Ltmp30:
	@DEBUG_VALUE: HAL_FLASHEx_Erase:sector_index <- $r7
	@DEBUG_VALUE: HAL_FLASHEx_Erase:status <- 0
	.loc	5 247 84                        @ ../Drivers/STM32H7xx_HAL_Driver/Src/stm32h7xx_hal_flash_ex.c:247:84
	add	r0, r1
.Ltmp31:
	.loc	5 247 7                         @ ../Drivers/STM32H7xx_HAL_Driver/Src/stm32h7xx_hal_flash_ex.c:247:7
	cmp	r7, r0
.Ltmp32:
	.loc	5 247 59                        @ ../Drivers/STM32H7xx_HAL_Driver/Src/stm32h7xx_hal_flash_ex.c:247:59
	add.w	r5, r5, #256
.Ltmp33:
	.loc	5 247 7                         @ ../Drivers/STM32H7xx_HAL_Driver/Src/stm32h7xx_hal_flash_ex.c:247:7
	bhs	.LBB0_13
.Ltmp34:
.LBB0_10:                               @ =>This Inner Loop Header: Depth=1
	@DEBUG_VALUE: HAL_FLASHEx_Erase:SectorError <- $r10
	@DEBUG_VALUE: HAL_FLASHEx_Erase:pEraseInit <- $r4
	@DEBUG_VALUE: HAL_FLASHEx_Erase:status <- 0
	@DEBUG_VALUE: HAL_FLASHEx_Erase:sector_index <- $r7
	@DEBUG_VALUE: FLASH_Erase_Sector:Sector <- $r7
	@DEBUG_VALUE: FLASH_Erase_Sector:Banks <- undef
	@DEBUG_VALUE: FLASH_Erase_Sector:VoltageRange <- undef
	.loc	5 935 6 is_stmt 1               @ ../Drivers/STM32H7xx_HAL_Driver/Src/stm32h7xx_hal_flash_ex.c:935:6
	ldrb	r0, [r4, #4]
	lsls	r0, r0, #31
	beq	.LBB0_9
.Ltmp35:
@ %bb.11:                               @   in Loop: Header=BB0_10 Depth=1
	@DEBUG_VALUE: FLASH_Erase_Sector:Sector <- $r7
	@DEBUG_VALUE: HAL_FLASHEx_Erase:sector_index <- $r7
	@DEBUG_VALUE: HAL_FLASHEx_Erase:SectorError <- $r10
	@DEBUG_VALUE: HAL_FLASHEx_Erase:pEraseInit <- $r4
	@DEBUG_VALUE: HAL_FLASHEx_Erase:status <- 0
	.loc	5 249 73                        @ ../Drivers/STM32H7xx_HAL_Driver/Src/stm32h7xx_hal_flash_ex.c:249:73
	ldr	r0, [r4, #16]
.Ltmp36:
	@DEBUG_VALUE: FLASH_Erase_Sector:VoltageRange <- $r0
	.loc	5 939 16                        @ ../Drivers/STM32H7xx_HAL_Driver/Src/stm32h7xx_hal_flash_ex.c:939:16
	ldr.w	r1, [r11]
	bic	r1, r1, #1840
	str.w	r1, [r11]
	.loc	5 941 16                        @ ../Drivers/STM32H7xx_HAL_Driver/Src/stm32h7xx_hal_flash_ex.c:941:16
	ldr.w	r1, [r11]
	orrs	r0, r5
.Ltmp37:
	orrs	r0, r1
.Ltmp38:
	.loc	5 254 20                        @ ../Drivers/STM32H7xx_HAL_Driver/Src/stm32h7xx_hal_flash_ex.c:254:20
	movs	r1, #1
.Ltmp39:
	.loc	5 941 16                        @ ../Drivers/STM32H7xx_HAL_Driver/Src/stm32h7xx_hal_flash_ex.c:941:16
	orr	r0, r0, #132
	str.w	r0, [r11]
.Ltmp40:
	.loc	5 254 20                        @ ../Drivers/STM32H7xx_HAL_Driver/Src/stm32h7xx_hal_flash_ex.c:254:20
	movw	r0, #50000
	bl	FLASH_WaitForLastOperation
.Ltmp41:
	mov	r6, r0
.Ltmp42:
	@DEBUG_VALUE: HAL_FLASHEx_Erase:status <- $r6
	.loc	5 257 22                        @ ../Drivers/STM32H7xx_HAL_Driver/Src/stm32h7xx_hal_flash_ex.c:257:22
	ldr.w	r0, [r11]
.Ltmp43:
	.loc	5 270 12                        @ ../Drivers/STM32H7xx_HAL_Driver/Src/stm32h7xx_hal_flash_ex.c:270:12
	cmp	r6, #0
.Ltmp44:
	.loc	5 257 22                        @ ../Drivers/STM32H7xx_HAL_Driver/Src/stm32h7xx_hal_flash_ex.c:257:22
	movw	r1, #1796
	bic.w	r0, r0, r1
	str.w	r0, [r11]
.Ltmp45:
	.loc	5 270 12                        @ ../Drivers/STM32H7xx_HAL_Driver/Src/stm32h7xx_hal_flash_ex.c:270:12
	beq	.LBB0_9
.Ltmp46:
@ %bb.12:
	@DEBUG_VALUE: HAL_FLASHEx_Erase:status <- $r6
	@DEBUG_VALUE: HAL_FLASHEx_Erase:sector_index <- $r7
	@DEBUG_VALUE: HAL_FLASHEx_Erase:SectorError <- $r10
	@DEBUG_VALUE: HAL_FLASHEx_Erase:pEraseInit <- $r4
	.loc	5 273 24                        @ ../Drivers/STM32H7xx_HAL_Driver/Src/stm32h7xx_hal_flash_ex.c:273:24
	str.w	r7, [r10]
	b	.LBB0_14
.Ltmp47:
	.p2align	2
.LBB0_13:
	@DEBUG_VALUE: HAL_FLASHEx_Erase:SectorError <- $r10
	@DEBUG_VALUE: HAL_FLASHEx_Erase:pEraseInit <- $r4
	.loc	5 0 24 is_stmt 0                @ ../Drivers/STM32H7xx_HAL_Driver/Src/stm32h7xx_hal_flash_ex.c:0:24
	movs	r6, #0
.Ltmp48:
.LBB0_14:
	@DEBUG_VALUE: HAL_FLASHEx_Erase:SectorError <- $r10
	@DEBUG_VALUE: HAL_FLASHEx_Erase:pEraseInit <- $r4
	@DEBUG_VALUE: HAL_FLASHEx_Erase:status <- $r6
	.loc	5 281 3 is_stmt 1               @ ../Drivers/STM32H7xx_HAL_Driver/Src/stm32h7xx_hal_flash_ex.c:281:3
	add.w	r0, r9, r8
	movs	r1, #0
	strb	r1, [r0, #20]
.Ltmp49:
	.loc	5 284 1                         @ ../Drivers/STM32H7xx_HAL_Driver/Src/stm32h7xx_hal_flash_ex.c:284:1
	mov	r0, r6
	pop.w	{r4, r5, r6, r7, r8, r10, r11, pc}
.Ltmp50:
.Lfunc_end0:
	.size	HAL_FLASHEx_Erase, .Lfunc_end0-HAL_FLASHEx_Erase
	.cfi_endproc
	.cantunwind
	.fnend
                                        @ -- End function
	.hidden	FLASH_Erase_Sector              @ -- Begin function FLASH_Erase_Sector
	.globl	FLASH_Erase_Sector
	.p2align	3
	.type	FLASH_Erase_Sector,%function
	.code	16                              @ @FLASH_Erase_Sector
	.thumb_func
FLASH_Erase_Sector:
.Lfunc_begin1:
	.loc	5 926 0                         @ ../Drivers/STM32H7xx_HAL_Driver/Src/stm32h7xx_hal_flash_ex.c:926:0
	.fnstart
	.cfi_startproc
@ %bb.0:
	@DEBUG_VALUE: FLASH_Erase_Sector:Sector <- $r0
	@DEBUG_VALUE: FLASH_Erase_Sector:Banks <- $r1
	@DEBUG_VALUE: FLASH_Erase_Sector:VoltageRange <- $r2
	.loc	5 935 6 prologue_end            @ ../Drivers/STM32H7xx_HAL_Driver/Src/stm32h7xx_hal_flash_ex.c:935:6
	lsls	r1, r1, #31
.Ltmp51:
	@DEBUG_VALUE: FLASH_Erase_Sector:Banks <- [DW_OP_LLVM_entry_value 1] $r1
	.loc	5 966 1                         @ ../Drivers/STM32H7xx_HAL_Driver/Src/stm32h7xx_hal_flash_ex.c:966:1
	it	eq
	bxeq	lr
.Ltmp52:
.LBB1_1:
	@DEBUG_VALUE: FLASH_Erase_Sector:Banks <- [DW_OP_LLVM_entry_value 1] $r1
	@DEBUG_VALUE: FLASH_Erase_Sector:VoltageRange <- $r2
	@DEBUG_VALUE: FLASH_Erase_Sector:Sector <- $r0
	.loc	5 0 1 is_stmt 0                 @ ../Drivers/STM32H7xx_HAL_Driver/Src/stm32h7xx_hal_flash_ex.c:0:1
	movw	r1, #8204
.Ltmp53:
	.loc	5 941 79 is_stmt 1              @ ../Drivers/STM32H7xx_HAL_Driver/Src/stm32h7xx_hal_flash_ex.c:941:79
	orr.w	r0, r2, r0, lsl #8
.Ltmp54:
	@DEBUG_VALUE: FLASH_Erase_Sector:Sector <- [DW_OP_LLVM_entry_value 1] $r0
	.loc	5 0 79 is_stmt 0                @ ../Drivers/STM32H7xx_HAL_Driver/Src/stm32h7xx_hal_flash_ex.c:0:79
	movt	r1, #20992
	.loc	5 939 16 is_stmt 1              @ ../Drivers/STM32H7xx_HAL_Driver/Src/stm32h7xx_hal_flash_ex.c:939:16
	ldr	r3, [r1]
	bic	r3, r3, #1840
	str	r3, [r1]
	.loc	5 941 16                        @ ../Drivers/STM32H7xx_HAL_Driver/Src/stm32h7xx_hal_flash_ex.c:941:16
	ldr	r3, [r1]
	orrs	r0, r3
	orr	r0, r0, #132
	str	r0, [r1]
.Ltmp55:
	.loc	5 966 1                         @ ../Drivers/STM32H7xx_HAL_Driver/Src/stm32h7xx_hal_flash_ex.c:966:1
	bx	lr
.Ltmp56:
.Lfunc_end1:
	.size	FLASH_Erase_Sector, .Lfunc_end1-FLASH_Erase_Sector
	.cfi_endproc
	.cantunwind
	.fnend
                                        @ -- End function
	.hidden	HAL_FLASHEx_Erase_IT            @ -- Begin function HAL_FLASHEx_Erase_IT
	.globl	HAL_FLASHEx_Erase_IT
	.p2align	3
	.type	HAL_FLASHEx_Erase_IT,%function
	.code	16                              @ @HAL_FLASHEx_Erase_IT
	.thumb_func
HAL_FLASHEx_Erase_IT:
.Lfunc_begin2:
	.loc	5 294 0                         @ ../Drivers/STM32H7xx_HAL_Driver/Src/stm32h7xx_hal_flash_ex.c:294:0
	.fnstart
	.cfi_startproc
@ %bb.0:
	@DEBUG_VALUE: HAL_FLASHEx_Erase_IT:pEraseInit <- $r0
	.save	{r4, r5, r7, lr}
	push	{r4, r5, r7, lr}
	.cfi_def_cfa_offset 16
	.cfi_offset lr, -4
	.cfi_offset r7, -8
	.cfi_offset r5, -12
	.cfi_offset r4, -16
.Ltmp57:
	.loc	5 302 3 prologue_end            @ ../Drivers/STM32H7xx_HAL_Driver/Src/stm32h7xx_hal_flash_ex.c:302:3
	movw	r5, :lower16:pFlash(sbrel)
	movt	r5, :upper16:pFlash(sbrel)
	add.w	r1, r9, r5
	ldrb	r1, [r1, #20]
.Ltmp58:
	.loc	5 302 3 is_stmt 0               @ ../Drivers/STM32H7xx_HAL_Driver/Src/stm32h7xx_hal_flash_ex.c:302:3
	cmp	r1, #1
.Ltmp59:
	@DEBUG_VALUE: HAL_FLASHEx_Erase_IT:status <- 0
	@DEBUG_VALUE: HAL_FLASHEx_Erase_IT:pEraseInit <- $r0
	bne	.LBB2_2
.Ltmp60:
@ %bb.1:
	@DEBUG_VALUE: HAL_FLASHEx_Erase_IT:status <- 0
	@DEBUG_VALUE: HAL_FLASHEx_Erase_IT:pEraseInit <- $r0
	.loc	5 0 3                           @ ../Drivers/STM32H7xx_HAL_Driver/Src/stm32h7xx_hal_flash_ex.c:0:3
	movs	r0, #2
.Ltmp61:
	.loc	5 405 1 is_stmt 1               @ ../Drivers/STM32H7xx_HAL_Driver/Src/stm32h7xx_hal_flash_ex.c:405:1
	pop	{r4, r5, r7, pc}
.Ltmp62:
	.p2align	2
.LBB2_2:
	@DEBUG_VALUE: HAL_FLASHEx_Erase_IT:status <- 0
	@DEBUG_VALUE: HAL_FLASHEx_Erase_IT:pEraseInit <- $r0
	.loc	5 302 3                         @ ../Drivers/STM32H7xx_HAL_Driver/Src/stm32h7xx_hal_flash_ex.c:302:3
	add.w	r1, r9, r5
	mov	r4, r0
.Ltmp63:
	@DEBUG_VALUE: HAL_FLASHEx_Erase_IT:pEraseInit <- $r4
	@DEBUG_VALUE: HAL_FLASHEx_Erase_IT:pEraseInit <- $r4
	.loc	5 0 3 is_stmt 0                 @ ../Drivers/STM32H7xx_HAL_Driver/Src/stm32h7xx_hal_flash_ex.c:0:3
	movs	r0, #1
	movs	r2, #0
	.loc	5 302 3                         @ ../Drivers/STM32H7xx_HAL_Driver/Src/stm32h7xx_hal_flash_ex.c:302:3
	strb	r0, [r1, #20]
.Ltmp64:
	.loc	5 305 20 is_stmt 1              @ ../Drivers/STM32H7xx_HAL_Driver/Src/stm32h7xx_hal_flash_ex.c:305:20
	str	r2, [r1, #24]
.Ltmp65:
	.loc	5 308 19                        @ ../Drivers/STM32H7xx_HAL_Driver/Src/stm32h7xx_hal_flash_ex.c:308:19
	ldr	r1, [r4, #4]
.Ltmp66:
	.loc	5 308 6 is_stmt 0               @ ../Drivers/STM32H7xx_HAL_Driver/Src/stm32h7xx_hal_flash_ex.c:308:6
	lsls	r2, r1, #31
	bne	.LBB2_6
.Ltmp67:
.LBB2_3:
	@DEBUG_VALUE: HAL_FLASHEx_Erase_IT:pEraseInit <- $r4
	.loc	5 359 20 is_stmt 1              @ ../Drivers/STM32H7xx_HAL_Driver/Src/stm32h7xx_hal_flash_ex.c:359:20
	ldr	r2, [r4]
.Ltmp68:
	.loc	5 359 8 is_stmt 0               @ ../Drivers/STM32H7xx_HAL_Driver/Src/stm32h7xx_hal_flash_ex.c:359:8
	cmp	r2, #1
	bne	.LBB2_8
.Ltmp69:
@ %bb.4:
	@DEBUG_VALUE: HAL_FLASHEx_Erase_IT:pEraseInit <- $r4
	@DEBUG_VALUE: FLASH_MassErase:VoltageRange <- undef
	.loc	5 362 10 is_stmt 1              @ ../Drivers/STM32H7xx_HAL_Driver/Src/stm32h7xx_hal_flash_ex.c:362:10
	cmp	r1, #1
	bne	.LBB2_12
.Ltmp70:
@ %bb.5:
	@DEBUG_VALUE: HAL_FLASHEx_Erase_IT:pEraseInit <- $r4
	.loc	5 0 10 is_stmt 0                @ ../Drivers/STM32H7xx_HAL_Driver/Src/stm32h7xx_hal_flash_ex.c:0:10
	movs	r0, #2
.Ltmp71:
	.loc	5 364 33 is_stmt 1              @ ../Drivers/STM32H7xx_HAL_Driver/Src/stm32h7xx_hal_flash_ex.c:364:33
	strb.w	r0, [r9, r5]
	b	.LBB2_14
.Ltmp72:
	.p2align	2
.LBB2_6:
	@DEBUG_VALUE: HAL_FLASHEx_Erase_IT:pEraseInit <- $r4
	@DEBUG_VALUE: HAL_FLASHEx_Erase_IT:status <- 0
	.loc	5 310 8                         @ ../Drivers/STM32H7xx_HAL_Driver/Src/stm32h7xx_hal_flash_ex.c:310:8
	movw	r0, #50000
	movs	r1, #1
	bl	FLASH_WaitForLastOperation
.Ltmp73:
	@DEBUG_VALUE: HAL_FLASHEx_Erase_IT:status <- undef
	.loc	5 327 7                         @ ../Drivers/STM32H7xx_HAL_Driver/Src/stm32h7xx_hal_flash_ex.c:327:7
	cbz	r0, .LBB2_10
.Ltmp74:
@ %bb.7:
	@DEBUG_VALUE: HAL_FLASHEx_Erase_IT:pEraseInit <- $r4
	.loc	5 330 5                         @ ../Drivers/STM32H7xx_HAL_Driver/Src/stm32h7xx_hal_flash_ex.c:330:5
	add.w	r0, r9, r5
	movs	r1, #0
	strb	r1, [r0, #20]
	movs	r0, #1
.Ltmp75:
	.loc	5 405 1                         @ ../Drivers/STM32H7xx_HAL_Driver/Src/stm32h7xx_hal_flash_ex.c:405:1
	pop	{r4, r5, r7, pc}
.Ltmp76:
	.p2align	2
.LBB2_8:
	@DEBUG_VALUE: HAL_FLASHEx_Erase_IT:pEraseInit <- $r4
	.loc	5 0 1 is_stmt 0                 @ ../Drivers/STM32H7xx_HAL_Driver/Src/stm32h7xx_hal_flash_ex.c:0:1
	movs	r1, #1
.Ltmp77:
	.loc	5 392 31 is_stmt 1              @ ../Drivers/STM32H7xx_HAL_Driver/Src/stm32h7xx_hal_flash_ex.c:392:31
	strb.w	r1, [r9, r5]
	add.w	r3, r9, r5
	.loc	5 397 44                        @ ../Drivers/STM32H7xx_HAL_Driver/Src/stm32h7xx_hal_flash_ex.c:397:44
	ldr	r2, [r4, #16]
	.loc	5 396 35                        @ ../Drivers/STM32H7xx_HAL_Driver/Src/stm32h7xx_hal_flash_ex.c:396:35
	ldrd	r1, r5, [r4, #8]
	.loc	5 395 31                        @ ../Drivers/STM32H7xx_HAL_Driver/Src/stm32h7xx_hal_flash_ex.c:395:31
	str	r5, [r3, #4]
	.loc	5 396 21                        @ ../Drivers/STM32H7xx_HAL_Driver/Src/stm32h7xx_hal_flash_ex.c:396:21
	str	r1, [r3, #12]
	.loc	5 397 30                        @ ../Drivers/STM32H7xx_HAL_Driver/Src/stm32h7xx_hal_flash_ex.c:397:30
	str	r2, [r3, #8]
.Ltmp78:
	@DEBUG_VALUE: FLASH_Erase_Sector:Sector <- $r1
	@DEBUG_VALUE: FLASH_Erase_Sector:VoltageRange <- $r2
	.loc	5 935 6                         @ ../Drivers/STM32H7xx_HAL_Driver/Src/stm32h7xx_hal_flash_ex.c:935:6
	cbz	r0, .LBB2_15
.Ltmp79:
@ %bb.9:
	@DEBUG_VALUE: HAL_FLASHEx_Erase_IT:pEraseInit <- $r4
	.loc	5 0 6 is_stmt 0                 @ ../Drivers/STM32H7xx_HAL_Driver/Src/stm32h7xx_hal_flash_ex.c:0:6
	movs	r0, #0
	.loc	5 405 1 is_stmt 1               @ ../Drivers/STM32H7xx_HAL_Driver/Src/stm32h7xx_hal_flash_ex.c:405:1
	pop	{r4, r5, r7, pc}
.Ltmp80:
	.p2align	2
.LBB2_10:
	@DEBUG_VALUE: HAL_FLASHEx_Erase_IT:pEraseInit <- $r4
	.loc	5 334 21                        @ ../Drivers/STM32H7xx_HAL_Driver/Src/stm32h7xx_hal_flash_ex.c:334:21
	ldr	r1, [r4, #4]
.Ltmp81:
	@DEBUG_VALUE: FLASH_MassErase:Banks <- $r1
	@DEBUG_VALUE: FLASH_Erase_Sector:Banks <- $r1
	.loc	5 334 8 is_stmt 0               @ ../Drivers/STM32H7xx_HAL_Driver/Src/stm32h7xx_hal_flash_ex.c:334:8
	lsls	r0, r1, #31
	bne	.LBB2_16
.Ltmp82:
@ %bb.11:
	@DEBUG_VALUE: FLASH_Erase_Sector:Banks <- $r1
	@DEBUG_VALUE: FLASH_MassErase:Banks <- $r1
	@DEBUG_VALUE: HAL_FLASHEx_Erase_IT:pEraseInit <- $r4
	.loc	5 0 8                           @ ../Drivers/STM32H7xx_HAL_Driver/Src/stm32h7xx_hal_flash_ex.c:0:8
	movs	r0, #1
	b	.LBB2_3
.Ltmp83:
	.p2align	2
.LBB2_12:
	@DEBUG_VALUE: HAL_FLASHEx_Erase_IT:pEraseInit <- $r4
	.loc	5 879 8 is_stmt 1               @ ../Drivers/STM32H7xx_HAL_Driver/Src/stm32h7xx_hal_flash_ex.c:879:8
	cmp	r0, #0
	mov.w	r0, #7
.Ltmp84:
	.loc	5 374 33                        @ ../Drivers/STM32H7xx_HAL_Driver/Src/stm32h7xx_hal_flash_ex.c:374:33
	strb.w	r0, [r9, r5]
.Ltmp85:
	.loc	5 879 8                         @ ../Drivers/STM32H7xx_HAL_Driver/Src/stm32h7xx_hal_flash_ex.c:879:8
	beq	.LBB2_14
.Ltmp86:
@ %bb.13:
	@DEBUG_VALUE: HAL_FLASHEx_Erase_IT:pEraseInit <- $r4
	.loc	5 0 8 is_stmt 0                 @ ../Drivers/STM32H7xx_HAL_Driver/Src/stm32h7xx_hal_flash_ex.c:0:8
	movs	r0, #0
	.loc	5 405 1 is_stmt 1               @ ../Drivers/STM32H7xx_HAL_Driver/Src/stm32h7xx_hal_flash_ex.c:405:1
	pop	{r4, r5, r7, pc}
.Ltmp87:
	.p2align	2
.LBB2_14:
	@DEBUG_VALUE: HAL_FLASHEx_Erase_IT:pEraseInit <- $r4
	.loc	5 0 1 is_stmt 0                 @ ../Drivers/STM32H7xx_HAL_Driver/Src/stm32h7xx_hal_flash_ex.c:0:1
	movw	r0, #8204
.Ltmp88:
	.loc	5 377 35 is_stmt 1              @ ../Drivers/STM32H7xx_HAL_Driver/Src/stm32h7xx_hal_flash_ex.c:377:35
	ldr	r1, [r4, #16]
	movt	r0, #20992
.Ltmp89:
	.loc	5 883 18                        @ ../Drivers/STM32H7xx_HAL_Driver/Src/stm32h7xx_hal_flash_ex.c:883:18
	ldr	r2, [r0]
	bic	r2, r2, #48
	str	r2, [r0]
	.loc	5 884 18                        @ ../Drivers/STM32H7xx_HAL_Driver/Src/stm32h7xx_hal_flash_ex.c:884:18
	ldr	r2, [r0]
	orrs	r1, r2
	str	r1, [r0]
	.loc	5 888 18                        @ ../Drivers/STM32H7xx_HAL_Driver/Src/stm32h7xx_hal_flash_ex.c:888:18
	ldr	r1, [r0]
	orr	r1, r1, #136
.Ltmp90:
	.loc	5 0 0 is_stmt 0                 @ ../Drivers/STM32H7xx_HAL_Driver/Src/stm32h7xx_hal_flash_ex.c:0:0
	str	r1, [r0]
	movs	r0, #0
.Ltmp91:
	.loc	5 405 1 is_stmt 1               @ ../Drivers/STM32H7xx_HAL_Driver/Src/stm32h7xx_hal_flash_ex.c:405:1
	pop	{r4, r5, r7, pc}
.Ltmp92:
	.p2align	2
.LBB2_15:
	@DEBUG_VALUE: FLASH_Erase_Sector:VoltageRange <- $r2
	@DEBUG_VALUE: FLASH_Erase_Sector:Sector <- $r1
	@DEBUG_VALUE: HAL_FLASHEx_Erase_IT:pEraseInit <- $r4
	.loc	5 0 1 is_stmt 0                 @ ../Drivers/STM32H7xx_HAL_Driver/Src/stm32h7xx_hal_flash_ex.c:0:1
	movw	r0, #8204
	movt	r0, #20992
.Ltmp93:
	.loc	5 939 16 is_stmt 1              @ ../Drivers/STM32H7xx_HAL_Driver/Src/stm32h7xx_hal_flash_ex.c:939:16
	ldr	r3, [r0]
	bic	r3, r3, #1840
	str	r3, [r0]
	.loc	5 941 16                        @ ../Drivers/STM32H7xx_HAL_Driver/Src/stm32h7xx_hal_flash_ex.c:941:16
	ldr	r3, [r0]
	orr.w	r1, r3, r1, lsl #8
.Ltmp94:
	orrs	r1, r2
	orr	r1, r1, #132
.Ltmp95:
	.loc	5 0 0 is_stmt 0                 @ ../Drivers/STM32H7xx_HAL_Driver/Src/stm32h7xx_hal_flash_ex.c:0:0
	str	r1, [r0]
	movs	r0, #0
.Ltmp96:
	.loc	5 405 1 is_stmt 1               @ ../Drivers/STM32H7xx_HAL_Driver/Src/stm32h7xx_hal_flash_ex.c:405:1
	pop	{r4, r5, r7, pc}
.Ltmp97:
	.p2align	2
.LBB2_16:
	@DEBUG_VALUE: HAL_FLASHEx_Erase_IT:pEraseInit <- $r4
	.loc	5 0 1 is_stmt 0                 @ ../Drivers/STM32H7xx_HAL_Driver/Src/stm32h7xx_hal_flash_ex.c:0:1
	movw	r0, #8204
	movt	r0, #20992
.Ltmp98:
	.loc	5 338 7 is_stmt 1               @ ../Drivers/STM32H7xx_HAL_Driver/Src/stm32h7xx_hal_flash_ex.c:338:7
	ldr	r2, [r0]
	orr	r2, r2, #7274496
	str	r2, [r0]
	movs	r0, #0
	b	.LBB2_3
.Ltmp99:
.Lfunc_end2:
	.size	HAL_FLASHEx_Erase_IT, .Lfunc_end2-HAL_FLASHEx_Erase_IT
	.cfi_endproc
	.cantunwind
	.fnend
                                        @ -- End function
	.hidden	HAL_FLASHEx_OBProgram           @ -- Begin function HAL_FLASHEx_OBProgram
	.globl	HAL_FLASHEx_OBProgram
	.p2align	3
	.type	HAL_FLASHEx_OBProgram,%function
	.code	16                              @ @HAL_FLASHEx_OBProgram
	.thumb_func
HAL_FLASHEx_OBProgram:
.Lfunc_begin3:
	.loc	5 415 0                         @ ../Drivers/STM32H7xx_HAL_Driver/Src/stm32h7xx_hal_flash_ex.c:415:0
	.fnstart
	.cfi_startproc
@ %bb.0:
	@DEBUG_VALUE: HAL_FLASHEx_OBProgram:pOBInit <- $r0
	.save	{r4, r5, r6, r7, r8, r10, r11, lr}
	push.w	{r4, r5, r6, r7, r8, r10, r11, lr}
	.cfi_def_cfa_offset 32
	.cfi_offset lr, -4
	.cfi_offset r11, -8
	.cfi_offset r10, -12
	.cfi_offset r8, -16
	.cfi_offset r7, -20
	.cfi_offset r6, -24
	.cfi_offset r5, -28
	.cfi_offset r4, -32
.Ltmp100:
	.loc	5 422 3 prologue_end            @ ../Drivers/STM32H7xx_HAL_Driver/Src/stm32h7xx_hal_flash_ex.c:422:3
	movw	r11, :lower16:pFlash(sbrel)
	movt	r11, :upper16:pFlash(sbrel)
	add.w	r1, r9, r11
	ldrb	r1, [r1, #20]
.Ltmp101:
	.loc	5 422 3 is_stmt 0               @ ../Drivers/STM32H7xx_HAL_Driver/Src/stm32h7xx_hal_flash_ex.c:422:3
	cmp	r1, #1
	@DEBUG_VALUE: HAL_FLASHEx_OBProgram:pOBInit <- $r0
	bne	.LBB3_2
.Ltmp102:
@ %bb.1:
	@DEBUG_VALUE: HAL_FLASHEx_OBProgram:pOBInit <- $r0
	.loc	5 0 3                           @ ../Drivers/STM32H7xx_HAL_Driver/Src/stm32h7xx_hal_flash_ex.c:0:3
	movs	r0, #2
.Ltmp103:
	.loc	5 546 1 is_stmt 1               @ ../Drivers/STM32H7xx_HAL_Driver/Src/stm32h7xx_hal_flash_ex.c:546:1
	pop.w	{r4, r5, r6, r7, r8, r10, r11, pc}
	.p2align	2
.LBB3_2:
.Ltmp104:
	@DEBUG_VALUE: HAL_FLASHEx_OBProgram:pOBInit <- $r0
	.loc	5 0 1 is_stmt 0                 @ ../Drivers/STM32H7xx_HAL_Driver/Src/stm32h7xx_hal_flash_ex.c:0:1
	mov	r4, r0
.Ltmp105:
	@DEBUG_VALUE: HAL_FLASHEx_OBProgram:pOBInit <- $r4
	@DEBUG_VALUE: HAL_FLASHEx_OBProgram:pOBInit <- $r4
	.loc	5 422 3 is_stmt 1               @ ../Drivers/STM32H7xx_HAL_Driver/Src/stm32h7xx_hal_flash_ex.c:422:3
	add.w	r0, r9, r11
	movs	r1, #1
	mov.w	r8, #0
	strb	r1, [r0, #20]
.Ltmp106:
	.loc	5 428 6                         @ ../Drivers/STM32H7xx_HAL_Driver/Src/stm32h7xx_hal_flash_ex.c:428:6
	movs	r1, #1
.Ltmp107:
	.loc	5 425 20                        @ ../Drivers/STM32H7xx_HAL_Driver/Src/stm32h7xx_hal_flash_ex.c:425:20
	str.w	r8, [r0, #24]
.Ltmp108:
	.loc	5 428 6                         @ ../Drivers/STM32H7xx_HAL_Driver/Src/stm32h7xx_hal_flash_ex.c:428:6
	movw	r0, #50000
	bl	FLASH_WaitForLastOperation
.Ltmp109:
	.loc	5 428 78 is_stmt 0              @ ../Drivers/STM32H7xx_HAL_Driver/Src/stm32h7xx_hal_flash_ex.c:428:78
	cmp	r0, #0
	it	ne
	movne	r0, #1
.Ltmp110:
	@DEBUG_VALUE: HAL_FLASHEx_OBProgram:status <- undef
	.loc	5 443 6 is_stmt 1               @ ../Drivers/STM32H7xx_HAL_Driver/Src/stm32h7xx_hal_flash_ex.c:443:6
	beq	.LBB3_4
.Ltmp111:
.LBB3_3:
	@DEBUG_VALUE: HAL_FLASHEx_OBProgram:pOBInit <- $r4
	.loc	5 543 3                         @ ../Drivers/STM32H7xx_HAL_Driver/Src/stm32h7xx_hal_flash_ex.c:543:3
	add.w	r1, r9, r11
	strb.w	r8, [r1, #20]
.Ltmp112:
	.loc	5 546 1                         @ ../Drivers/STM32H7xx_HAL_Driver/Src/stm32h7xx_hal_flash_ex.c:546:1
	pop.w	{r4, r5, r6, r7, r8, r10, r11, pc}
.Ltmp113:
	.p2align	2
.LBB3_4:
	@DEBUG_VALUE: HAL_FLASHEx_OBProgram:pOBInit <- $r4
	.loc	5 446 18                        @ ../Drivers/STM32H7xx_HAL_Driver/Src/stm32h7xx_hal_flash_ex.c:446:18
	ldr	r2, [r4]
	movw	r12, #8224
.Ltmp114:
	.loc	5 446 8 is_stmt 0               @ ../Drivers/STM32H7xx_HAL_Driver/Src/stm32h7xx_hal_flash_ex.c:446:8
	lsls	r1, r2, #31
	movt	r12, #20992
	beq	.LBB3_11
.Ltmp115:
@ %bb.5:
	@DEBUG_VALUE: HAL_FLASHEx_OBProgram:pOBInit <- $r4
	.loc	5 450 19 is_stmt 1              @ ../Drivers/STM32H7xx_HAL_Driver/Src/stm32h7xx_hal_flash_ex.c:450:19
	ldr	r1, [r4, #4]
	.loc	5 0 0 is_stmt 0                 @ ../Drivers/STM32H7xx_HAL_Driver/Src/stm32h7xx_hal_flash_ex.c:0:0
	ldr	r3, [r4, #28]
.Ltmp116:
	.loc	5 450 10                        @ ../Drivers/STM32H7xx_HAL_Driver/Src/stm32h7xx_hal_flash_ex.c:450:10
	cmp	r1, #1
.Ltmp117:
	.loc	5 0 0                           @ ../Drivers/STM32H7xx_HAL_Driver/Src/stm32h7xx_hal_flash_ex.c:0:0
	and	r1, r3, #1
.Ltmp118:
	.loc	5 450 10                        @ ../Drivers/STM32H7xx_HAL_Driver/Src/stm32h7xx_hal_flash_ex.c:450:10
	bne	.LBB3_8
.Ltmp119:
@ %bb.6:
	@DEBUG_VALUE: HAL_FLASHEx_OBProgram:pOBInit <- $r4
	@DEBUG_VALUE: FLASH_OB_EnableWRP:WRPSector <- undef
	@DEBUG_VALUE: FLASH_OB_EnableWRP:Banks <- undef
	.loc	5 988 6 is_stmt 1               @ ../Drivers/STM32H7xx_HAL_Driver/Src/stm32h7xx_hal_flash_ex.c:988:6
	cbz	r1, .LBB3_11
.Ltmp120:
@ %bb.7:
	@DEBUG_VALUE: HAL_FLASHEx_OBProgram:pOBInit <- $r4
	.loc	5 453 37                        @ ../Drivers/STM32H7xx_HAL_Driver/Src/stm32h7xx_hal_flash_ex.c:453:37
	ldr	r1, [r4, #8]
	mvn	r3, #255
.Ltmp121:
	@DEBUG_VALUE: FLASH_OB_EnableWRP:WRPSector <- undef
	.loc	5 991 26                        @ ../Drivers/STM32H7xx_HAL_Driver/Src/stm32h7xx_hal_flash_ex.c:991:26
	orn	r1, r3, r1
	.loc	5 991 22 is_stmt 0              @ ../Drivers/STM32H7xx_HAL_Driver/Src/stm32h7xx_hal_flash_ex.c:991:22
	ldr.w	r3, [r12, #28]
	ands	r1, r3
	b	.LBB3_10
.Ltmp122:
	.p2align	2
.LBB3_8:
	@DEBUG_VALUE: HAL_FLASHEx_OBProgram:pOBInit <- $r4
	@DEBUG_VALUE: FLASH_OB_DisableWRP:WRPSector <- undef
	@DEBUG_VALUE: FLASH_OB_DisableWRP:Banks <- undef
	.loc	5 1023 6 is_stmt 1              @ ../Drivers/STM32H7xx_HAL_Driver/Src/stm32h7xx_hal_flash_ex.c:1023:6
	cbz	r1, .LBB3_11
.Ltmp123:
@ %bb.9:
	@DEBUG_VALUE: HAL_FLASHEx_OBProgram:pOBInit <- $r4
	.loc	5 458 38                        @ ../Drivers/STM32H7xx_HAL_Driver/Src/stm32h7xx_hal_flash_ex.c:458:38
	ldrb	r1, [r4, #8]
.Ltmp124:
	@DEBUG_VALUE: FLASH_OB_DisableWRP:WRPSector <- $r1
	.loc	5 1026 22                       @ ../Drivers/STM32H7xx_HAL_Driver/Src/stm32h7xx_hal_flash_ex.c:1026:22
	ldr.w	r3, [r12, #28]
	orrs	r1, r3
.Ltmp125:
.LBB3_10:
	@DEBUG_VALUE: HAL_FLASHEx_OBProgram:pOBInit <- $r4
	.loc	5 0 0 is_stmt 0                 @ ../Drivers/STM32H7xx_HAL_Driver/Src/stm32h7xx_hal_flash_ex.c:0:0
	str.w	r1, [r12, #28]
.Ltmp126:
.LBB3_11:
	@DEBUG_VALUE: HAL_FLASHEx_OBProgram:pOBInit <- $r4
	.loc	5 463 8 is_stmt 1               @ ../Drivers/STM32H7xx_HAL_Driver/Src/stm32h7xx_hal_flash_ex.c:463:8
	lsls	r1, r2, #30
	bmi	.LBB3_14
.Ltmp127:
@ %bb.12:
	@DEBUG_VALUE: HAL_FLASHEx_OBProgram:pOBInit <- $r4
	.loc	5 470 8                         @ ../Drivers/STM32H7xx_HAL_Driver/Src/stm32h7xx_hal_flash_ex.c:470:8
	lsls	r1, r2, #29
	bmi	.LBB3_15
.Ltmp128:
.LBB3_13:
	@DEBUG_VALUE: HAL_FLASHEx_OBProgram:pOBInit <- $r4
	.loc	5 477 8                         @ ../Drivers/STM32H7xx_HAL_Driver/Src/stm32h7xx_hal_flash_ex.c:477:8
	lsls	r1, r2, #28
	bmi	.LBB3_16
	b	.LBB3_18
.Ltmp129:
	.p2align	2
.LBB3_14:
	@DEBUG_VALUE: HAL_FLASHEx_OBProgram:pOBInit <- $r4
	.loc	5 466 35                        @ ../Drivers/STM32H7xx_HAL_Driver/Src/stm32h7xx_hal_flash_ex.c:466:35
	ldr	r1, [r4, #12]
.Ltmp130:
	@DEBUG_VALUE: FLASH_OB_RDPConfig:RDPLevel <- $r1
	.loc	5 1108 3                        @ ../Drivers/STM32H7xx_HAL_Driver/Src/stm32h7xx_hal_flash_ex.c:1108:3
	ldr.w	r3, [r12]
	bic	r3, r3, #65280
	orrs	r1, r3
.Ltmp131:
	str.w	r1, [r12]
.Ltmp132:
	.loc	5 470 8                         @ ../Drivers/STM32H7xx_HAL_Driver/Src/stm32h7xx_hal_flash_ex.c:470:8
	lsls	r1, r2, #29
	bpl	.LBB3_13
.Ltmp133:
.LBB3_15:
	@DEBUG_VALUE: HAL_FLASHEx_OBProgram:pOBInit <- $r4
	@DEBUG_VALUE: FLASH_OB_UserConfig:UserConfig <- undef
	.loc	5 473 36                        @ ../Drivers/STM32H7xx_HAL_Driver/Src/stm32h7xx_hal_flash_ex.c:473:36
	ldr	r3, [r4, #20]
.Ltmp134:
	.loc	5 1183 16                       @ ../Drivers/STM32H7xx_HAL_Driver/Src/stm32h7xx_hal_flash_ex.c:1183:16
	ands	r6, r3, #1
.Ltmp135:
	.loc	5 1213 6                        @ ../Drivers/STM32H7xx_HAL_Driver/Src/stm32h7xx_hal_flash_ex.c:1213:6
	and	r1, r3, #6
	lsl.w	r7, r1, #5
.Ltmp136:
	.loc	5 473 55                        @ ../Drivers/STM32H7xx_HAL_Driver/Src/stm32h7xx_hal_flash_ex.c:473:55
	ldr	r1, [r4, #24]
.Ltmp137:
	.loc	5 1213 6                        @ ../Drivers/STM32H7xx_HAL_Driver/Src/stm32h7xx_hal_flash_ex.c:1213:6
	orr.w	r10, r7, r6, lsl #4
.Ltmp138:
	@DEBUG_VALUE: FLASH_OB_UserConfig:optr_reg_mask <- 0
	@DEBUG_VALUE: FLASH_OB_UserConfig:optr_reg_val <- 0
	.loc	5 0 6 is_stmt 0                 @ ../Drivers/STM32H7xx_HAL_Driver/Src/stm32h7xx_hal_flash_ex.c:0:6
	and	r5, r1, #16
.Ltmp139:
	@DEBUG_VALUE: FLASH_OB_UserConfig:optr_reg_val <- undef
	.loc	5 1203 6 is_stmt 1              @ ../Drivers/STM32H7xx_HAL_Driver/Src/stm32h7xx_hal_flash_ex.c:1203:6
	and.w	r6, r1, r3, lsl #5
.Ltmp140:
	.loc	5 1223 16                       @ ../Drivers/STM32H7xx_HAL_Driver/Src/stm32h7xx_hal_flash_ex.c:1223:16
	and	r7, r3, #8
.Ltmp141:
	@DEBUG_VALUE: FLASH_OB_UserConfig:optr_reg_mask <- undef
	.loc	5 1203 6                        @ ../Drivers/STM32H7xx_HAL_Driver/Src/stm32h7xx_hal_flash_ex.c:1203:6
	and	r6, r6, #64
.Ltmp142:
	.loc	5 1233 16                       @ ../Drivers/STM32H7xx_HAL_Driver/Src/stm32h7xx_hal_flash_ex.c:1233:16
	and	r12, r3, #16
.Ltmp143:
	.loc	5 1203 6                        @ ../Drivers/STM32H7xx_HAL_Driver/Src/stm32h7xx_hal_flash_ex.c:1203:6
	it	ne
	addne	r6, r5
.Ltmp144:
	@DEBUG_VALUE: FLASH_OB_UserConfig:optr_reg_val <- $r6
	.loc	5 1213 6                        @ ../Drivers/STM32H7xx_HAL_Driver/Src/stm32h7xx_hal_flash_ex.c:1213:6
	and	r5, r1, #128
	lsls.w	r8, r3, #29
	it	mi
	addmi	r6, r5
.Ltmp145:
	@DEBUG_VALUE: FLASH_OB_UserConfig:optr_reg_val <- $r6
	.loc	5 1233 6                        @ ../Drivers/STM32H7xx_HAL_Driver/Src/stm32h7xx_hal_flash_ex.c:1233:6
	add.w	r5, r7, r12
	.loc	5 1223 6                        @ ../Drivers/STM32H7xx_HAL_Driver/Src/stm32h7xx_hal_flash_ex.c:1223:6
	cmp	r7, #0
	and	r7, r1, #131072
.Ltmp146:
	.loc	5 473 36                        @ ../Drivers/STM32H7xx_HAL_Driver/Src/stm32h7xx_hal_flash_ex.c:473:36
	lsr.w	lr, r3, #5
.Ltmp147:
	@DEBUG_VALUE: FLASH_OB_UserConfig:optr_reg_mask <- 0
	@DEBUG_VALUE: FLASH_OB_UserConfig:optr_reg_val <- 0
	@DEBUG_VALUE: FLASH_OB_UserConfig:UserType <- $r3
	.loc	5 1223 6                        @ ../Drivers/STM32H7xx_HAL_Driver/Src/stm32h7xx_hal_flash_ex.c:1223:6
	it	ne
	addne	r6, r7
.Ltmp148:
	@DEBUG_VALUE: FLASH_OB_UserConfig:optr_reg_val <- $r6
	.loc	5 1233 6                        @ ../Drivers/STM32H7xx_HAL_Driver/Src/stm32h7xx_hal_flash_ex.c:1233:6
	and	r7, r1, #262144
	cmp.w	r12, #0
	it	ne
	orrne	r6, r7
.Ltmp149:
	@DEBUG_VALUE: FLASH_OB_UserConfig:optr_reg_val <- $r6
	.loc	5 1243 6                        @ ../Drivers/STM32H7xx_HAL_Driver/Src/stm32h7xx_hal_flash_ex.c:1243:6
	and	r12, r1, #1572864
	lsls	r7, r3, #26
	it	mi
	orrmi.w	r6, r6, r12
.Ltmp150:
	@DEBUG_VALUE: FLASH_OB_UserConfig:optr_reg_val <- $r6
	.loc	5 1253 6                        @ ../Drivers/STM32H7xx_HAL_Driver/Src/stm32h7xx_hal_flash_ex.c:1253:6
	and	r7, r1, #2097152
.Ltmp151:
	.loc	5 1253 16 is_stmt 0             @ ../Drivers/STM32H7xx_HAL_Driver/Src/stm32h7xx_hal_flash_ex.c:1253:16
	ands	r12, r3, #64
.Ltmp152:
	.loc	5 1253 6                        @ ../Drivers/STM32H7xx_HAL_Driver/Src/stm32h7xx_hal_flash_ex.c:1253:6
	it	ne
	orrne	r6, r7
.Ltmp153:
	@DEBUG_VALUE: FLASH_OB_UserConfig:optr_reg_mask <- undef
	@DEBUG_VALUE: FLASH_OB_UserConfig:optr_reg_val <- $r6
	.loc	5 1319 16 is_stmt 1             @ ../Drivers/STM32H7xx_HAL_Driver/Src/stm32h7xx_hal_flash_ex.c:1319:16
	ands	r3, r3, #128
.Ltmp154:
	.loc	5 1319 6 is_stmt 0              @ ../Drivers/STM32H7xx_HAL_Driver/Src/stm32h7xx_hal_flash_ex.c:1319:6
	and	r1, r1, #536870912
	lsl.w	r3, r3, #22
	mov.w	r8, #0
	.loc	5 1233 6 is_stmt 1              @ ../Drivers/STM32H7xx_HAL_Driver/Src/stm32h7xx_hal_flash_ex.c:1233:6
	orr.w	r5, r10, r5, lsl #14
.Ltmp155:
	@DEBUG_VALUE: FLASH_OB_UserConfig:optr_reg_mask <- $r5
	.loc	5 1319 6                        @ ../Drivers/STM32H7xx_HAL_Driver/Src/stm32h7xx_hal_flash_ex.c:1319:6
	it	ne
	orrne	r6, r1
.Ltmp156:
	@DEBUG_VALUE: FLASH_OB_UserConfig:optr_reg_val <- $r6
	.loc	5 1253 6                        @ ../Drivers/STM32H7xx_HAL_Driver/Src/stm32h7xx_hal_flash_ex.c:1253:6
	orr.w	r1, r3, r12, lsl #15
	movw	r12, #8224
.Ltmp157:
	.loc	5 473 36                        @ ../Drivers/STM32H7xx_HAL_Driver/Src/stm32h7xx_hal_flash_ex.c:473:36
	bfi	r5, lr, #19, #1
.Ltmp158:
	.loc	5 0 36 is_stmt 0                @ ../Drivers/STM32H7xx_HAL_Driver/Src/stm32h7xx_hal_flash_ex.c:0:36
	movt	r12, #20992
	.loc	5 473 36                        @ ../Drivers/STM32H7xx_HAL_Driver/Src/stm32h7xx_hal_flash_ex.c:473:36
	bfi	r5, lr, #20, #1
.Ltmp159:
	@DEBUG_VALUE: FLASH_OB_UserConfig:optr_reg_mask <- $r5
	.loc	5 1319 6 is_stmt 1              @ ../Drivers/STM32H7xx_HAL_Driver/Src/stm32h7xx_hal_flash_ex.c:1319:6
	add	r1, r5
.Ltmp160:
	@DEBUG_VALUE: FLASH_OB_UserConfig:optr_reg_mask <- $r1
	.loc	5 1342 3                        @ ../Drivers/STM32H7xx_HAL_Driver/Src/stm32h7xx_hal_flash_ex.c:1342:3
	ldr.w	r3, [r12]
	bic.w	r1, r3, r1
.Ltmp161:
	orrs	r1, r6
	str.w	r1, [r12]
.Ltmp162:
	.loc	5 477 8                         @ ../Drivers/STM32H7xx_HAL_Driver/Src/stm32h7xx_hal_flash_ex.c:477:8
	lsls	r1, r2, #28
	bpl	.LBB3_18
.Ltmp163:
.LBB3_16:
	@DEBUG_VALUE: HAL_FLASHEx_OBProgram:pOBInit <- $r4
	@DEBUG_VALUE: FLASH_OB_PCROPConfig:PCROPConfig <- undef
	@DEBUG_VALUE: FLASH_OB_PCROPConfig:PCROPStartAddr <- undef
	@DEBUG_VALUE: FLASH_OB_PCROPConfig:PCROPEndAddr <- undef
	@DEBUG_VALUE: FLASH_OB_PCROPConfig:Banks <- undef
	.loc	5 1403 6                        @ ../Drivers/STM32H7xx_HAL_Driver/Src/stm32h7xx_hal_flash_ex.c:1403:6
	ldrb	r1, [r4, #28]
	lsls	r1, r1, #31
	beq	.LBB3_18
.Ltmp164:
@ %bb.17:
	@DEBUG_VALUE: HAL_FLASHEx_OBProgram:pOBInit <- $r4
	@DEBUG_VALUE: FLASH_OB_PCROPConfig:PCROPConfig <- undef
	@DEBUG_VALUE: FLASH_OB_PCROPConfig:PCROPStartAddr <- undef
	@DEBUG_VALUE: FLASH_OB_PCROPConfig:PCROPEndAddr <- undef
	.loc	5 482 37                        @ ../Drivers/STM32H7xx_HAL_Driver/Src/stm32h7xx_hal_flash_ex.c:482:37
	add.w	r7, r4, #32
	movw	r6, #65535
	ldm	r7, {r1, r3, r7}
.Ltmp165:
	.loc	5 1410 66                       @ ../Drivers/STM32H7xx_HAL_Driver/Src/stm32h7xx_hal_flash_ex.c:1410:66
	lsls	r7, r7, #8
	.loc	5 1409 41                       @ ../Drivers/STM32H7xx_HAL_Driver/Src/stm32h7xx_hal_flash_ex.c:1409:41
	add.w	r3, r3, #-134217728
	.loc	5 1410 66                       @ ../Drivers/STM32H7xx_HAL_Driver/Src/stm32h7xx_hal_flash_ex.c:1410:66
	bics	r7, r6
	.loc	5 1409 99                       @ ../Drivers/STM32H7xx_HAL_Driver/Src/stm32h7xx_hal_flash_ex.c:1409:99
	orrs	r1, r7
	.loc	5 1410 99                       @ ../Drivers/STM32H7xx_HAL_Driver/Src/stm32h7xx_hal_flash_ex.c:1410:99
	orr.w	r1, r1, r3, lsr #8
	.loc	5 1409 22                       @ ../Drivers/STM32H7xx_HAL_Driver/Src/stm32h7xx_hal_flash_ex.c:1409:22
	str.w	r1, [r12, #12]
.Ltmp166:
.LBB3_18:
	@DEBUG_VALUE: HAL_FLASHEx_OBProgram:pOBInit <- $r4
	.loc	5 486 8                         @ ../Drivers/STM32H7xx_HAL_Driver/Src/stm32h7xx_hal_flash_ex.c:486:8
	lsls	r1, r2, #27
	bpl	.LBB3_20
.Ltmp167:
@ %bb.19:
	@DEBUG_VALUE: HAL_FLASHEx_OBProgram:pOBInit <- $r4
	.loc	5 488 41                        @ ../Drivers/STM32H7xx_HAL_Driver/Src/stm32h7xx_hal_flash_ex.c:488:41
	ldr	r1, [r4, #16]
.Ltmp168:
	@DEBUG_VALUE: FLASH_OB_BOR_LevelConfig:Level <- $r1
	.loc	5 1487 3                        @ ../Drivers/STM32H7xx_HAL_Driver/Src/stm32h7xx_hal_flash_ex.c:1487:3
	ldr.w	r3, [r12]
	bic	r3, r3, #12
	orrs	r1, r3
.Ltmp169:
	str.w	r1, [r12]
.Ltmp170:
.LBB3_20:
	@DEBUG_VALUE: HAL_FLASHEx_OBProgram:pOBInit <- $r4
	.loc	5 505 8                         @ ../Drivers/STM32H7xx_HAL_Driver/Src/stm32h7xx_hal_flash_ex.c:505:8
	lsls	r1, r2, #25
	bpl	.LBB3_25
.Ltmp171:
@ %bb.21:
	@DEBUG_VALUE: HAL_FLASHEx_OBProgram:pOBInit <- $r4
	.loc	5 507 39                        @ ../Drivers/STM32H7xx_HAL_Driver/Src/stm32h7xx_hal_flash_ex.c:507:39
	ldr	r3, [r4, #44]
.Ltmp172:
	.loc	5 1519 6                        @ ../Drivers/STM32H7xx_HAL_Driver/Src/stm32h7xx_hal_flash_ex.c:1519:6
	lsls	r1, r3, #31
.Ltmp173:
	.loc	5 507 80                        @ ../Drivers/STM32H7xx_HAL_Driver/Src/stm32h7xx_hal_flash_ex.c:507:80
	ldr	r1, [r4, #52]
.Ltmp174:
	@DEBUG_VALUE: FLASH_OB_BootAddConfig:BootAddress0 <- undef
	@DEBUG_VALUE: FLASH_OB_BootAddConfig:BootOption <- $r3
	@DEBUG_VALUE: FLASH_OB_BootAddConfig:BootAddress1 <- $r1
	.loc	5 1519 6                        @ ../Drivers/STM32H7xx_HAL_Driver/Src/stm32h7xx_hal_flash_ex.c:1519:6
	beq	.LBB3_23
.Ltmp175:
@ %bb.22:
	@DEBUG_VALUE: FLASH_OB_BootAddConfig:BootAddress1 <- $r1
	@DEBUG_VALUE: FLASH_OB_BootAddConfig:BootOption <- $r3
	@DEBUG_VALUE: HAL_FLASHEx_OBProgram:pOBInit <- $r4
	.loc	5 507 60                        @ ../Drivers/STM32H7xx_HAL_Driver/Src/stm32h7xx_hal_flash_ex.c:507:60
	ldrh	r7, [r4, #50]
.Ltmp176:
	@DEBUG_VALUE: FLASH_OB_BootAddConfig:BootAddress0 <- undef
	.loc	5 1528 5                        @ ../Drivers/STM32H7xx_HAL_Driver/Src/stm32h7xx_hal_flash_ex.c:1528:5
	ldr.w	r6, [r12, #36]
	movw	r5, #65535
	bics	r6, r5
	add	r7, r6
	str.w	r7, [r12, #36]
.Ltmp177:
.LBB3_23:
	@DEBUG_VALUE: FLASH_OB_BootAddConfig:BootAddress1 <- $r1
	@DEBUG_VALUE: FLASH_OB_BootAddConfig:BootOption <- $r3
	@DEBUG_VALUE: HAL_FLASHEx_OBProgram:pOBInit <- $r4
	.loc	5 1532 6                        @ ../Drivers/STM32H7xx_HAL_Driver/Src/stm32h7xx_hal_flash_ex.c:1532:6
	lsls	r3, r3, #30
.Ltmp178:
	bpl	.LBB3_25
.Ltmp179:
@ %bb.24:
	@DEBUG_VALUE: FLASH_OB_BootAddConfig:BootAddress1 <- $r1
	@DEBUG_VALUE: HAL_FLASHEx_OBProgram:pOBInit <- $r4
	.loc	5 1541 5                        @ ../Drivers/STM32H7xx_HAL_Driver/Src/stm32h7xx_hal_flash_ex.c:1541:5
	ldr.w	r3, [r12, #36]
	uxth	r3, r3
	orrs	r1, r3
.Ltmp180:
	str.w	r1, [r12, #36]
.Ltmp181:
.LBB3_25:
	@DEBUG_VALUE: HAL_FLASHEx_OBProgram:pOBInit <- $r4
	.loc	5 512 8                         @ ../Drivers/STM32H7xx_HAL_Driver/Src/stm32h7xx_hal_flash_ex.c:512:8
	lsls	r1, r2, #26
	bpl.w	.LBB3_3
.Ltmp182:
@ %bb.26:
	@DEBUG_VALUE: HAL_FLASHEx_OBProgram:pOBInit <- $r4
	@DEBUG_VALUE: FLASH_OB_SecureAreaConfig:SecureAreaConfig <- undef
	@DEBUG_VALUE: FLASH_OB_SecureAreaConfig:SecureAreaStartAddr <- undef
	@DEBUG_VALUE: FLASH_OB_SecureAreaConfig:SecureAreaEndAddr <- undef
	@DEBUG_VALUE: FLASH_OB_SecureAreaConfig:Banks <- undef
	.loc	5 1642 6                        @ ../Drivers/STM32H7xx_HAL_Driver/Src/stm32h7xx_hal_flash_ex.c:1642:6
	ldrb	r1, [r4, #28]
	lsls	r1, r1, #31
	beq.w	.LBB3_3
.Ltmp183:
@ %bb.27:
	@DEBUG_VALUE: HAL_FLASHEx_OBProgram:pOBInit <- $r4
	@DEBUG_VALUE: FLASH_OB_SecureAreaConfig:SecureAreaConfig <- undef
	@DEBUG_VALUE: FLASH_OB_SecureAreaConfig:SecureAreaStartAddr <- undef
	@DEBUG_VALUE: FLASH_OB_SecureAreaConfig:SecureAreaEndAddr <- undef
	.loc	5 514 42                        @ ../Drivers/STM32H7xx_HAL_Driver/Src/stm32h7xx_hal_flash_ex.c:514:42
	add.w	r3, r4, #56
	movw	r7, #65535
	ldm	r3, {r1, r2, r3}
.Ltmp184:
	.loc	5 1650 71                       @ ../Drivers/STM32H7xx_HAL_Driver/Src/stm32h7xx_hal_flash_ex.c:1650:71
	lsls	r3, r3, #8
	.loc	5 1649 46                       @ ../Drivers/STM32H7xx_HAL_Driver/Src/stm32h7xx_hal_flash_ex.c:1649:46
	add.w	r2, r2, #-134217728
	.loc	5 1650 71                       @ ../Drivers/STM32H7xx_HAL_Driver/Src/stm32h7xx_hal_flash_ex.c:1650:71
	bics	r3, r7
	.loc	5 1651 42                       @ ../Drivers/STM32H7xx_HAL_Driver/Src/stm32h7xx_hal_flash_ex.c:1651:42
	and	r1, r1, #-2147483648
	.loc	5 1649 103                      @ ../Drivers/STM32H7xx_HAL_Driver/Src/stm32h7xx_hal_flash_ex.c:1649:103
	orrs	r1, r3
	.loc	5 1650 103                      @ ../Drivers/STM32H7xx_HAL_Driver/Src/stm32h7xx_hal_flash_ex.c:1650:103
	orr.w	r1, r1, r2, lsr #8
	.loc	5 1649 22                       @ ../Drivers/STM32H7xx_HAL_Driver/Src/stm32h7xx_hal_flash_ex.c:1649:22
	str.w	r1, [r12, #20]
.Ltmp185:
	.loc	5 543 3                         @ ../Drivers/STM32H7xx_HAL_Driver/Src/stm32h7xx_hal_flash_ex.c:543:3
	add.w	r1, r9, r11
	strb.w	r8, [r1, #20]
.Ltmp186:
	.loc	5 546 1                         @ ../Drivers/STM32H7xx_HAL_Driver/Src/stm32h7xx_hal_flash_ex.c:546:1
	pop.w	{r4, r5, r6, r7, r8, r10, r11, pc}
.Ltmp187:
.Lfunc_end3:
	.size	HAL_FLASHEx_OBProgram, .Lfunc_end3-HAL_FLASHEx_OBProgram
	.cfi_endproc
	.cantunwind
	.fnend
                                        @ -- End function
	.hidden	HAL_FLASHEx_OBGetConfig         @ -- Begin function HAL_FLASHEx_OBGetConfig
	.globl	HAL_FLASHEx_OBGetConfig
	.p2align	3
	.type	HAL_FLASHEx_OBGetConfig,%function
	.code	16                              @ @HAL_FLASHEx_OBGetConfig
	.thumb_func
HAL_FLASHEx_OBGetConfig:
.Lfunc_begin4:
	.loc	5 558 0                         @ ../Drivers/STM32H7xx_HAL_Driver/Src/stm32h7xx_hal_flash_ex.c:558:0
	.fnstart
	.cfi_startproc
@ %bb.0:
	@DEBUG_VALUE: HAL_FLASHEx_OBGetConfig:pOBInit <- $r0
	.save	{r7, lr}
	push	{r7, lr}
	.cfi_def_cfa_offset 8
	.cfi_offset lr, -4
	.cfi_offset r7, -8
	movw	r1, #8220
	movt	r1, #20992
.Ltmp188:
	.loc	5 1121 24 prologue_end          @ ../Drivers/STM32H7xx_HAL_Driver/Src/stm32h7xx_hal_flash_ex.c:1121:24
	ldr	r2, [r1]
	and	r2, r2, #65280
.Ltmp189:
	@DEBUG_VALUE: FLASH_OB_GetRDP:rdp_level <- $r2
	.loc	5 1123 37                       @ ../Drivers/STM32H7xx_HAL_Driver/Src/stm32h7xx_hal_flash_ex.c:1123:37
	mov	r3, r2
	cmp.w	r2, #43520
	it	ne
	movne.w	r3, #21760
	cmp.w	r2, #52224
	it	eq
	moveq	r3, r2
.Ltmp190:
	.loc	5 562 21                        @ ../Drivers/STM32H7xx_HAL_Driver/Src/stm32h7xx_hal_flash_ex.c:562:21
	str	r3, [r0, #12]
	movw	r3, #65292
.Ltmp191:
	.loc	5 1365 25                       @ ../Drivers/STM32H7xx_HAL_Driver/Src/stm32h7xx_hal_flash_ex.c:1365:25
	ldr	r2, [r1]
.Ltmp192:
	@DEBUG_VALUE: FLASH_OB_GetUser:userConfig <- $r2
	.loc	5 1366 14                       @ ../Drivers/STM32H7xx_HAL_Driver/Src/stm32h7xx_hal_flash_ex.c:1366:14
	bics	r2, r3
.Ltmp193:
	@DEBUG_VALUE: FLASH_OB_GetUser:userConfig <- $r2
	.loc	5 565 23                        @ ../Drivers/STM32H7xx_HAL_Driver/Src/stm32h7xx_hal_flash_ex.c:565:23
	str	r2, [r0, #24]
.Ltmp194:
	.loc	5 1501 18                       @ ../Drivers/STM32H7xx_HAL_Driver/Src/stm32h7xx_hal_flash_ex.c:1501:18
	ldr	r2, [r1]
.Ltmp195:
	.loc	5 573 16                        @ ../Drivers/STM32H7xx_HAL_Driver/Src/stm32h7xx_hal_flash_ex.c:573:16
	ldr	r3, [r0, #28]
.Ltmp196:
	.loc	5 573 7 is_stmt 0               @ ../Drivers/STM32H7xx_HAL_Driver/Src/stm32h7xx_hal_flash_ex.c:573:7
	cmp	r3, #1
.Ltmp197:
	.loc	5 1501 28 is_stmt 1             @ ../Drivers/STM32H7xx_HAL_Driver/Src/stm32h7xx_hal_flash_ex.c:1501:28
	and	r2, r2, #12
.Ltmp198:
	.loc	5 568 21                        @ ../Drivers/STM32H7xx_HAL_Driver/Src/stm32h7xx_hal_flash_ex.c:568:21
	str	r2, [r0, #16]
	.loc	5 573 7                         @ ../Drivers/STM32H7xx_HAL_Driver/Src/stm32h7xx_hal_flash_ex.c:573:7
	bne	.LBB4_2
.Ltmp199:
@ %bb.1:
	@DEBUG_VALUE: HAL_FLASHEx_OBGetConfig:pOBInit <- $r0
	.loc	5 0 7 is_stmt 0                 @ ../Drivers/STM32H7xx_HAL_Driver/Src/stm32h7xx_hal_flash_ex.c:0:7
	movs	r2, #63
.Ltmp200:
	.loc	5 576 25 is_stmt 1              @ ../Drivers/STM32H7xx_HAL_Driver/Src/stm32h7xx_hal_flash_ex.c:576:25
	str	r2, [r0]
.Ltmp201:
	@DEBUG_VALUE: FLASH_OB_GetWRP:WRPSector <- [DW_OP_plus_uconst 8, DW_OP_stack_value] $r0
	@DEBUG_VALUE: FLASH_OB_GetWRP:WRPState <- [DW_OP_plus_uconst 4, DW_OP_stack_value] $r0
	@DEBUG_VALUE: FLASH_OB_GetWRP:regvalue <- 0
	.loc	5 1062 23                       @ ../Drivers/STM32H7xx_HAL_Driver/Src/stm32h7xx_hal_flash_ex.c:1062:23
	ldr	r2, [r1, #28]
.Ltmp202:
	@DEBUG_VALUE: FLASH_OB_GetWRP:regvalue <- $r2
	.loc	5 0 23 is_stmt 0                @ ../Drivers/STM32H7xx_HAL_Driver/Src/stm32h7xx_hal_flash_ex.c:0:23
	movw	lr, #65280
	.loc	5 1063 3 is_stmt 1              @ ../Drivers/STM32H7xx_HAL_Driver/Src/stm32h7xx_hal_flash_ex.c:1063:3
	mvns	r2, r2
.Ltmp203:
	.loc	5 1467 70                       @ ../Drivers/STM32H7xx_HAL_Driver/Src/stm32h7xx_hal_flash_ex.c:1467:70
	mov.w	r3, #134217728
.Ltmp204:
	.loc	5 1063 3                        @ ../Drivers/STM32H7xx_HAL_Driver/Src/stm32h7xx_hal_flash_ex.c:1063:3
	uxtb	r2, r2
.Ltmp205:
	@DEBUG_VALUE: FLASH_OB_GetWRP:regvalue <- undef
	.loc	5 1072 16                       @ ../Drivers/STM32H7xx_HAL_Driver/Src/stm32h7xx_hal_flash_ex.c:1072:16
	str	r2, [r0, #8]
.Ltmp206:
	.loc	5 1074 17                       @ ../Drivers/STM32H7xx_HAL_Driver/Src/stm32h7xx_hal_flash_ex.c:1074:17
	cmp	r2, #0
	movt	lr, #15
	it	ne
	movne	r2, #1
	.loc	5 0 0 is_stmt 0                 @ ../Drivers/STM32H7xx_HAL_Driver/Src/stm32h7xx_hal_flash_ex.c:0:0
	str	r2, [r0, #4]
.Ltmp207:
	@DEBUG_VALUE: FLASH_OB_GetPCROP:PCROPConfig <- [DW_OP_plus_uconst 32, DW_OP_stack_value] $r0
	@DEBUG_VALUE: FLASH_OB_GetPCROP:PCROPStartAddr <- [DW_OP_plus_uconst 36, DW_OP_stack_value] $r0
	@DEBUG_VALUE: FLASH_OB_GetPCROP:PCROPEndAddr <- [DW_OP_plus_uconst 40, DW_OP_stack_value] $r0
	@DEBUG_VALUE: FLASH_OB_GetPCROP:bankBase <- 0
	@DEBUG_VALUE: FLASH_OB_GetPCROP:regvalue <- 0
	.loc	5 1453 23 is_stmt 1             @ ../Drivers/STM32H7xx_HAL_Driver/Src/stm32h7xx_hal_flash_ex.c:1453:23
	ldr	r2, [r1, #12]
.Ltmp208:
	@DEBUG_VALUE: FLASH_OB_GetPCROP:bankBase <- 134217728
	@DEBUG_VALUE: FLASH_OB_GetPCROP:regvalue <- $r2
	.loc	5 1467 70                       @ ../Drivers/STM32H7xx_HAL_Driver/Src/stm32h7xx_hal_flash_ex.c:1467:70
	bfi	r3, r2, #8, #12
	.loc	5 1465 31                       @ ../Drivers/STM32H7xx_HAL_Driver/Src/stm32h7xx_hal_flash_ex.c:1465:31
	and	r12, r2, #-2147483648
	.loc	5 1469 38                       @ ../Drivers/STM32H7xx_HAL_Driver/Src/stm32h7xx_hal_flash_ex.c:1469:38
	and.w	r2, lr, r2, lsr #8
.Ltmp209:
	.loc	5 1465 18                       @ ../Drivers/STM32H7xx_HAL_Driver/Src/stm32h7xx_hal_flash_ex.c:1465:18
	str.w	r12, [r0, #32]
	.loc	5 1467 21                       @ ../Drivers/STM32H7xx_HAL_Driver/Src/stm32h7xx_hal_flash_ex.c:1467:21
	str	r3, [r0, #36]
	.loc	5 1469 44                       @ ../Drivers/STM32H7xx_HAL_Driver/Src/stm32h7xx_hal_flash_ex.c:1469:44
	add.w	r2, r2, #134217728
	.loc	5 1469 19 is_stmt 0             @ ../Drivers/STM32H7xx_HAL_Driver/Src/stm32h7xx_hal_flash_ex.c:1469:19
	str	r2, [r0, #40]
.Ltmp210:
	@DEBUG_VALUE: FLASH_OB_GetSecureArea:SecureAreaConfig <- [DW_OP_plus_uconst 56, DW_OP_stack_value] $r0
	@DEBUG_VALUE: FLASH_OB_GetSecureArea:SecureAreaStartAddr <- [DW_OP_plus_uconst 60, DW_OP_stack_value] $r0
	@DEBUG_VALUE: FLASH_OB_GetSecureArea:SecureAreaEndAddr <- [DW_OP_plus_uconst 64, DW_OP_stack_value] $r0
	@DEBUG_VALUE: FLASH_OB_GetSecureArea:bankBase <- 0
	@DEBUG_VALUE: FLASH_OB_GetSecureArea:regvalue <- 0
	.loc	5 0 19                          @ ../Drivers/STM32H7xx_HAL_Driver/Src/stm32h7xx_hal_flash_ex.c:0:19
	mov.w	r3, #134217728
.Ltmp211:
	.loc	5 1686 23 is_stmt 1             @ ../Drivers/STM32H7xx_HAL_Driver/Src/stm32h7xx_hal_flash_ex.c:1686:23
	ldr	r2, [r1, #20]
.Ltmp212:
	@DEBUG_VALUE: FLASH_OB_GetSecureArea:bankBase <- 134217728
	@DEBUG_VALUE: FLASH_OB_GetSecureArea:regvalue <- $r2
	.loc	5 1700 74                       @ ../Drivers/STM32H7xx_HAL_Driver/Src/stm32h7xx_hal_flash_ex.c:1700:74
	bfi	r3, r2, #8, #12
	.loc	5 1699 35                       @ ../Drivers/STM32H7xx_HAL_Driver/Src/stm32h7xx_hal_flash_ex.c:1699:35
	and	r12, r2, #-2147483648
	.loc	5 1702 48                       @ ../Drivers/STM32H7xx_HAL_Driver/Src/stm32h7xx_hal_flash_ex.c:1702:48
	and.w	r2, lr, r2, lsr #8
.Ltmp213:
	.loc	5 1699 23                       @ ../Drivers/STM32H7xx_HAL_Driver/Src/stm32h7xx_hal_flash_ex.c:1699:23
	str.w	r12, [r0, #56]
	.loc	5 1702 54                       @ ../Drivers/STM32H7xx_HAL_Driver/Src/stm32h7xx_hal_flash_ex.c:1702:54
	add.w	r2, r2, #134217728
	.loc	5 1700 26                       @ ../Drivers/STM32H7xx_HAL_Driver/Src/stm32h7xx_hal_flash_ex.c:1700:26
	strd	r3, r2, [r0, #60]
	movs	r2, #127
.Ltmp214:
	@DEBUG_VALUE: FLASH_OB_GetSecureArea:Bank <- undef
	@DEBUG_VALUE: FLASH_OB_GetPCROP:Bank <- undef
	@DEBUG_VALUE: FLASH_OB_GetWRP:Bank <- undef
	.loc	5 0 26 is_stmt 0                @ ../Drivers/STM32H7xx_HAL_Driver/Src/stm32h7xx_hal_flash_ex.c:0:26
	b	.LBB4_3
.Ltmp215:
	.p2align	2
.LBB4_2:
	@DEBUG_VALUE: HAL_FLASHEx_OBGetConfig:pOBInit <- $r0
	movs	r2, #86
.Ltmp216:
.LBB4_3:
	@DEBUG_VALUE: HAL_FLASHEx_OBGetConfig:pOBInit <- $r0
	@DEBUG_VALUE: FLASH_OB_GetBootAdd:BootAddress0 <- [DW_OP_plus_uconst 48, DW_OP_stack_value] $r0
	@DEBUG_VALUE: FLASH_OB_GetBootAdd:BootAddress1 <- [DW_OP_plus_uconst 52, DW_OP_stack_value] $r0
	.loc	5 1562 21 is_stmt 1             @ ../Drivers/STM32H7xx_HAL_Driver/Src/stm32h7xx_hal_flash_ex.c:1562:21
	ldr	r1, [r1, #36]
.Ltmp217:
	@DEBUG_VALUE: FLASH_OB_GetBootAdd:regvalue <- $r1
	.loc	5 0 21 is_stmt 0                @ ../Drivers/STM32H7xx_HAL_Driver/Src/stm32h7xx_hal_flash_ex.c:0:21
	movw	r12, #65535
	.loc	5 1564 50 is_stmt 1             @ ../Drivers/STM32H7xx_HAL_Driver/Src/stm32h7xx_hal_flash_ex.c:1564:50
	lsls	r3, r1, #16
	.loc	5 1564 19 is_stmt 0             @ ../Drivers/STM32H7xx_HAL_Driver/Src/stm32h7xx_hal_flash_ex.c:1564:19
	str	r3, [r0, #48]
	.loc	5 1565 31 is_stmt 1             @ ../Drivers/STM32H7xx_HAL_Driver/Src/stm32h7xx_hal_flash_ex.c:1565:31
	bic.w	r1, r1, r12
.Ltmp218:
	.loc	5 1565 19 is_stmt 0             @ ../Drivers/STM32H7xx_HAL_Driver/Src/stm32h7xx_hal_flash_ex.c:1565:19
	str	r1, [r0, #52]
.Ltmp219:
	.loc	5 596 23 is_stmt 1              @ ../Drivers/STM32H7xx_HAL_Driver/Src/stm32h7xx_hal_flash_ex.c:596:23
	str	r2, [r0]
	.loc	5 619 1                         @ ../Drivers/STM32H7xx_HAL_Driver/Src/stm32h7xx_hal_flash_ex.c:619:1
	pop	{r7, pc}
.Ltmp220:
.Lfunc_end4:
	.size	HAL_FLASHEx_OBGetConfig, .Lfunc_end4-HAL_FLASHEx_OBGetConfig
	.cfi_endproc
	.cantunwind
	.fnend
                                        @ -- End function
	.hidden	HAL_FLASHEx_Unlock_Bank1        @ -- Begin function HAL_FLASHEx_Unlock_Bank1
	.globl	HAL_FLASHEx_Unlock_Bank1
	.p2align	3
	.type	HAL_FLASHEx_Unlock_Bank1,%function
	.code	16                              @ @HAL_FLASHEx_Unlock_Bank1
	.thumb_func
HAL_FLASHEx_Unlock_Bank1:
.Lfunc_begin5:
	.loc	5 626 0                         @ ../Drivers/STM32H7xx_HAL_Driver/Src/stm32h7xx_hal_flash_ex.c:626:0
	.fnstart
	.cfi_startproc
@ %bb.0:
	movw	r0, #8196
	movt	r0, #20992
.Ltmp221:
	.loc	5 627 6 prologue_end            @ ../Drivers/STM32H7xx_HAL_Driver/Src/stm32h7xx_hal_flash_ex.c:627:6
	ldr	r1, [r0, #8]
.Ltmp222:
	.loc	5 627 6 is_stmt 0               @ ../Drivers/STM32H7xx_HAL_Driver/Src/stm32h7xx_hal_flash_ex.c:627:6
	lsls	r1, r1, #31
	beq	.LBB5_2
@ %bb.1:
	.loc	5 0 6                           @ ../Drivers/STM32H7xx_HAL_Driver/Src/stm32h7xx_hal_flash_ex.c:0:6
	movw	r1, #291
	movt	r1, #17767
.Ltmp223:
	.loc	5 630 5 is_stmt 1               @ ../Drivers/STM32H7xx_HAL_Driver/Src/stm32h7xx_hal_flash_ex.c:630:5
	str	r1, [r0]
	movw	r1, #35243
	movt	r1, #52719
	.loc	5 631 5                         @ ../Drivers/STM32H7xx_HAL_Driver/Src/stm32h7xx_hal_flash_ex.c:631:5
	str	r1, [r0]
.Ltmp224:
	.loc	5 634 9                         @ ../Drivers/STM32H7xx_HAL_Driver/Src/stm32h7xx_hal_flash_ex.c:634:9
	ldr	r0, [r0, #8]
.Ltmp225:
	.loc	5 634 9 is_stmt 0               @ ../Drivers/STM32H7xx_HAL_Driver/Src/stm32h7xx_hal_flash_ex.c:634:9
	lsls	r0, r0, #31
	bne	.LBB5_3
.Ltmp226:
.LBB5_2:
	.loc	5 0 9                           @ ../Drivers/STM32H7xx_HAL_Driver/Src/stm32h7xx_hal_flash_ex.c:0:9
	movs	r0, #0
	.loc	5 641 1 is_stmt 1               @ ../Drivers/STM32H7xx_HAL_Driver/Src/stm32h7xx_hal_flash_ex.c:641:1
	bx	lr
	.p2align	2
.LBB5_3:
	.loc	5 0 1 is_stmt 0                 @ ../Drivers/STM32H7xx_HAL_Driver/Src/stm32h7xx_hal_flash_ex.c:0:1
	movs	r0, #1
	.loc	5 641 1                         @ ../Drivers/STM32H7xx_HAL_Driver/Src/stm32h7xx_hal_flash_ex.c:641:1
	bx	lr
.Ltmp227:
.Lfunc_end5:
	.size	HAL_FLASHEx_Unlock_Bank1, .Lfunc_end5-HAL_FLASHEx_Unlock_Bank1
	.cfi_endproc
	.cantunwind
	.fnend
                                        @ -- End function
	.hidden	HAL_FLASHEx_Lock_Bank1          @ -- Begin function HAL_FLASHEx_Lock_Bank1
	.globl	HAL_FLASHEx_Lock_Bank1
	.p2align	3
	.type	HAL_FLASHEx_Lock_Bank1,%function
	.code	16                              @ @HAL_FLASHEx_Lock_Bank1
	.thumb_func
HAL_FLASHEx_Lock_Bank1:
.Lfunc_begin6:
	.loc	5 648 0 is_stmt 1               @ ../Drivers/STM32H7xx_HAL_Driver/Src/stm32h7xx_hal_flash_ex.c:648:0
	.fnstart
	.cfi_startproc
@ %bb.0:
	movw	r1, #8204
.Ltmp228:
	.loc	5 651 3 prologue_end            @ ../Drivers/STM32H7xx_HAL_Driver/Src/stm32h7xx_hal_flash_ex.c:651:3
	movs	r0, #0
	movt	r1, #20992
	.loc	5 650 3                         @ ../Drivers/STM32H7xx_HAL_Driver/Src/stm32h7xx_hal_flash_ex.c:650:3
	ldr	r2, [r1]
	orr	r2, r2, #1
	str	r2, [r1]
	.loc	5 651 3                         @ ../Drivers/STM32H7xx_HAL_Driver/Src/stm32h7xx_hal_flash_ex.c:651:3
	bx	lr
.Ltmp229:
.Lfunc_end6:
	.size	HAL_FLASHEx_Lock_Bank1, .Lfunc_end6-HAL_FLASHEx_Lock_Bank1
	.cfi_endproc
	.cantunwind
	.fnend
                                        @ -- End function
	.hidden	HAL_FLASHEx_ComputeCRC          @ -- Begin function HAL_FLASHEx_ComputeCRC
	.globl	HAL_FLASHEx_ComputeCRC
	.p2align	3
	.type	HAL_FLASHEx_ComputeCRC,%function
	.code	16                              @ @HAL_FLASHEx_ComputeCRC
	.thumb_func
HAL_FLASHEx_ComputeCRC:
.Lfunc_begin7:
	.loc	5 701 0                         @ ../Drivers/STM32H7xx_HAL_Driver/Src/stm32h7xx_hal_flash_ex.c:701:0
	.fnstart
	.cfi_startproc
@ %bb.0:
	@DEBUG_VALUE: HAL_FLASHEx_ComputeCRC:pCRCInit <- $r0
	@DEBUG_VALUE: HAL_FLASHEx_ComputeCRC:CRC_Result <- $r1
	.save	{r4, r5, r6, lr}
	push	{r4, r5, r6, lr}
	.cfi_def_cfa_offset 16
	.cfi_offset lr, -4
	.cfi_offset r6, -8
	.cfi_offset r5, -12
	.cfi_offset r4, -16
	mov	r5, r0
.Ltmp230:
	@DEBUG_VALUE: HAL_FLASHEx_ComputeCRC:pCRCInit <- $r5
	@DEBUG_VALUE: HAL_FLASHEx_ComputeCRC:pCRCInit <- $r5
	.loc	5 710 12 prologue_end           @ ../Drivers/STM32H7xx_HAL_Driver/Src/stm32h7xx_hal_flash_ex.c:710:12
	movw	r0, #50000
	mov	r4, r1
.Ltmp231:
	@DEBUG_VALUE: HAL_FLASHEx_ComputeCRC:CRC_Result <- $r4
	@DEBUG_VALUE: HAL_FLASHEx_ComputeCRC:CRC_Result <- $r4
	bl	FLASH_OB_WaitForLastOperation
.Ltmp232:
	@DEBUG_VALUE: HAL_FLASHEx_ComputeCRC:status <- $r0
	.loc	5 712 7                         @ ../Drivers/STM32H7xx_HAL_Driver/Src/stm32h7xx_hal_flash_ex.c:712:7
	cmp	r0, #0
	@DEBUG_VALUE: HAL_FLASHEx_ComputeCRC:status <- $r0
	.loc	5 814 3                         @ ../Drivers/STM32H7xx_HAL_Driver/Src/stm32h7xx_hal_flash_ex.c:814:3
	it	ne
	popne	{r4, r5, r6, pc}
.Ltmp233:
.LBB7_1:
	@DEBUG_VALUE: HAL_FLASHEx_ComputeCRC:status <- $r0
	.loc	5 714 19                        @ ../Drivers/STM32H7xx_HAL_Driver/Src/stm32h7xx_hal_flash_ex.c:714:19
	ldr	r0, [r5, #8]
.Ltmp234:
	.loc	5 714 9 is_stmt 0               @ ../Drivers/STM32H7xx_HAL_Driver/Src/stm32h7xx_hal_flash_ex.c:714:9
	cmp	r0, #1
	bne	.LBB7_9
@ %bb.2:
	.loc	5 0 9                           @ ../Drivers/STM32H7xx_HAL_Driver/Src/stm32h7xx_hal_flash_ex.c:0:9
	movw	r6, #8272
	movt	r6, #20992
.Ltmp235:
	.loc	5 717 18 is_stmt 1              @ ../Drivers/STM32H7xx_HAL_Driver/Src/stm32h7xx_hal_flash_ex.c:717:18
	ldr	r0, [r6, #-68]
	orr	r0, r0, #32768
	str	r0, [r6, #-68]
	.loc	5 720 19                        @ ../Drivers/STM32H7xx_HAL_Driver/Src/stm32h7xx_hal_flash_ex.c:720:19
	ldr	r0, [r6, #-60]
	orr	r0, r0, #402653184
	str	r0, [r6, #-60]
	.loc	5 723 80                        @ ../Drivers/STM32H7xx_HAL_Driver/Src/stm32h7xx_hal_flash_ex.c:723:80
	ldrd	r0, r1, [r5]
	.loc	5 723 21 is_stmt 0              @ ../Drivers/STM32H7xx_HAL_Driver/Src/stm32h7xx_hal_flash_ex.c:723:21
	ldr	r2, [r6]
	orrs	r1, r2
	movw	r2, #256
	movt	r2, #64
	orrs	r1, r0
	.loc	5 725 11 is_stmt 1              @ ../Drivers/STM32H7xx_HAL_Driver/Src/stm32h7xx_hal_flash_ex.c:725:11
	cmp	r0, r2
	.loc	5 723 21                        @ ../Drivers/STM32H7xx_HAL_Driver/Src/stm32h7xx_hal_flash_ex.c:723:21
	orr	r1, r1, #131072
	str	r1, [r6]
	.loc	5 725 11                        @ ../Drivers/STM32H7xx_HAL_Driver/Src/stm32h7xx_hal_flash_ex.c:725:11
	beq	.LBB7_10
@ %bb.3:
	cmp.w	r0, #256
	bne	.LBB7_11
@ %bb.4:
.Ltmp236:
	.loc	5 728 23                        @ ../Drivers/STM32H7xx_HAL_Driver/Src/stm32h7xx_hal_flash_ex.c:728:23
	ldr	r0, [r6]
	orr	r0, r0, #1024
	str	r0, [r6]
.Ltmp237:
	@DEBUG_VALUE: HAL_FLASHEx_ComputeCRC:sector_index <- undef
	.loc	5 731 38                        @ ../Drivers/STM32H7xx_HAL_Driver/Src/stm32h7xx_hal_flash_ex.c:731:38
	ldrd	r2, r1, [r5, #12]
	adds	r0, r1, r2
.Ltmp238:
	@DEBUG_VALUE: HAL_FLASHEx_ComputeCRC:sector_index <- $r2
	.loc	5 731 9 is_stmt 0               @ ../Drivers/STM32H7xx_HAL_Driver/Src/stm32h7xx_hal_flash_ex.c:731:9
	cmp	r2, r0
	bhs	.LBB7_12
.Ltmp239:
@ %bb.5:
	@DEBUG_VALUE: HAL_FLASHEx_ComputeCRC:sector_index <- $r2
	ands	r5, r1, #3
	sub.w	r12, r1, #1
	beq	.LBB7_13
.Ltmp240:
@ %bb.6:
	@DEBUG_VALUE: HAL_FLASHEx_ComputeCRC:sector_index <- $r2
	@DEBUG_VALUE: HAL_FLASHEx_ComputeCRC:sector_index <- $r2
	@DEBUG_VALUE: FLASH_CRC_AddSector:Sector <- $r2
	@DEBUG_VALUE: FLASH_CRC_AddSector:Bank <- 1
	.loc	5 1719 19 is_stmt 1             @ ../Drivers/STM32H7xx_HAL_Driver/Src/stm32h7xx_hal_flash_ex.c:1719:19
	ldr	r1, [r6]
.Ltmp241:
	.loc	5 731 9                         @ ../Drivers/STM32H7xx_HAL_Driver/Src/stm32h7xx_hal_flash_ex.c:731:9
	cmp	r5, #1
.Ltmp242:
	.loc	5 1719 19                       @ ../Drivers/STM32H7xx_HAL_Driver/Src/stm32h7xx_hal_flash_ex.c:1719:19
	bic	r1, r1, #7
	str	r1, [r6]
	.loc	5 1722 19                       @ ../Drivers/STM32H7xx_HAL_Driver/Src/stm32h7xx_hal_flash_ex.c:1722:19
	ldr	r1, [r6]
	orr.w	r1, r1, r2
	orr	r1, r1, #512
	str	r1, [r6]
.Ltmp243:
	@DEBUG_VALUE: FLASH_CRC_AddSector:Bank <- 1
	.loc	5 731 115                       @ ../Drivers/STM32H7xx_HAL_Driver/Src/stm32h7xx_hal_flash_ex.c:731:115
	add.w	r1, r2, #1
.Ltmp244:
	@DEBUG_VALUE: HAL_FLASHEx_ComputeCRC:sector_index <- $r1
	.loc	5 731 9 is_stmt 0               @ ../Drivers/STM32H7xx_HAL_Driver/Src/stm32h7xx_hal_flash_ex.c:731:9
	beq	.LBB7_14
.Ltmp245:
@ %bb.7:
	@DEBUG_VALUE: HAL_FLASHEx_ComputeCRC:sector_index <- $r1
	@DEBUG_VALUE: FLASH_CRC_AddSector:Bank <- 1
	@DEBUG_VALUE: FLASH_CRC_AddSector:Sector <- $r2
	@DEBUG_VALUE: HAL_FLASHEx_ComputeCRC:sector_index <- undef
	@DEBUG_VALUE: FLASH_CRC_AddSector:Sector <- undef
	@DEBUG_VALUE: FLASH_CRC_AddSector:Bank <- 1
	.loc	5 1719 19 is_stmt 1             @ ../Drivers/STM32H7xx_HAL_Driver/Src/stm32h7xx_hal_flash_ex.c:1719:19
	ldr	r3, [r6]
.Ltmp246:
	.loc	5 731 9                         @ ../Drivers/STM32H7xx_HAL_Driver/Src/stm32h7xx_hal_flash_ex.c:731:9
	cmp	r5, #2
.Ltmp247:
	.loc	5 1719 19                       @ ../Drivers/STM32H7xx_HAL_Driver/Src/stm32h7xx_hal_flash_ex.c:1719:19
	bic	r3, r3, #7
	str	r3, [r6]
	.loc	5 1722 19                       @ ../Drivers/STM32H7xx_HAL_Driver/Src/stm32h7xx_hal_flash_ex.c:1722:19
	ldr	r3, [r6]
	orr.w	r1, r1, r3
	orr	r1, r1, #512
	str	r1, [r6]
.Ltmp248:
	@DEBUG_VALUE: FLASH_CRC_AddSector:Bank <- 1
	.loc	5 731 115                       @ ../Drivers/STM32H7xx_HAL_Driver/Src/stm32h7xx_hal_flash_ex.c:731:115
	add.w	r1, r2, #2
.Ltmp249:
	@DEBUG_VALUE: HAL_FLASHEx_ComputeCRC:sector_index <- $r1
	.loc	5 731 9 is_stmt 0               @ ../Drivers/STM32H7xx_HAL_Driver/Src/stm32h7xx_hal_flash_ex.c:731:9
	beq	.LBB7_14
.Ltmp250:
@ %bb.8:
	@DEBUG_VALUE: HAL_FLASHEx_ComputeCRC:sector_index <- $r1
	@DEBUG_VALUE: FLASH_CRC_AddSector:Bank <- 1
	@DEBUG_VALUE: HAL_FLASHEx_ComputeCRC:sector_index <- undef
	@DEBUG_VALUE: FLASH_CRC_AddSector:Sector <- undef
	@DEBUG_VALUE: FLASH_CRC_AddSector:Bank <- 1
	.loc	5 1719 19 is_stmt 1             @ ../Drivers/STM32H7xx_HAL_Driver/Src/stm32h7xx_hal_flash_ex.c:1719:19
	ldr	r3, [r6]
	bic	r3, r3, #7
	str	r3, [r6]
	.loc	5 1722 19                       @ ../Drivers/STM32H7xx_HAL_Driver/Src/stm32h7xx_hal_flash_ex.c:1722:19
	ldr	r3, [r6]
	orrs	r1, r3
	orr	r1, r1, #512
	str	r1, [r6]
.Ltmp251:
	.loc	5 731 115                       @ ../Drivers/STM32H7xx_HAL_Driver/Src/stm32h7xx_hal_flash_ex.c:731:115
	adds	r1, r2, #3
.Ltmp252:
	@DEBUG_VALUE: HAL_FLASHEx_ComputeCRC:sector_index <- $r1
	.loc	5 0 115 is_stmt 0               @ ../Drivers/STM32H7xx_HAL_Driver/Src/stm32h7xx_hal_flash_ex.c:0:115
	b	.LBB7_14
.Ltmp253:
	.p2align	2
.LBB7_9:
	movs	r0, #0
.Ltmp254:
	@DEBUG_VALUE: HAL_FLASHEx_ComputeCRC:status <- $r0
	.loc	5 814 3 is_stmt 1               @ ../Drivers/STM32H7xx_HAL_Driver/Src/stm32h7xx_hal_flash_ex.c:814:3
	pop	{r4, r5, r6, pc}
.Ltmp255:
	.p2align	2
.LBB7_10:
	.loc	5 739 23                        @ ../Drivers/STM32H7xx_HAL_Driver/Src/stm32h7xx_hal_flash_ex.c:739:23
	ldr	r0, [r6]
	orr	r0, r0, #4194304
	str	r0, [r6]
	b	.LBB7_12
.Ltmp256:
	.p2align	2
.LBB7_11:
	@DEBUG_VALUE: FLASH_CRC_SelectAddress:CRCEndAddr <- undef
	@DEBUG_VALUE: FLASH_CRC_SelectAddress:CRCStartAddr <- undef
	.loc	5 744 43                        @ ../Drivers/STM32H7xx_HAL_Driver/Src/stm32h7xx_hal_flash_ex.c:744:43
	ldrd	r0, r1, [r5, #20]
.Ltmp257:
	@DEBUG_VALUE: FLASH_CRC_SelectAddress:Bank <- 1
	.loc	5 1751 21                       @ ../Drivers/STM32H7xx_HAL_Driver/Src/stm32h7xx_hal_flash_ex.c:1751:21
	str	r0, [r6, #4]
	.loc	5 1752 21                       @ ../Drivers/STM32H7xx_HAL_Driver/Src/stm32h7xx_hal_flash_ex.c:1752:21
	str	r1, [r6, #8]
.Ltmp258:
.LBB7_12:
	.loc	5 748 21                        @ ../Drivers/STM32H7xx_HAL_Driver/Src/stm32h7xx_hal_flash_ex.c:748:21
	ldr	r0, [r6]
	.loc	5 751 16                        @ ../Drivers/STM32H7xx_HAL_Driver/Src/stm32h7xx_hal_flash_ex.c:751:16
	movs	r1, #1
	.loc	5 748 21                        @ ../Drivers/STM32H7xx_HAL_Driver/Src/stm32h7xx_hal_flash_ex.c:748:21
	orr	r0, r0, #65536
	str	r0, [r6]
	.loc	5 751 16                        @ ../Drivers/STM32H7xx_HAL_Driver/Src/stm32h7xx_hal_flash_ex.c:751:16
	movw	r0, #50000
	bl	FLASH_CRC_WaitForLastOperation
.Ltmp259:
	.loc	5 754 30                        @ ../Drivers/STM32H7xx_HAL_Driver/Src/stm32h7xx_hal_flash_ex.c:754:30
	ldr	r1, [r6, #12]
	.loc	5 754 21 is_stmt 0              @ ../Drivers/STM32H7xx_HAL_Driver/Src/stm32h7xx_hal_flash_ex.c:754:21
	str	r1, [r4]
.Ltmp260:
	@DEBUG_VALUE: HAL_FLASHEx_ComputeCRC:status <- undef
	.loc	5 757 18 is_stmt 1              @ ../Drivers/STM32H7xx_HAL_Driver/Src/stm32h7xx_hal_flash_ex.c:757:18
	ldr	r1, [r6, #-68]
	bic	r1, r1, #32768
	str	r1, [r6, #-68]
	mov.w	r1, #402653184
	.loc	5 760 7                         @ ../Drivers/STM32H7xx_HAL_Driver/Src/stm32h7xx_hal_flash_ex.c:760:7
	str	r1, [r6, #-60]
.Ltmp261:
	@DEBUG_VALUE: HAL_FLASHEx_ComputeCRC:status <- $r0
	.loc	5 814 3                         @ ../Drivers/STM32H7xx_HAL_Driver/Src/stm32h7xx_hal_flash_ex.c:814:3
	pop	{r4, r5, r6, pc}
.Ltmp262:
	.p2align	2
.LBB7_13:
	@DEBUG_VALUE: HAL_FLASHEx_ComputeCRC:sector_index <- $r2
	.loc	5 0 3 is_stmt 0                 @ ../Drivers/STM32H7xx_HAL_Driver/Src/stm32h7xx_hal_flash_ex.c:0:3
	mov	r1, r2
.Ltmp263:
.LBB7_14:
	.loc	5 731 9 is_stmt 1               @ ../Drivers/STM32H7xx_HAL_Driver/Src/stm32h7xx_hal_flash_ex.c:731:9
	cmp.w	r12, #3
	blo	.LBB7_12
	.p2align	2
.LBB7_15:                               @ =>This Inner Loop Header: Depth=1
.Ltmp264:
	@DEBUG_VALUE: HAL_FLASHEx_ComputeCRC:sector_index <- $r1
	@DEBUG_VALUE: FLASH_CRC_AddSector:Sector <- $r1
	@DEBUG_VALUE: FLASH_CRC_AddSector:Bank <- 1
	.loc	5 1719 19                       @ ../Drivers/STM32H7xx_HAL_Driver/Src/stm32h7xx_hal_flash_ex.c:1719:19
	ldr	r2, [r6]
	bic	r2, r2, #7
	str	r2, [r6]
	.loc	5 1722 19                       @ ../Drivers/STM32H7xx_HAL_Driver/Src/stm32h7xx_hal_flash_ex.c:1722:19
	ldr	r2, [r6]
	orrs	r2, r1
	orr	r2, r2, #512
	str	r2, [r6]
	.loc	5 1719 19                       @ ../Drivers/STM32H7xx_HAL_Driver/Src/stm32h7xx_hal_flash_ex.c:1719:19
	ldr	r2, [r6]
	bic	r2, r2, #7
	str	r2, [r6]
.Ltmp265:
	.loc	5 731 115                       @ ../Drivers/STM32H7xx_HAL_Driver/Src/stm32h7xx_hal_flash_ex.c:731:115
	adds	r2, r1, #1
.Ltmp266:
	@DEBUG_VALUE: FLASH_CRC_AddSector:Sector <- $r2
	@DEBUG_VALUE: HAL_FLASHEx_ComputeCRC:sector_index <- $r2
	.loc	5 1722 19                       @ ../Drivers/STM32H7xx_HAL_Driver/Src/stm32h7xx_hal_flash_ex.c:1722:19
	ldr	r3, [r6]
	@DEBUG_VALUE: FLASH_CRC_AddSector:Bank <- 1
	orrs	r2, r3
.Ltmp267:
	adds	r3, r1, #2
	orr	r2, r2, #512
	str	r2, [r6]
.Ltmp268:
	@DEBUG_VALUE: FLASH_CRC_AddSector:Sector <- [DW_OP_plus_uconst 2, DW_OP_stack_value] $r1
	@DEBUG_VALUE: HAL_FLASHEx_ComputeCRC:sector_index <- [DW_OP_plus_uconst 2, DW_OP_stack_value] $r1
	.loc	5 1719 19                       @ ../Drivers/STM32H7xx_HAL_Driver/Src/stm32h7xx_hal_flash_ex.c:1719:19
	ldr	r2, [r6]
	bic	r2, r2, #7
	str	r2, [r6]
	.loc	5 1722 19                       @ ../Drivers/STM32H7xx_HAL_Driver/Src/stm32h7xx_hal_flash_ex.c:1722:19
	ldr	r2, [r6]
	orrs	r2, r3
	adds	r3, r1, #3
	orr	r2, r2, #512
	str	r2, [r6]
.Ltmp269:
	@DEBUG_VALUE: FLASH_CRC_AddSector:Sector <- [DW_OP_plus_uconst 3, DW_OP_stack_value] $r1
	@DEBUG_VALUE: HAL_FLASHEx_ComputeCRC:sector_index <- [DW_OP_plus_uconst 3, DW_OP_stack_value] $r1
	.loc	5 1719 19                       @ ../Drivers/STM32H7xx_HAL_Driver/Src/stm32h7xx_hal_flash_ex.c:1719:19
	ldr	r2, [r6]
.Ltmp270:
	.loc	5 731 59                        @ ../Drivers/STM32H7xx_HAL_Driver/Src/stm32h7xx_hal_flash_ex.c:731:59
	adds	r1, #4
.Ltmp271:
	.loc	5 1719 19                       @ ../Drivers/STM32H7xx_HAL_Driver/Src/stm32h7xx_hal_flash_ex.c:1719:19
	bic	r2, r2, #7
	str	r2, [r6]
	.loc	5 1722 19                       @ ../Drivers/STM32H7xx_HAL_Driver/Src/stm32h7xx_hal_flash_ex.c:1722:19
	ldr	r2, [r6]
.Ltmp272:
	.loc	5 731 9                         @ ../Drivers/STM32H7xx_HAL_Driver/Src/stm32h7xx_hal_flash_ex.c:731:9
	cmp	r1, r0
.Ltmp273:
	.loc	5 1722 19                       @ ../Drivers/STM32H7xx_HAL_Driver/Src/stm32h7xx_hal_flash_ex.c:1722:19
	orr.w	r2, r2, r3
	@DEBUG_VALUE: FLASH_CRC_AddSector:Bank <- 1
	orr	r2, r2, #512
	@DEBUG_VALUE: FLASH_CRC_AddSector:Bank <- 1
	str	r2, [r6]
.Ltmp274:
	@DEBUG_VALUE: HAL_FLASHEx_ComputeCRC:sector_index <- [DW_OP_plus_uconst 4, DW_OP_stack_value] $r1
	.loc	5 731 9                         @ ../Drivers/STM32H7xx_HAL_Driver/Src/stm32h7xx_hal_flash_ex.c:731:9
	bne	.LBB7_15
	b	.LBB7_12
.Ltmp275:
.Lfunc_end7:
	.size	HAL_FLASHEx_ComputeCRC, .Lfunc_end7-HAL_FLASHEx_ComputeCRC
	.cfi_endproc
	.cantunwind
	.fnend
                                        @ -- End function
	.file	6 "F:\\3.git\\1.Github\\ExFlash_Algorithm\\embedfire\\Algorithm_QSPI\\STLDR\\MDK-ARM" "../Drivers/STM32H7xx_HAL_Driver/Inc/stm32h7xx_hal_flash_ex.h"
	.section	".note.GNU-stack","",%progbits
	.eabi_attribute	30, 2	@ Tag_ABI_optimization_goals
	.ARM_attribute	16, 1	@ Tag_AV_eba