	.text
	.syntax unified
	.eabi_attribute	67, "2.09"	@ Tag_conformance
	.cpu	cortex-m7
	.eabi_attribute	6, 13	@ Tag_CPU_arch
	.eabi_attribute	7, 77	@ Tag_CPU_arch_profile
	.eabi_attribute	8, 0	@ Tag_ARM_ISA_use
	.eabi_attribute	9, 2	@ Tag_THUMB_ISA_use
	.fpu	fpv5-d16
	.eabi_attribute	36, 1	@ Tag_FP_HP_extension
	.eabi_attribute	34, 1	@ Tag_CPU_unaligned_access
	.eabi_attribute	15, 2	@ Tag_ABI_PCS_RW_data
	.eabi_attribute	16, 1	@ Tag_ABI_PCS_RO_data
	.eabi_attribute	17, 1	@ Tag_ABI_PCS_GOT_use
	.eabi_attribute	20, 2	@ Tag_ABI_FP_denormal
	.eabi_attribute	21, 0	@ Tag_ABI_FP_exceptions
	.eabi_attribute	23, 1	@ Tag_ABI_FP_number_model
	.eabi_attribute	24, 1	@ Tag_ABI_align_needed
	.eabi_attribute	25, 1	@ Tag_ABI_align_preserved
	.eabi_attribute	28, 1	@ Tag_ABI_VFP_args
	.eabi_attribute	38, 1	@ Tag_ABI_FP_16bit_format
	.eabi_attribute	18, 2	@ Tag_ABI_PCS_wchar_t
	.eabi_attribute	26, 1	@ Tag_ABI_enum_size
	.eabi_attribute	14, 1	@ Tag_ABI_PCS_R9_use
	.file	"stm32h7xx_hal_rcc_ex.c"
	.file	1 "F:\\3.git\\1.Github\\ExFlash_Algorithm\\embedfire\\Algorithm_QSPI\\STLDR\\MDK-ARM" "../Drivers/STM32H7xx_HAL_Driver/Inc/stm32h7xx_hal_def.h"
	.file	2 "D:\\Program\\Keil\\Keil_v5\\ARM\\ARMCLANG\\Bin\\..\\include" "stdint.h"
	.file	3 "F:\\3.git\\1.Github\\ExFlash_Algorithm\\embedfire\\Algorithm_QSPI\\STLDR\\MDK-ARM" "../Drivers/CMSIS/Device/ST/STM32H7xx/Include/stm32h750xx.h"
	.file	4 "D:\\Program\\Keil\\Keil_v5\\ARM\\ARMCLANG\\Bin\\..\\include" "math.h"
	.hidden	HAL_RCCEx_PeriphCLKConfig       @ -- Begin function HAL_RCCEx_PeriphCLKConfig
	.globl	HAL_RCCEx_PeriphCLKConfig
	.p2align	3
	.type	HAL_RCCEx_PeriphCLKConfig,%function
	.code	16                              @ @HAL_RCCEx_PeriphCLKConfig
	.thumb_func
HAL_RCCEx_PeriphCLKConfig:
.Lfunc_begin0:
	.file	5 "F:\\3.git\\1.Github\\ExFlash_Algorithm\\embedfire\\Algorithm_QSPI\\STLDR\\MDK-ARM" "../Drivers/STM32H7xx_HAL_Driver/Src/stm32h7xx_hal_rcc_ex.c"
	.loc	5 106 0                         @ ../Drivers/STM32H7xx_HAL_Driver/Src/stm32h7xx_hal_rcc_ex.c:106:0
	.fnstart
	.cfi_sections .debug_frame
	.cfi_startproc
@ %bb.0:
	@DEBUG_VALUE: HAL_RCCEx_PeriphCLKConfig:PeriphClkInit <- $r0
	.save	{r4, r5, r6, r7, r8, r10, r11, lr}
	push.w	{r4, r5, r6, r7, r8, r10, r11, lr}
	.cfi_def_cfa_offset 32
	.cfi_offset lr, -4
	.cfi_offset r11, -8
	.cfi_offset r10, -12
	.cfi_offset r8, -16
	.cfi_offset r7, -20
	.cfi_offset r6, -24
	.cfi_offset r5, -28
	.cfi_offset r4, -32
	mov	r4, r0
.Ltmp0:
	@DEBUG_VALUE: HAL_RCCEx_PeriphCLKConfig:PeriphClkInit <- $r4
	.loc	5 114 71 prologue_end           @ ../Drivers/STM32H7xx_HAL_Driver/Src/stm32h7xx_hal_rcc_ex.c:114:71
	ldrb	r0, [r0, #3]
	movw	r8, #17452
.Ltmp1:
	.loc	5 114 7 is_stmt 0               @ ../Drivers/STM32H7xx_HAL_Driver/Src/stm32h7xx_hal_rcc_ex.c:114:7
	lsls	r0, r0, #28
	movt	r8, #22530
.Ltmp2:
	@DEBUG_VALUE: HAL_RCCEx_PeriphCLKConfig:status <- 0
	@DEBUG_VALUE: HAL_RCCEx_PeriphCLKConfig:ret <- 0
	bpl	.LBB0_12
.Ltmp3:
@ %bb.1:
	@DEBUG_VALUE: HAL_RCCEx_PeriphCLKConfig:ret <- 0
	@DEBUG_VALUE: HAL_RCCEx_PeriphCLKConfig:status <- 0
	@DEBUG_VALUE: HAL_RCCEx_PeriphCLKConfig:PeriphClkInit <- $r4
	.loc	5 117 28 is_stmt 1              @ ../Drivers/STM32H7xx_HAL_Driver/Src/stm32h7xx_hal_rcc_ex.c:117:28
	ldr	r0, [r4, #104]
	.loc	5 117 5 is_stmt 0               @ ../Drivers/STM32H7xx_HAL_Driver/Src/stm32h7xx_hal_rcc_ex.c:117:5
	ror.w	r1, r0, #20
	cmp	r1, #3
	bhi	.LBB0_5
.Ltmp4:
@ %bb.2:
	@DEBUG_VALUE: HAL_RCCEx_PeriphCLKConfig:ret <- 0
	@DEBUG_VALUE: HAL_RCCEx_PeriphCLKConfig:status <- 0
	@DEBUG_VALUE: HAL_RCCEx_PeriphCLKConfig:PeriphClkInit <- $r4
	.loc	5 0 5                           @ ../Drivers/STM32H7xx_HAL_Driver/Src/stm32h7xx_hal_rcc_ex.c:0:5
.LCPI0_0:
	tbb	[pc, r1]
.Ltmp5:
@ %bb.3:
.LJTI0_0:
	.byte	(.LBB0_4-(.LCPI0_0+4))/2
	.byte	(.LBB0_6-(.LCPI0_0+4))/2
	.byte	(.LBB0_9-(.LCPI0_0+4))/2
	.byte	(.LBB0_11-(.LCPI0_0+4))/2
	.p2align	1
	.p2align	2
.LBB0_4:
.Ltmp6:
	@DEBUG_VALUE: HAL_RCCEx_PeriphCLKConfig:ret <- 0
	@DEBUG_VALUE: HAL_RCCEx_PeriphCLKConfig:status <- 0
	@DEBUG_VALUE: HAL_RCCEx_PeriphCLKConfig:PeriphClkInit <- $r4
	.loc	5 121 9 is_stmt 1               @ ../Drivers/STM32H7xx_HAL_Driver/Src/stm32h7xx_hal_rcc_ex.c:121:9
	ldr.w	r1, [r8]
	orr	r1, r1, #131072
	str.w	r1, [r8]
	b	.LBB0_11
.Ltmp7:
	.p2align	2
.LBB0_5:
	@DEBUG_VALUE: HAL_RCCEx_PeriphCLKConfig:ret <- 0
	@DEBUG_VALUE: HAL_RCCEx_PeriphCLKConfig:status <- 0
	@DEBUG_VALUE: HAL_RCCEx_PeriphCLKConfig:PeriphClkInit <- $r4
	.loc	5 0 9 is_stmt 0                 @ ../Drivers/STM32H7xx_HAL_Driver/Src/stm32h7xx_hal_rcc_ex.c:0:9
	movs	r6, #1
.Ltmp8:
	@DEBUG_VALUE: HAL_RCCEx_PeriphCLKConfig:ret <- $r6
	@DEBUG_VALUE: HAL_RCCEx_PeriphCLKConfig:status <- $r6
	.loc	5 162 68 is_stmt 1              @ ../Drivers/STM32H7xx_HAL_Driver/Src/stm32h7xx_hal_rcc_ex.c:162:68
	ldrb	r0, [r4, #1]
.Ltmp9:
	.loc	5 162 7 is_stmt 0               @ ../Drivers/STM32H7xx_HAL_Driver/Src/stm32h7xx_hal_rcc_ex.c:162:7
	lsls	r0, r0, #31
	beq	.LBB0_8
	b	.LBB0_13
.Ltmp10:
	.p2align	2
.LBB0_6:
	@DEBUG_VALUE: HAL_RCCEx_PeriphCLKConfig:ret <- 0
	@DEBUG_VALUE: HAL_RCCEx_PeriphCLKConfig:status <- 0
	@DEBUG_VALUE: HAL_RCCEx_PeriphCLKConfig:PeriphClkInit <- $r4
	.loc	5 128 50 is_stmt 1              @ ../Drivers/STM32H7xx_HAL_Driver/Src/stm32h7xx_hal_rcc_ex.c:128:50
	add.w	r0, r4, #8
	.loc	5 128 15 is_stmt 0              @ ../Drivers/STM32H7xx_HAL_Driver/Src/stm32h7xx_hal_rcc_ex.c:128:15
	movs	r1, #2
	bl	RCCEx_PLL2_Config
.Ltmp11:
	.loc	5 0 0                           @ ../Drivers/STM32H7xx_HAL_Driver/Src/stm32h7xx_hal_rcc_ex.c:0:0
	mov	r6, r0
.Ltmp12:
	@DEBUG_VALUE: HAL_RCCEx_PeriphCLKConfig:ret <- undef
	@DEBUG_VALUE: HAL_RCCEx_PeriphCLKConfig:ret <- $r6
	.loc	5 149 9 is_stmt 1               @ ../Drivers/STM32H7xx_HAL_Driver/Src/stm32h7xx_hal_rcc_ex.c:149:9
	cbz	r0, .LBB0_10
.Ltmp13:
.LBB0_7:
	@DEBUG_VALUE: HAL_RCCEx_PeriphCLKConfig:ret <- $r6
	@DEBUG_VALUE: HAL_RCCEx_PeriphCLKConfig:status <- 0
	@DEBUG_VALUE: HAL_RCCEx_PeriphCLKConfig:PeriphClkInit <- $r4
	@DEBUG_VALUE: HAL_RCCEx_PeriphCLKConfig:ret <- $r6
	@DEBUG_VALUE: HAL_RCCEx_PeriphCLKConfig:status <- $r6
	.loc	5 162 68                        @ ../Drivers/STM32H7xx_HAL_Driver/Src/stm32h7xx_hal_rcc_ex.c:162:68
	ldrb	r0, [r4, #1]
.Ltmp14:
	.loc	5 162 7 is_stmt 0               @ ../Drivers/STM32H7xx_HAL_Driver/Src/stm32h7xx_hal_rcc_ex.c:162:7
	lsls	r0, r0, #31
	bne	.LBB0_13
.Ltmp15:
.LBB0_8:
	@DEBUG_VALUE: HAL_RCCEx_PeriphCLKConfig:status <- $r6
	@DEBUG_VALUE: HAL_RCCEx_PeriphCLKConfig:ret <- $r6
	@DEBUG_VALUE: HAL_RCCEx_PeriphCLKConfig:PeriphClkInit <- $r4
	.loc	5 0 7                           @ ../Drivers/STM32H7xx_HAL_Driver/Src/stm32h7xx_hal_rcc_ex.c:0:7
	mov	r5, r6
	b	.LBB0_24
.Ltmp16:
	.p2align	2
.LBB0_9:
	@DEBUG_VALUE: HAL_RCCEx_PeriphCLKConfig:ret <- 0
	@DEBUG_VALUE: HAL_RCCEx_PeriphCLKConfig:status <- 0
	@DEBUG_VALUE: HAL_RCCEx_PeriphCLKConfig:PeriphClkInit <- $r4
	.loc	5 134 50 is_stmt 1              @ ../Drivers/STM32H7xx_HAL_Driver/Src/stm32h7xx_hal_rcc_ex.c:134:50
	add.w	r0, r4, #40
	.loc	5 134 15 is_stmt 0              @ ../Drivers/STM32H7xx_HAL_Driver/Src/stm32h7xx_hal_rcc_ex.c:134:15
	movs	r1, #2
	bl	RCCEx_PLL3_Config
.Ltmp17:
	.loc	5 0 0                           @ ../Drivers/STM32H7xx_HAL_Driver/Src/stm32h7xx_hal_rcc_ex.c:0:0
	mov	r6, r0
.Ltmp18:
	@DEBUG_VALUE: HAL_RCCEx_PeriphCLKConfig:ret <- undef
	@DEBUG_VALUE: HAL_RCCEx_PeriphCLKConfig:ret <- $r6
	.loc	5 149 9 is_stmt 1               @ ../Drivers/STM32H7xx_HAL_Driver/Src/stm32h7xx_hal_rcc_ex.c:149:9
	cmp	r0, #0
	bne	.LBB0_7
.Ltmp19:
.LBB0_10:
	@DEBUG_VALUE: HAL_RCCEx_PeriphCLKConfig:ret <- $r6
	@DEBUG_VALUE: HAL_RCCEx_PeriphCLKConfig:status <- 0
	@DEBUG_VALUE: HAL_RCCEx_PeriphCLKConfig:PeriphClkInit <- $r4
	.loc	5 152 7                         @ ../Drivers/STM32H7xx_HAL_Driver/Src/stm32h7xx_hal_rcc_ex.c:152:7
	ldr	r0, [r4, #104]
.Ltmp20:
.LBB0_11:
	@DEBUG_VALUE: HAL_RCCEx_PeriphCLKConfig:status <- 0
	@DEBUG_VALUE: HAL_RCCEx_PeriphCLKConfig:PeriphClkInit <- $r4
	ldr.w	r1, [r8, #36]
	bic	r1, r1, #3145728
	orrs	r0, r1
	str.w	r0, [r8, #36]
.Ltmp21:
.LBB0_12:
	@DEBUG_VALUE: HAL_RCCEx_PeriphCLKConfig:status <- 0
	@DEBUG_VALUE: HAL_RCCEx_PeriphCLKConfig:PeriphClkInit <- $r4
	.loc	5 0 7 is_stmt 0                 @ ../Drivers/STM32H7xx_HAL_Driver/Src/stm32h7xx_hal_rcc_ex.c:0:7
	movs	r6, #0
.Ltmp22:
	@DEBUG_VALUE: HAL_RCCEx_PeriphCLKConfig:ret <- $r6
	@DEBUG_VALUE: HAL_RCCEx_PeriphCLKConfig:status <- $r6
	.loc	5 162 68 is_stmt 1              @ ../Drivers/STM32H7xx_HAL_Driver/Src/stm32h7xx_hal_rcc_ex.c:162:68
	ldrb	r0, [r4, #1]
.Ltmp23:
	.loc	5 162 7 is_stmt 0               @ ../Drivers/STM32H7xx_HAL_Driver/Src/stm32h7xx_hal_rcc_ex.c:162:7
	lsls	r0, r0, #31
	beq	.LBB0_8
.Ltmp24:
.LBB0_13:
	@DEBUG_VALUE: HAL_RCCEx_PeriphCLKConfig:status <- $r6
	@DEBUG_VALUE: HAL_RCCEx_PeriphCLKConfig:ret <- $r6
	@DEBUG_VALUE: HAL_RCCEx_PeriphCLKConfig:PeriphClkInit <- $r4
	.loc	5 164 28 is_stmt 1              @ ../Drivers/STM32H7xx_HAL_Driver/Src/stm32h7xx_hal_rcc_ex.c:164:28
	ldr	r0, [r4, #88]
	.loc	5 164 5 is_stmt 0               @ ../Drivers/STM32H7xx_HAL_Driver/Src/stm32h7xx_hal_rcc_ex.c:164:5
	cmp	r0, #4
	bhi	.LBB0_17
.Ltmp25:
@ %bb.14:
	@DEBUG_VALUE: HAL_RCCEx_PeriphCLKConfig:status <- $r6
	@DEBUG_VALUE: HAL_RCCEx_PeriphCLKConfig:ret <- $r6
	@DEBUG_VALUE: HAL_RCCEx_PeriphCLKConfig:PeriphClkInit <- $r4
	.loc	5 0 5                           @ ../Drivers/STM32H7xx_HAL_Driver/Src/stm32h7xx_hal_rcc_ex.c:0:5
	mov	r5, r6
.LCPI0_1:
	tbb	[pc, r0]
.Ltmp26:
@ %bb.15:
.LJTI0_1:
	.byte	(.LBB0_16-(.LCPI0_1+4))/2
	.byte	(.LBB0_18-(.LCPI0_1+4))/2
	.byte	(.LBB0_19-(.LCPI0_1+4))/2
	.byte	(.LBB0_21-(.LCPI0_1+4))/2
	.byte	(.LBB0_21-(.LCPI0_1+4))/2
	.p2align	1
	.p2align	2
.LBB0_16:
.Ltmp27:
	@DEBUG_VALUE: HAL_RCCEx_PeriphCLKConfig:status <- $r6
	@DEBUG_VALUE: HAL_RCCEx_PeriphCLKConfig:ret <- $r6
	@DEBUG_VALUE: HAL_RCCEx_PeriphCLKConfig:PeriphClkInit <- $r4
	.loc	5 168 9 is_stmt 1               @ ../Drivers/STM32H7xx_HAL_Driver/Src/stm32h7xx_hal_rcc_ex.c:168:9
	ldr.w	r0, [r8]
	mov	r5, r6
	orr	r0, r0, #131072
	str.w	r0, [r8]
	b	.LBB0_21
.Ltmp28:
	.p2align	2
.LBB0_17:
	@DEBUG_VALUE: HAL_RCCEx_PeriphCLKConfig:status <- $r6
	@DEBUG_VALUE: HAL_RCCEx_PeriphCLKConfig:ret <- $r6
	@DEBUG_VALUE: HAL_RCCEx_PeriphCLKConfig:PeriphClkInit <- $r4
	.loc	5 0 9 is_stmt 0                 @ ../Drivers/STM32H7xx_HAL_Driver/Src/stm32h7xx_hal_rcc_ex.c:0:9
	movs	r5, #1
	movs	r7, #1
.Ltmp29:
	@DEBUG_VALUE: HAL_RCCEx_PeriphCLKConfig:ret <- $r5
	@DEBUG_VALUE: HAL_RCCEx_PeriphCLKConfig:status <- $r7
	.loc	5 215 69 is_stmt 1              @ ../Drivers/STM32H7xx_HAL_Driver/Src/stm32h7xx_hal_rcc_ex.c:215:69
	ldrb	r0, [r4, #1]
.Ltmp30:
	.loc	5 215 7 is_stmt 0               @ ../Drivers/STM32H7xx_HAL_Driver/Src/stm32h7xx_hal_rcc_ex.c:215:7
	lsls	r0, r0, #30
	bmi	.LBB0_25
	b	.LBB0_36
.Ltmp31:
	.p2align	2
.LBB0_18:
	@DEBUG_VALUE: HAL_RCCEx_PeriphCLKConfig:status <- $r6
	@DEBUG_VALUE: HAL_RCCEx_PeriphCLKConfig:ret <- $r6
	@DEBUG_VALUE: HAL_RCCEx_PeriphCLKConfig:PeriphClkInit <- $r4
	.loc	5 175 50 is_stmt 1              @ ../Drivers/STM32H7xx_HAL_Driver/Src/stm32h7xx_hal_rcc_ex.c:175:50
	add.w	r0, r4, #8
	.loc	5 175 15 is_stmt 0              @ ../Drivers/STM32H7xx_HAL_Driver/Src/stm32h7xx_hal_rcc_ex.c:175:15
	movs	r1, #0
	bl	RCCEx_PLL2_Config
.Ltmp32:
	.loc	5 0 15                          @ ../Drivers/STM32H7xx_HAL_Driver/Src/stm32h7xx_hal_rcc_ex.c:0:15
	b	.LBB0_20
.Ltmp33:
	.p2align	2
.LBB0_19:
	@DEBUG_VALUE: HAL_RCCEx_PeriphCLKConfig:status <- $r6
	@DEBUG_VALUE: HAL_RCCEx_PeriphCLKConfig:ret <- $r6
	@DEBUG_VALUE: HAL_RCCEx_PeriphCLKConfig:PeriphClkInit <- $r4
	.loc	5 181 50 is_stmt 1              @ ../Drivers/STM32H7xx_HAL_Driver/Src/stm32h7xx_hal_rcc_ex.c:181:50
	add.w	r0, r4, #40
	.loc	5 181 15 is_stmt 0              @ ../Drivers/STM32H7xx_HAL_Driver/Src/stm32h7xx_hal_rcc_ex.c:181:15
	movs	r1, #0
	bl	RCCEx_PLL3_Config
.Ltmp34:
.LBB0_20:
	@DEBUG_VALUE: HAL_RCCEx_PeriphCLKConfig:status <- $r6
	@DEBUG_VALUE: HAL_RCCEx_PeriphCLKConfig:ret <- $r6
	@DEBUG_VALUE: HAL_RCCEx_PeriphCLKConfig:PeriphClkInit <- $r4
	.loc	5 0 0                           @ ../Drivers/STM32H7xx_HAL_Driver/Src/stm32h7xx_hal_rcc_ex.c:0:0
	mov	r5, r0
.Ltmp35:
	@DEBUG_VALUE: HAL_RCCEx_PeriphCLKConfig:ret <- undef
.LBB0_21:
	@DEBUG_VALUE: HAL_RCCEx_PeriphCLKConfig:status <- $r6
	@DEBUG_VALUE: HAL_RCCEx_PeriphCLKConfig:PeriphClkInit <- $r4
	@DEBUG_VALUE: HAL_RCCEx_PeriphCLKConfig:ret <- $r5
	mov	r7, r5
	.loc	5 201 9 is_stmt 1               @ ../Drivers/STM32H7xx_HAL_Driver/Src/stm32h7xx_hal_rcc_ex.c:201:9
	cbz	r5, .LBB0_23
.Ltmp36:
@ %bb.22:
	@DEBUG_VALUE: HAL_RCCEx_PeriphCLKConfig:ret <- $r5
	@DEBUG_VALUE: HAL_RCCEx_PeriphCLKConfig:status <- $r6
	@DEBUG_VALUE: HAL_RCCEx_PeriphCLKConfig:PeriphClkInit <- $r4
	@DEBUG_VALUE: HAL_RCCEx_PeriphCLKConfig:ret <- $r5
	@DEBUG_VALUE: HAL_RCCEx_PeriphCLKConfig:status <- $r7
	.loc	5 215 69                        @ ../Drivers/STM32H7xx_HAL_Driver/Src/stm32h7xx_hal_rcc_ex.c:215:69
	ldrb	r0, [r4, #1]
.Ltmp37:
	.loc	5 215 7 is_stmt 0               @ ../Drivers/STM32H7xx_HAL_Driver/Src/stm32h7xx_hal_rcc_ex.c:215:7
	lsls	r0, r0, #30
	bmi	.LBB0_25
	b	.LBB0_36
.Ltmp38:
	.p2align	2
.LBB0_23:
	@DEBUG_VALUE: HAL_RCCEx_PeriphCLKConfig:ret <- $r5
	@DEBUG_VALUE: HAL_RCCEx_PeriphCLKConfig:status <- $r6
	@DEBUG_VALUE: HAL_RCCEx_PeriphCLKConfig:PeriphClkInit <- $r4
	.loc	5 204 7 is_stmt 1               @ ../Drivers/STM32H7xx_HAL_Driver/Src/stm32h7xx_hal_rcc_ex.c:204:7
	ldr.w	r0, [r8, #36]
	ldr	r1, [r4, #88]
	bic	r0, r0, #7
	movs	r5, #0
.Ltmp39:
	orrs	r0, r1
	str.w	r0, [r8, #36]
.Ltmp40:
.LBB0_24:
	@DEBUG_VALUE: HAL_RCCEx_PeriphCLKConfig:status <- $r6
	@DEBUG_VALUE: HAL_RCCEx_PeriphCLKConfig:PeriphClkInit <- $r4
	.loc	5 0 7 is_stmt 0                 @ ../Drivers/STM32H7xx_HAL_Driver/Src/stm32h7xx_hal_rcc_ex.c:0:7
	mov	r7, r6
.Ltmp41:
	@DEBUG_VALUE: HAL_RCCEx_PeriphCLKConfig:status <- $r7
	@DEBUG_VALUE: HAL_RCCEx_PeriphCLKConfig:ret <- $r5
	@DEBUG_VALUE: HAL_RCCEx_PeriphCLKConfig:status <- $r7
	.loc	5 215 69 is_stmt 1              @ ../Drivers/STM32H7xx_HAL_Driver/Src/stm32h7xx_hal_rcc_ex.c:215:69
	ldrb	r0, [r4, #1]
.Ltmp42:
	.loc	5 215 7 is_stmt 0               @ ../Drivers/STM32H7xx_HAL_Driver/Src/stm32h7xx_hal_rcc_ex.c:215:7
	lsls	r0, r0, #30
	bpl	.LBB0_36
.Ltmp43:
.LBB0_25:
	@DEBUG_VALUE: HAL_RCCEx_PeriphCLKConfig:status <- $r7
	@DEBUG_VALUE: HAL_RCCEx_PeriphCLKConfig:ret <- $r5
	@DEBUG_VALUE: HAL_RCCEx_PeriphCLKConfig:PeriphClkInit <- $r4
	.loc	5 217 28 is_stmt 1              @ ../Drivers/STM32H7xx_HAL_Driver/Src/stm32h7xx_hal_rcc_ex.c:217:28
	ldr	r0, [r4, #92]
	.loc	5 217 5 is_stmt 0               @ ../Drivers/STM32H7xx_HAL_Driver/Src/stm32h7xx_hal_rcc_ex.c:217:5
	ror.w	r0, r0, #6
	cmp	r0, #4
	bhi	.LBB0_29
.Ltmp44:
@ %bb.26:
	@DEBUG_VALUE: HAL_RCCEx_PeriphCLKConfig:status <- $r7
	@DEBUG_VALUE: HAL_RCCEx_PeriphCLKConfig:ret <- $r5
	@DEBUG_VALUE: HAL_RCCEx_PeriphCLKConfig:PeriphClkInit <- $r4
	.loc	5 0 5                           @ ../Drivers/STM32H7xx_HAL_Driver/Src/stm32h7xx_hal_rcc_ex.c:0:5
.LCPI0_2:
	tbb	[pc, r0]
.Ltmp45:
@ %bb.27:
.LJTI0_2:
	.byte	(.LBB0_28-(.LCPI0_2+4))/2
	.byte	(.LBB0_30-(.LCPI0_2+4))/2
	.byte	(.LBB0_31-(.LCPI0_2+4))/2
	.byte	(.LBB0_33-(.LCPI0_2+4))/2
	.byte	(.LBB0_33-(.LCPI0_2+4))/2
	.p2align	1
	.p2align	2
.LBB0_28:
.Ltmp46:
	@DEBUG_VALUE: HAL_RCCEx_PeriphCLKConfig:status <- $r7
	@DEBUG_VALUE: HAL_RCCEx_PeriphCLKConfig:ret <- $r5
	@DEBUG_VALUE: HAL_RCCEx_PeriphCLKConfig:PeriphClkInit <- $r4
	.loc	5 221 9 is_stmt 1               @ ../Drivers/STM32H7xx_HAL_Driver/Src/stm32h7xx_hal_rcc_ex.c:221:9
	ldr.w	r0, [r8]
	orr	r0, r0, #131072
	str.w	r0, [r8]
	b	.LBB0_33
.Ltmp47:
	.p2align	2
.LBB0_29:
	@DEBUG_VALUE: HAL_RCCEx_PeriphCLKConfig:status <- $r7
	@DEBUG_VALUE: HAL_RCCEx_PeriphCLKConfig:ret <- $r5
	@DEBUG_VALUE: HAL_RCCEx_PeriphCLKConfig:PeriphClkInit <- $r4
	.loc	5 0 9 is_stmt 0                 @ ../Drivers/STM32H7xx_HAL_Driver/Src/stm32h7xx_hal_rcc_ex.c:0:9
	movs	r5, #1
.Ltmp48:
	movs	r6, #1
.Ltmp49:
	@DEBUG_VALUE: HAL_RCCEx_PeriphCLKConfig:ret <- $r5
	@DEBUG_VALUE: HAL_RCCEx_PeriphCLKConfig:status <- $r6
	.loc	5 389 69 is_stmt 1              @ ../Drivers/STM32H7xx_HAL_Driver/Src/stm32h7xx_hal_rcc_ex.c:389:69
	ldrb	r0, [r4, #1]
.Ltmp50:
	.loc	5 389 7 is_stmt 0               @ ../Drivers/STM32H7xx_HAL_Driver/Src/stm32h7xx_hal_rcc_ex.c:389:7
	lsls	r0, r0, #29
	bmi	.LBB0_37
	b	.LBB0_48
.Ltmp51:
	.p2align	2
.LBB0_30:
	@DEBUG_VALUE: HAL_RCCEx_PeriphCLKConfig:status <- $r7
	@DEBUG_VALUE: HAL_RCCEx_PeriphCLKConfig:ret <- $r5
	@DEBUG_VALUE: HAL_RCCEx_PeriphCLKConfig:PeriphClkInit <- $r4
	.loc	5 228 50 is_stmt 1              @ ../Drivers/STM32H7xx_HAL_Driver/Src/stm32h7xx_hal_rcc_ex.c:228:50
	add.w	r0, r4, #8
	.loc	5 228 15 is_stmt 0              @ ../Drivers/STM32H7xx_HAL_Driver/Src/stm32h7xx_hal_rcc_ex.c:228:15
	movs	r1, #0
	bl	RCCEx_PLL2_Config
.Ltmp52:
	.loc	5 0 15                          @ ../Drivers/STM32H7xx_HAL_Driver/Src/stm32h7xx_hal_rcc_ex.c:0:15
	b	.LBB0_32
.Ltmp53:
	.p2align	2
.LBB0_31:
	@DEBUG_VALUE: HAL_RCCEx_PeriphCLKConfig:status <- $r7
	@DEBUG_VALUE: HAL_RCCEx_PeriphCLKConfig:ret <- $r5
	@DEBUG_VALUE: HAL_RCCEx_PeriphCLKConfig:PeriphClkInit <- $r4
	.loc	5 234 50 is_stmt 1              @ ../Drivers/STM32H7xx_HAL_Driver/Src/stm32h7xx_hal_rcc_ex.c:234:50
	add.w	r0, r4, #40
	.loc	5 234 15 is_stmt 0              @ ../Drivers/STM32H7xx_HAL_Driver/Src/stm32h7xx_hal_rcc_ex.c:234:15
	movs	r1, #0
	bl	RCCEx_PLL3_Config
.Ltmp54:
.LBB0_32:
	@DEBUG_VALUE: HAL_RCCEx_PeriphCLKConfig:status <- $r7
	@DEBUG_VALUE: HAL_RCCEx_PeriphCLKConfig:ret <- $r5
	@DEBUG_VALUE: HAL_RCCEx_PeriphCLKConfig:PeriphClkInit <- $r4
	.loc	5 0 0                           @ ../Drivers/STM32H7xx_HAL_Driver/Src/stm32h7xx_hal_rcc_ex.c:0:0
	mov	r5, r0
.Ltmp55:
	@DEBUG_VALUE: HAL_RCCEx_PeriphCLKConfig:ret <- undef
.LBB0_33:
	@DEBUG_VALUE: HAL_RCCEx_PeriphCLKConfig:status <- $r7
	@DEBUG_VALUE: HAL_RCCEx_PeriphCLKConfig:PeriphClkInit <- $r4
	@DEBUG_VALUE: HAL_RCCEx_PeriphCLKConfig:ret <- $r5
	mov	r6, r5
	.loc	5 254 9 is_stmt 1               @ ../Drivers/STM32H7xx_HAL_Driver/Src/stm32h7xx_hal_rcc_ex.c:254:9
	cbz	r5, .LBB0_35
.Ltmp56:
@ %bb.34:
	@DEBUG_VALUE: HAL_RCCEx_PeriphCLKConfig:status <- $r7
	@DEBUG_VALUE: HAL_RCCEx_PeriphCLKConfig:ret <- $r5
	@DEBUG_VALUE: HAL_RCCEx_PeriphCLKConfig:PeriphClkInit <- $r4
	@DEBUG_VALUE: HAL_RCCEx_PeriphCLKConfig:ret <- $r5
	@DEBUG_VALUE: HAL_RCCEx_PeriphCLKConfig:status <- $r6
	.loc	5 389 69                        @ ../Drivers/STM32H7xx_HAL_Driver/Src/stm32h7xx_hal_rcc_ex.c:389:69
	ldrb	r0, [r4, #1]
.Ltmp57:
	.loc	5 389 7 is_stmt 0               @ ../Drivers/STM32H7xx_HAL_Driver/Src/stm32h7xx_hal_rcc_ex.c:389:7
	lsls	r0, r0, #29
	bmi	.LBB0_37
	b	.LBB0_48
.Ltmp58:
	.p2align	2
.LBB0_35:
	@DEBUG_VALUE: HAL_RCCEx_PeriphCLKConfig:status <- $r7
	@DEBUG_VALUE: HAL_RCCEx_PeriphCLKConfig:ret <- $r5
	@DEBUG_VALUE: HAL_RCCEx_PeriphCLKConfig:PeriphClkInit <- $r4
	.loc	5 257 7 is_stmt 1               @ ../Drivers/STM32H7xx_HAL_Driver/Src/stm32h7xx_hal_rcc_ex.c:257:7
	ldr.w	r0, [r8, #36]
	ldr	r1, [r4, #92]
	bic	r0, r0, #448
	movs	r5, #0
.Ltmp59:
	orrs	r0, r1
	str.w	r0, [r8, #36]
.Ltmp60:
.LBB0_36:
	@DEBUG_VALUE: HAL_RCCEx_PeriphCLKConfig:status <- $r7
	@DEBUG_VALUE: HAL_RCCEx_PeriphCLKConfig:PeriphClkInit <- $r4
	.loc	5 0 7 is_stmt 0                 @ ../Drivers/STM32H7xx_HAL_Driver/Src/stm32h7xx_hal_rcc_ex.c:0:7
	mov	r6, r7
.Ltmp61:
	@DEBUG_VALUE: HAL_RCCEx_PeriphCLKConfig:status <- $r6
	@DEBUG_VALUE: HAL_RCCEx_PeriphCLKConfig:ret <- $r5
	@DEBUG_VALUE: HAL_RCCEx_PeriphCLKConfig:status <- $r6
	.loc	5 389 69 is_stmt 1              @ ../Drivers/STM32H7xx_HAL_Driver/Src/stm32h7xx_hal_rcc_ex.c:389:69
	ldrb	r0, [r4, #1]
.Ltmp62:
	.loc	5 389 7 is_stmt 0               @ ../Drivers/STM32H7xx_HAL_Driver/Src/stm32h7xx_hal_rcc_ex.c:389:7
	lsls	r0, r0, #29
	bpl	.LBB0_48
.Ltmp63:
.LBB0_37:
	@DEBUG_VALUE: HAL_RCCEx_PeriphCLKConfig:ret <- $r5
	@DEBUG_VALUE: HAL_RCCEx_PeriphCLKConfig:status <- $r6
	@DEBUG_VALUE: HAL_RCCEx_PeriphCLKConfig:PeriphClkInit <- $r4
	.loc	5 391 28 is_stmt 1              @ ../Drivers/STM32H7xx_HAL_Driver/Src/stm32h7xx_hal_rcc_ex.c:391:28
	ldr.w	r0, [r4, #168]
	.loc	5 391 5 is_stmt 0               @ ../Drivers/STM32H7xx_HAL_Driver/Src/stm32h7xx_hal_rcc_ex.c:391:5
	ror.w	r0, r0, #21
	cmp	r0, #4
	bhi	.LBB0_41
.Ltmp64:
@ %bb.38:
	@DEBUG_VALUE: HAL_RCCEx_PeriphCLKConfig:ret <- $r5
	@DEBUG_VALUE: HAL_RCCEx_PeriphCLKConfig:status <- $r6
	@DEBUG_VALUE: HAL_RCCEx_PeriphCLKConfig:PeriphClkInit <- $r4
	.loc	5 0 5                           @ ../Drivers/STM32H7xx_HAL_Driver/Src/stm32h7xx_hal_rcc_ex.c:0:5
.LCPI0_3:
	tbb	[pc, r0]
.Ltmp65:
@ %bb.39:
.LJTI0_3:
	.byte	(.LBB0_40-(.LCPI0_3+4))/2
	.byte	(.LBB0_42-(.LCPI0_3+4))/2
	.byte	(.LBB0_43-(.LCPI0_3+4))/2
	.byte	(.LBB0_45-(.LCPI0_3+4))/2
	.byte	(.LBB0_45-(.LCPI0_3+4))/2
	.p2align	1
	.p2align	2
.LBB0_40:
.Ltmp66:
	@DEBUG_VALUE: HAL_RCCEx_PeriphCLKConfig:ret <- $r5
	@DEBUG_VALUE: HAL_RCCEx_PeriphCLKConfig:status <- $r6
	@DEBUG_VALUE: HAL_RCCEx_PeriphCLKConfig:PeriphClkInit <- $r4
	.loc	5 395 9 is_stmt 1               @ ../Drivers/STM32H7xx_HAL_Driver/Src/stm32h7xx_hal_rcc_ex.c:395:9
	ldr.w	r0, [r8]
	orr	r0, r0, #131072
	str.w	r0, [r8]
	b	.LBB0_45
.Ltmp67:
	.p2align	2
.LBB0_41:
	@DEBUG_VALUE: HAL_RCCEx_PeriphCLKConfig:ret <- $r5
	@DEBUG_VALUE: HAL_RCCEx_PeriphCLKConfig:status <- $r6
	@DEBUG_VALUE: HAL_RCCEx_PeriphCLKConfig:PeriphClkInit <- $r4
	.loc	5 0 9 is_stmt 0                 @ ../Drivers/STM32H7xx_HAL_Driver/Src/stm32h7xx_hal_rcc_ex.c:0:9
	movs	r5, #1
.Ltmp68:
	mov.w	r10, #1
.Ltmp69:
	@DEBUG_VALUE: HAL_RCCEx_PeriphCLKConfig:ret <- $r5
	@DEBUG_VALUE: HAL_RCCEx_PeriphCLKConfig:status <- $r10
	.loc	5 447 69 is_stmt 1              @ ../Drivers/STM32H7xx_HAL_Driver/Src/stm32h7xx_hal_rcc_ex.c:447:69
	ldrb	r0, [r4, #1]
.Ltmp70:
	.loc	5 447 7 is_stmt 0               @ ../Drivers/STM32H7xx_HAL_Driver/Src/stm32h7xx_hal_rcc_ex.c:447:7
	lsls	r0, r0, #28
	bmi	.LBB0_49
	b	.LBB0_60
.Ltmp71:
	.p2align	2
.LBB0_42:
	@DEBUG_VALUE: HAL_RCCEx_PeriphCLKConfig:ret <- $r5
	@DEBUG_VALUE: HAL_RCCEx_PeriphCLKConfig:status <- $r6
	@DEBUG_VALUE: HAL_RCCEx_PeriphCLKConfig:PeriphClkInit <- $r4
	.loc	5 402 50 is_stmt 1              @ ../Drivers/STM32H7xx_HAL_Driver/Src/stm32h7xx_hal_rcc_ex.c:402:50
	add.w	r0, r4, #8
	.loc	5 402 15 is_stmt 0              @ ../Drivers/STM32H7xx_HAL_Driver/Src/stm32h7xx_hal_rcc_ex.c:402:15
	movs	r1, #0
	bl	RCCEx_PLL2_Config
.Ltmp72:
	.loc	5 0 15                          @ ../Drivers/STM32H7xx_HAL_Driver/Src/stm32h7xx_hal_rcc_ex.c:0:15
	b	.LBB0_44
.Ltmp73:
	.p2align	2
.LBB0_43:
	@DEBUG_VALUE: HAL_RCCEx_PeriphCLKConfig:ret <- $r5
	@DEBUG_VALUE: HAL_RCCEx_PeriphCLKConfig:status <- $r6
	@DEBUG_VALUE: HAL_RCCEx_PeriphCLKConfig:PeriphClkInit <- $r4
	.loc	5 408 50 is_stmt 1              @ ../Drivers/STM32H7xx_HAL_Driver/Src/stm32h7xx_hal_rcc_ex.c:408:50
	add.w	r0, r4, #40
	.loc	5 408 15 is_stmt 0              @ ../Drivers/STM32H7xx_HAL_Driver/Src/stm32h7xx_hal_rcc_ex.c:408:15
	movs	r1, #0
	bl	RCCEx_PLL3_Config
.Ltmp74:
.LBB0_44:
	@DEBUG_VALUE: HAL_RCCEx_PeriphCLKConfig:ret <- $r5
	@DEBUG_VALUE: HAL_RCCEx_PeriphCLKConfig:status <- $r6
	@DEBUG_VALUE: HAL_RCCEx_PeriphCLKConfig:PeriphClkInit <- $r4
	.loc	5 0 0                           @ ../Drivers/STM32H7xx_HAL_Driver/Src/stm32h7xx_hal_rcc_ex.c:0:0
	mov	r5, r0
.Ltmp75:
	@DEBUG_VALUE: HAL_RCCEx_PeriphCLKConfig:ret <- undef
.LBB0_45:
	@DEBUG_VALUE: HAL_RCCEx_PeriphCLKConfig:status <- $r6
	@DEBUG_VALUE: HAL_RCCEx_PeriphCLKConfig:PeriphClkInit <- $r4
	@DEBUG_VALUE: HAL_RCCEx_PeriphCLKConfig:ret <- $r5
	mov	r10, r5
	.loc	5 435 9 is_stmt 1               @ ../Drivers/STM32H7xx_HAL_Driver/Src/stm32h7xx_hal_rcc_ex.c:435:9
	cbz	r5, .LBB0_47
.Ltmp76:
@ %bb.46:
	@DEBUG_VALUE: HAL_RCCEx_PeriphCLKConfig:ret <- $r5
	@DEBUG_VALUE: HAL_RCCEx_PeriphCLKConfig:status <- $r6
	@DEBUG_VALUE: HAL_RCCEx_PeriphCLKConfig:PeriphClkInit <- $r4
	@DEBUG_VALUE: HAL_RCCEx_PeriphCLKConfig:ret <- $r5
	@DEBUG_VALUE: HAL_RCCEx_PeriphCLKConfig:status <- $r10
	.loc	5 447 69                        @ ../Drivers/STM32H7xx_HAL_Driver/Src/stm32h7xx_hal_rcc_ex.c:447:69
	ldrb	r0, [r4, #1]
.Ltmp77:
	.loc	5 447 7 is_stmt 0               @ ../Drivers/STM32H7xx_HAL_Driver/Src/stm32h7xx_hal_rcc_ex.c:447:7
	lsls	r0, r0, #28
	bmi	.LBB0_49
	b	.LBB0_60
.Ltmp78:
	.p2align	2
.LBB0_47:
	@DEBUG_VALUE: HAL_RCCEx_PeriphCLKConfig:ret <- $r5
	@DEBUG_VALUE: HAL_RCCEx_PeriphCLKConfig:status <- $r6
	@DEBUG_VALUE: HAL_RCCEx_PeriphCLKConfig:PeriphClkInit <- $r4
	.loc	5 438 7 is_stmt 1               @ ../Drivers/STM32H7xx_HAL_Driver/Src/stm32h7xx_hal_rcc_ex.c:438:7
	ldr.w	r0, [r8, #44]
	ldr.w	r1, [r4, #168]
	bic	r0, r0, #14680064
	movs	r5, #0
.Ltmp79:
	orrs	r0, r1
	str.w	r0, [r8, #44]
.Ltmp80:
.LBB0_48:
	@DEBUG_VALUE: HAL_RCCEx_PeriphCLKConfig:status <- $r6
	@DEBUG_VALUE: HAL_RCCEx_PeriphCLKConfig:PeriphClkInit <- $r4
	.loc	5 0 7 is_stmt 0                 @ ../Drivers/STM32H7xx_HAL_Driver/Src/stm32h7xx_hal_rcc_ex.c:0:7
	mov	r10, r6
.Ltmp81:
	@DEBUG_VALUE: HAL_RCCEx_PeriphCLKConfig:status <- $r10
	@DEBUG_VALUE: HAL_RCCEx_PeriphCLKConfig:ret <- $r5
	@DEBUG_VALUE: HAL_RCCEx_PeriphCLKConfig:status <- $r10
	.loc	5 447 69 is_stmt 1              @ ../Drivers/STM32H7xx_HAL_Driver/Src/stm32h7xx_hal_rcc_ex.c:447:69
	ldrb	r0, [r4, #1]
.Ltmp82:
	.loc	5 447 7 is_stmt 0               @ ../Drivers/STM32H7xx_HAL_Driver/Src/stm32h7xx_hal_rcc_ex.c:447:7
	lsls	r0, r0, #28
	bpl	.LBB0_60
.Ltmp83:
.LBB0_49:
	@DEBUG_VALUE: HAL_RCCEx_PeriphCLKConfig:status <- $r10
	@DEBUG_VALUE: HAL_RCCEx_PeriphCLKConfig:ret <- $r5
	@DEBUG_VALUE: HAL_RCCEx_PeriphCLKConfig:PeriphClkInit <- $r4
	.loc	5 449 28 is_stmt 1              @ ../Drivers/STM32H7xx_HAL_Driver/Src/stm32h7xx_hal_rcc_ex.c:449:28
	ldr.w	r0, [r4, #172]
	.loc	5 449 5 is_stmt 0               @ ../Drivers/STM32H7xx_HAL_Driver/Src/stm32h7xx_hal_rcc_ex.c:449:5
	ror.w	r0, r0, #24
	cmp	r0, #4
	bhi	.LBB0_53
.Ltmp84:
@ %bb.50:
	@DEBUG_VALUE: HAL_RCCEx_PeriphCLKConfig:status <- $r10
	@DEBUG_VALUE: HAL_RCCEx_PeriphCLKConfig:ret <- $r5
	@DEBUG_VALUE: HAL_RCCEx_PeriphCLKConfig:PeriphClkInit <- $r4
	.loc	5 0 5                           @ ../Drivers/STM32H7xx_HAL_Driver/Src/stm32h7xx_hal_rcc_ex.c:0:5
.LCPI0_4:
	tbb	[pc, r0]
.Ltmp85:
@ %bb.51:
.LJTI0_4:
	.byte	(.LBB0_52-(.LCPI0_4+4))/2
	.byte	(.LBB0_54-(.LCPI0_4+4))/2
	.byte	(.LBB0_55-(.LCPI0_4+4))/2
	.byte	(.LBB0_57-(.LCPI0_4+4))/2
	.byte	(.LBB0_57-(.LCPI0_4+4))/2
	.p2align	1
	.p2align	2
.LBB0_52:
.Ltmp86:
	@DEBUG_VALUE: HAL_RCCEx_PeriphCLKConfig:status <- $r10
	@DEBUG_VALUE: HAL_RCCEx_PeriphCLKConfig:ret <- $r5
	@DEBUG_VALUE: HAL_RCCEx_PeriphCLKConfig:PeriphClkInit <- $r4
	.loc	5 453 9 is_stmt 1               @ ../Drivers/STM32H7xx_HAL_Driver/Src/stm32h7xx_hal_rcc_ex.c:453:9
	ldr.w	r0, [r8]
	orr	r0, r0, #131072
	str.w	r0, [r8]
	b	.LBB0_57
.Ltmp87:
	.p2align	2
.LBB0_53:
	@DEBUG_VALUE: HAL_RCCEx_PeriphCLKConfig:status <- $r10
	@DEBUG_VALUE: HAL_RCCEx_PeriphCLKConfig:ret <- $r5
	@DEBUG_VALUE: HAL_RCCEx_PeriphCLKConfig:PeriphClkInit <- $r4
	.loc	5 0 9 is_stmt 0                 @ ../Drivers/STM32H7xx_HAL_Driver/Src/stm32h7xx_hal_rcc_ex.c:0:9
	movs	r5, #1
.Ltmp88:
	movs	r7, #1
.Ltmp89:
	@DEBUG_VALUE: HAL_RCCEx_PeriphCLKConfig:ret <- $r5
	@DEBUG_VALUE: HAL_RCCEx_PeriphCLKConfig:status <- $r7
	.loc	5 508 68 is_stmt 1              @ ../Drivers/STM32H7xx_HAL_Driver/Src/stm32h7xx_hal_rcc_ex.c:508:68
	ldrb	r0, [r4, #3]
.Ltmp90:
	.loc	5 508 7 is_stmt 0               @ ../Drivers/STM32H7xx_HAL_Driver/Src/stm32h7xx_hal_rcc_ex.c:508:7
	lsls	r0, r0, #30
	bmi	.LBB0_61
	b	.LBB0_70
.Ltmp91:
	.p2align	2
.LBB0_54:
	@DEBUG_VALUE: HAL_RCCEx_PeriphCLKConfig:status <- $r10
	@DEBUG_VALUE: HAL_RCCEx_PeriphCLKConfig:ret <- $r5
	@DEBUG_VALUE: HAL_RCCEx_PeriphCLKConfig:PeriphClkInit <- $r4
	.loc	5 460 50 is_stmt 1              @ ../Drivers/STM32H7xx_HAL_Driver/Src/stm32h7xx_hal_rcc_ex.c:460:50
	add.w	r0, r4, #8
	.loc	5 460 15 is_stmt 0              @ ../Drivers/STM32H7xx_HAL_Driver/Src/stm32h7xx_hal_rcc_ex.c:460:15
	movs	r1, #0
	bl	RCCEx_PLL2_Config
.Ltmp92:
	.loc	5 0 15                          @ ../Drivers/STM32H7xx_HAL_Driver/Src/stm32h7xx_hal_rcc_ex.c:0:15
	b	.LBB0_56
.Ltmp93:
	.p2align	2
.LBB0_55:
	@DEBUG_VALUE: HAL_RCCEx_PeriphCLKConfig:status <- $r10
	@DEBUG_VALUE: HAL_RCCEx_PeriphCLKConfig:ret <- $r5
	@DEBUG_VALUE: HAL_RCCEx_PeriphCLKConfig:PeriphClkInit <- $r4
	.loc	5 466 50 is_stmt 1              @ ../Drivers/STM32H7xx_HAL_Driver/Src/stm32h7xx_hal_rcc_ex.c:466:50
	add.w	r0, r4, #40
	.loc	5 466 15 is_stmt 0              @ ../Drivers/STM32H7xx_HAL_Driver/Src/stm32h7xx_hal_rcc_ex.c:466:15
	movs	r1, #0
	bl	RCCEx_PLL3_Config
.Ltmp94:
.LBB0_56:
	@DEBUG_VALUE: HAL_RCCEx_PeriphCLKConfig:status <- $r10
	@DEBUG_VALUE: HAL_RCCEx_PeriphCLKConfig:ret <- $r5
	@DEBUG_VALUE: HAL_RCCEx_PeriphCLKConfig:PeriphClkInit <- $r4
	.loc	5 0 0                           @ ../Drivers/STM32H7xx_HAL_Driver/Src/stm32h7xx_hal_rcc_ex.c:0:0
	mov	r5, r0
.Ltmp95:
	@DEBUG_VALUE: HAL_RCCEx_PeriphCLKConfig:ret <- undef
.LBB0_57:
	@DEBUG_VALUE: HAL_RCCEx_PeriphCLKConfig:status <- $r10
	@DEBUG_VALUE: HAL_RCCEx_PeriphCLKConfig:PeriphClkInit <- $r4
	@DEBUG_VALUE: HAL_RCCEx_PeriphCLKConfig:ret <- $r5
	mov	r7, r5
	.loc	5 493 9 is_stmt 1               @ ../Drivers/STM32H7xx_HAL_Driver/Src/stm32h7xx_hal_rcc_ex.c:493:9
	cbz	r5, .LBB0_59
.Ltmp96:
@ %bb.58:
	@DEBUG_VALUE: HAL_RCCEx_PeriphCLKConfig:status <- $r10
	@DEBUG_VALUE: HAL_RCCEx_PeriphCLKConfig:ret <- $r5
	@DEBUG_VALUE: HAL_RCCEx_PeriphCLKConfig:PeriphClkInit <- $r4
	@DEBUG_VALUE: HAL_RCCEx_PeriphCLKConfig:ret <- $r5
	@DEBUG_VALUE: HAL_RCCEx_PeriphCLKConfig:status <- $r7
	.loc	5 508 68                        @ ../Drivers/STM32H7xx_HAL_Driver/Src/stm32h7xx_hal_rcc_ex.c:508:68
	ldrb	r0, [r4, #3]
.Ltmp97:
	.loc	5 508 7 is_stmt 0               @ ../Drivers/STM32H7xx_HAL_Driver/Src/stm32h7xx_hal_rcc_ex.c:508:7
	lsls	r0, r0, #30
	bmi	.LBB0_61
	b	.LBB0_70
.Ltmp98:
	.p2align	2
.LBB0_59:
	@DEBUG_VALUE: HAL_RCCEx_PeriphCLKConfig:status <- $r10
	@DEBUG_VALUE: HAL_RCCEx_PeriphCLKConfig:ret <- $r5
	@DEBUG_VALUE: HAL_RCCEx_PeriphCLKConfig:PeriphClkInit <- $r4
	.loc	5 496 7 is_stmt 1               @ ../Drivers/STM32H7xx_HAL_Driver/Src/stm32h7xx_hal_rcc_ex.c:496:7
	ldr.w	r0, [r8, #44]
	ldr.w	r1, [r4, #172]
	bic	r0, r0, #117440512
	movs	r5, #0
.Ltmp99:
	orrs	r0, r1
	str.w	r0, [r8, #44]
.Ltmp100:
.LBB0_60:
	@DEBUG_VALUE: HAL_RCCEx_PeriphCLKConfig:status <- $r10
	@DEBUG_VALUE: HAL_RCCEx_PeriphCLKConfig:PeriphClkInit <- $r4
	.loc	5 0 7 is_stmt 0                 @ ../Drivers/STM32H7xx_HAL_Driver/Src/stm32h7xx_hal_rcc_ex.c:0:7
	mov	r7, r10
.Ltmp101:
	@DEBUG_VALUE: HAL_RCCEx_PeriphCLKConfig:status <- $r7
	@DEBUG_VALUE: HAL_RCCEx_PeriphCLKConfig:ret <- $r5
	@DEBUG_VALUE: HAL_RCCEx_PeriphCLKConfig:status <- $r7
	.loc	5 508 68 is_stmt 1              @ ../Drivers/STM32H7xx_HAL_Driver/Src/stm32h7xx_hal_rcc_ex.c:508:68
	ldrb	r0, [r4, #3]
.Ltmp102:
	.loc	5 508 7 is_stmt 0               @ ../Drivers/STM32H7xx_HAL_Driver/Src/stm32h7xx_hal_rcc_ex.c:508:7
	lsls	r0, r0, #30
	bpl	.LBB0_70
.Ltmp103:
.LBB0_61:
	@DEBUG_VALUE: HAL_RCCEx_PeriphCLKConfig:status <- $r7
	@DEBUG_VALUE: HAL_RCCEx_PeriphCLKConfig:ret <- $r5
	@DEBUG_VALUE: HAL_RCCEx_PeriphCLKConfig:PeriphClkInit <- $r4
	.loc	5 510 28 is_stmt 1              @ ../Drivers/STM32H7xx_HAL_Driver/Src/stm32h7xx_hal_rcc_ex.c:510:28
	ldr	r0, [r4, #76]
	.loc	5 510 5 is_stmt 0               @ ../Drivers/STM32H7xx_HAL_Driver/Src/stm32h7xx_hal_rcc_ex.c:510:5
	ror.w	r0, r0, #4
	cmp	r0, #3
	bhi	.LBB0_66
.Ltmp104:
@ %bb.62:
	@DEBUG_VALUE: HAL_RCCEx_PeriphCLKConfig:status <- $r7
	@DEBUG_VALUE: HAL_RCCEx_PeriphCLKConfig:ret <- $r5
	@DEBUG_VALUE: HAL_RCCEx_PeriphCLKConfig:PeriphClkInit <- $r4
	.loc	5 0 5                           @ ../Drivers/STM32H7xx_HAL_Driver/Src/stm32h7xx_hal_rcc_ex.c:0:5
.LCPI0_5:
	tbb	[pc, r0]
.Ltmp105:
@ %bb.63:
.LJTI0_5:
	.byte	(.LBB0_65-(.LCPI0_5+4))/2
	.byte	(.LBB0_64-(.LCPI0_5+4))/2
	.byte	(.LBB0_67-(.LCPI0_5+4))/2
	.byte	(.LBB0_65-(.LCPI0_5+4))/2
	.p2align	1
	.p2align	2
.LBB0_64:
.Ltmp106:
	@DEBUG_VALUE: HAL_RCCEx_PeriphCLKConfig:status <- $r7
	@DEBUG_VALUE: HAL_RCCEx_PeriphCLKConfig:ret <- $r5
	@DEBUG_VALUE: HAL_RCCEx_PeriphCLKConfig:PeriphClkInit <- $r4
	.loc	5 514 9 is_stmt 1               @ ../Drivers/STM32H7xx_HAL_Driver/Src/stm32h7xx_hal_rcc_ex.c:514:9
	ldr.w	r0, [r8]
	orr	r0, r0, #131072
	str.w	r0, [r8]
.Ltmp107:
.LBB0_65:
	@DEBUG_VALUE: HAL_RCCEx_PeriphCLKConfig:status <- $r7
	@DEBUG_VALUE: HAL_RCCEx_PeriphCLKConfig:ret <- $r5
	@DEBUG_VALUE: HAL_RCCEx_PeriphCLKConfig:PeriphClkInit <- $r4
	@DEBUG_VALUE: HAL_RCCEx_PeriphCLKConfig:ret <- $r5
	.loc	5 0 9 is_stmt 0                 @ ../Drivers/STM32H7xx_HAL_Driver/Src/stm32h7xx_hal_rcc_ex.c:0:9
	mov	r6, r5
	.loc	5 541 9 is_stmt 1               @ ../Drivers/STM32H7xx_HAL_Driver/Src/stm32h7xx_hal_rcc_ex.c:541:9
	cbnz	r5, .LBB0_68
	b	.LBB0_69
.Ltmp108:
	.p2align	2
.LBB0_66:
	@DEBUG_VALUE: HAL_RCCEx_PeriphCLKConfig:status <- $r7
	@DEBUG_VALUE: HAL_RCCEx_PeriphCLKConfig:ret <- $r5
	@DEBUG_VALUE: HAL_RCCEx_PeriphCLKConfig:PeriphClkInit <- $r4
	.loc	5 0 9 is_stmt 0                 @ ../Drivers/STM32H7xx_HAL_Driver/Src/stm32h7xx_hal_rcc_ex.c:0:9
	movs	r5, #1
.Ltmp109:
	movs	r6, #1
.Ltmp110:
	@DEBUG_VALUE: HAL_RCCEx_PeriphCLKConfig:ret <- $r5
	@DEBUG_VALUE: HAL_RCCEx_PeriphCLKConfig:status <- $r6
	.loc	5 603 70 is_stmt 1              @ ../Drivers/STM32H7xx_HAL_Driver/Src/stm32h7xx_hal_rcc_ex.c:603:70
	ldrb	r0, [r4, #1]
.Ltmp111:
	.loc	5 603 7 is_stmt 0               @ ../Drivers/STM32H7xx_HAL_Driver/Src/stm32h7xx_hal_rcc_ex.c:603:7
	lsls	r0, r0, #27
	bmi	.LBB0_71
	b	.LBB0_82
.Ltmp112:
	.p2align	2
.LBB0_67:
	@DEBUG_VALUE: HAL_RCCEx_PeriphCLKConfig:status <- $r7
	@DEBUG_VALUE: HAL_RCCEx_PeriphCLKConfig:ret <- $r5
	@DEBUG_VALUE: HAL_RCCEx_PeriphCLKConfig:PeriphClkInit <- $r4
	.loc	5 521 50 is_stmt 1              @ ../Drivers/STM32H7xx_HAL_Driver/Src/stm32h7xx_hal_rcc_ex.c:521:50
	add.w	r0, r4, #8
	.loc	5 521 15 is_stmt 0              @ ../Drivers/STM32H7xx_HAL_Driver/Src/stm32h7xx_hal_rcc_ex.c:521:15
	movs	r1, #2
	bl	RCCEx_PLL2_Config
.Ltmp113:
	mov	r5, r0
.Ltmp114:
	@DEBUG_VALUE: HAL_RCCEx_PeriphCLKConfig:ret <- undef
	@DEBUG_VALUE: HAL_RCCEx_PeriphCLKConfig:ret <- $r5
	.loc	5 0 15                          @ ../Drivers/STM32H7xx_HAL_Driver/Src/stm32h7xx_hal_rcc_ex.c:0:15
	mov	r6, r5
.Ltmp115:
	.loc	5 541 9 is_stmt 1               @ ../Drivers/STM32H7xx_HAL_Driver/Src/stm32h7xx_hal_rcc_ex.c:541:9
	cbz	r5, .LBB0_69
.Ltmp116:
.LBB0_68:
	@DEBUG_VALUE: HAL_RCCEx_PeriphCLKConfig:status <- $r7
	@DEBUG_VALUE: HAL_RCCEx_PeriphCLKConfig:ret <- $r5
	@DEBUG_VALUE: HAL_RCCEx_PeriphCLKConfig:PeriphClkInit <- $r4
	@DEBUG_VALUE: HAL_RCCEx_PeriphCLKConfig:ret <- $r5
	@DEBUG_VALUE: HAL_RCCEx_PeriphCLKConfig:status <- $r6
	.loc	5 603 70                        @ ../Drivers/STM32H7xx_HAL_Driver/Src/stm32h7xx_hal_rcc_ex.c:603:70
	ldrb	r0, [r4, #1]
.Ltmp117:
	.loc	5 603 7 is_stmt 0               @ ../Drivers/STM32H7xx_HAL_Driver/Src/stm32h7xx_hal_rcc_ex.c:603:7
	lsls	r0, r0, #27
	bmi	.LBB0_71
	b	.LBB0_82
.Ltmp118:
	.p2align	2
.LBB0_69:
	@DEBUG_VALUE: HAL_RCCEx_PeriphCLKConfig:status <- $r7
	@DEBUG_VALUE: HAL_RCCEx_PeriphCLKConfig:ret <- $r5
	@DEBUG_VALUE: HAL_RCCEx_PeriphCLKConfig:PeriphClkInit <- $r4
	.loc	5 544 7 is_stmt 1               @ ../Drivers/STM32H7xx_HAL_Driver/Src/stm32h7xx_hal_rcc_ex.c:544:7
	ldr.w	r0, [r8, #32]
	ldr	r1, [r4, #76]
	bic	r0, r0, #48
	movs	r5, #0
.Ltmp119:
	orrs	r0, r1
	str.w	r0, [r8, #32]
.Ltmp120:
.LBB0_70:
	@DEBUG_VALUE: HAL_RCCEx_PeriphCLKConfig:status <- $r7
	@DEBUG_VALUE: HAL_RCCEx_PeriphCLKConfig:PeriphClkInit <- $r4
	.loc	5 0 7 is_stmt 0                 @ ../Drivers/STM32H7xx_HAL_Driver/Src/stm32h7xx_hal_rcc_ex.c:0:7
	mov	r6, r7
.Ltmp121:
	@DEBUG_VALUE: HAL_RCCEx_PeriphCLKConfig:status <- $r6
	@DEBUG_VALUE: HAL_RCCEx_PeriphCLKConfig:ret <- $r5
	@DEBUG_VALUE: HAL_RCCEx_PeriphCLKConfig:status <- $r6
	.loc	5 603 70 is_stmt 1              @ ../Drivers/STM32H7xx_HAL_Driver/Src/stm32h7xx_hal_rcc_ex.c:603:70
	ldrb	r0, [r4, #1]
.Ltmp122:
	.loc	5 603 7 is_stmt 0               @ ../Drivers/STM32H7xx_HAL_Driver/Src/stm32h7xx_hal_rcc_ex.c:603:7
	lsls	r0, r0, #27
	bpl	.LBB0_82
.Ltmp123:
.LBB0_71:
	@DEBUG_VALUE: HAL_RCCEx_PeriphCLKConfig:ret <- $r5
	@DEBUG_VALUE: HAL_RCCEx_PeriphCLKConfig:status <- $r6
	@DEBUG_VALUE: HAL_RCCEx_PeriphCLKConfig:PeriphClkInit <- $r4
	.loc	5 605 28 is_stmt 1              @ ../Drivers/STM32H7xx_HAL_Driver/Src/stm32h7xx_hal_rcc_ex.c:605:28
	ldr	r0, [r4, #96]
	.loc	5 605 5 is_stmt 0               @ ../Drivers/STM32H7xx_HAL_Driver/Src/stm32h7xx_hal_rcc_ex.c:605:5
	ror.w	r0, r0, #12
	cmp	r0, #4
	bhi	.LBB0_75
.Ltmp124:
@ %bb.72:
	@DEBUG_VALUE: HAL_RCCEx_PeriphCLKConfig:ret <- $r5
	@DEBUG_VALUE: HAL_RCCEx_PeriphCLKConfig:status <- $r6
	@DEBUG_VALUE: HAL_RCCEx_PeriphCLKConfig:PeriphClkInit <- $r4
	.loc	5 0 5                           @ ../Drivers/STM32H7xx_HAL_Driver/Src/stm32h7xx_hal_rcc_ex.c:0:5
.LCPI0_6:
	tbb	[pc, r0]
.Ltmp125:
@ %bb.73:
.LJTI0_6:
	.byte	(.LBB0_74-(.LCPI0_6+4))/2
	.byte	(.LBB0_76-(.LCPI0_6+4))/2
	.byte	(.LBB0_77-(.LCPI0_6+4))/2
	.byte	(.LBB0_79-(.LCPI0_6+4))/2
	.byte	(.LBB0_79-(.LCPI0_6+4))/2
	.p2align	1
	.p2align	2
.LBB0_74:
.Ltmp126:
	@DEBUG_VALUE: HAL_RCCEx_PeriphCLKConfig:ret <- $r5
	@DEBUG_VALUE: HAL_RCCEx_PeriphCLKConfig:status <- $r6
	@DEBUG_VALUE: HAL_RCCEx_PeriphCLKConfig:PeriphClkInit <- $r4
	.loc	5 609 9 is_stmt 1               @ ../Drivers/STM32H7xx_HAL_Driver/Src/stm32h7xx_hal_rcc_ex.c:609:9
	ldr.w	r0, [r8]
	orr	r0, r0, #131072
	str.w	r0, [r8]
	b	.LBB0_79
.Ltmp127:
	.p2align	2
.LBB0_75:
	@DEBUG_VALUE: HAL_RCCEx_PeriphCLKConfig:ret <- $r5
	@DEBUG_VALUE: HAL_RCCEx_PeriphCLKConfig:status <- $r6
	@DEBUG_VALUE: HAL_RCCEx_PeriphCLKConfig:PeriphClkInit <- $r4
	.loc	5 0 9 is_stmt 0                 @ ../Drivers/STM32H7xx_HAL_Driver/Src/stm32h7xx_hal_rcc_ex.c:0:9
	movs	r5, #1
.Ltmp128:
	movs	r7, #1
.Ltmp129:
	@DEBUG_VALUE: HAL_RCCEx_PeriphCLKConfig:ret <- $r5
	@DEBUG_VALUE: HAL_RCCEx_PeriphCLKConfig:status <- $r7
	.loc	5 654 69 is_stmt 1              @ ../Drivers/STM32H7xx_HAL_Driver/Src/stm32h7xx_hal_rcc_ex.c:654:69
	ldrb	r0, [r4, #1]
.Ltmp130:
	.loc	5 654 7 is_stmt 0               @ ../Drivers/STM32H7xx_HAL_Driver/Src/stm32h7xx_hal_rcc_ex.c:654:7
	lsls	r0, r0, #26
	bmi	.LBB0_83
	b	.LBB0_93
.Ltmp131:
	.p2align	2
.LBB0_76:
	@DEBUG_VALUE: HAL_RCCEx_PeriphCLKConfig:ret <- $r5
	@DEBUG_VALUE: HAL_RCCEx_PeriphCLKConfig:status <- $r6
	@DEBUG_VALUE: HAL_RCCEx_PeriphCLKConfig:PeriphClkInit <- $r4
	.loc	5 615 50 is_stmt 1              @ ../Drivers/STM32H7xx_HAL_Driver/Src/stm32h7xx_hal_rcc_ex.c:615:50
	add.w	r0, r4, #8
	.loc	5 615 15 is_stmt 0              @ ../Drivers/STM32H7xx_HAL_Driver/Src/stm32h7xx_hal_rcc_ex.c:615:15
	movs	r1, #0
	bl	RCCEx_PLL2_Config
.Ltmp132:
	.loc	5 0 15                          @ ../Drivers/STM32H7xx_HAL_Driver/Src/stm32h7xx_hal_rcc_ex.c:0:15
	b	.LBB0_78
.Ltmp133:
	.p2align	2
.LBB0_77:
	@DEBUG_VALUE: HAL_RCCEx_PeriphCLKConfig:ret <- $r5
	@DEBUG_VALUE: HAL_RCCEx_PeriphCLKConfig:status <- $r6
	@DEBUG_VALUE: HAL_RCCEx_PeriphCLKConfig:PeriphClkInit <- $r4
	.loc	5 621 50 is_stmt 1              @ ../Drivers/STM32H7xx_HAL_Driver/Src/stm32h7xx_hal_rcc_ex.c:621:50
	add.w	r0, r4, #40
	.loc	5 621 15 is_stmt 0              @ ../Drivers/STM32H7xx_HAL_Driver/Src/stm32h7xx_hal_rcc_ex.c:621:15
	movs	r1, #0
	bl	RCCEx_PLL3_Config
.Ltmp134:
.LBB0_78:
	@DEBUG_VALUE: HAL_RCCEx_PeriphCLKConfig:ret <- $r5
	@DEBUG_VALUE: HAL_RCCEx_PeriphCLKConfig:status <- $r6
	@DEBUG_VALUE: HAL_RCCEx_PeriphCLKConfig:PeriphClkInit <- $r4
	.loc	5 0 0                           @ ../Drivers/STM32H7xx_HAL_Driver/Src/stm32h7xx_hal_rcc_ex.c:0:0
	mov	r5, r0
.Ltmp135:
	@DEBUG_VALUE: HAL_RCCEx_PeriphCLKConfig:ret <- undef
.LBB0_79:
	@DEBUG_VALUE: HAL_RCCEx_PeriphCLKConfig:status <- $r6
	@DEBUG_VALUE: HAL_RCCEx_PeriphCLKConfig:PeriphClkInit <- $r4
	@DEBUG_VALUE: HAL_RCCEx_PeriphCLKConfig:ret <- $r5
	mov	r7, r5
	.loc	5 641 9 is_stmt 1               @ ../Drivers/STM32H7xx_HAL_Driver/Src/stm32h7xx_hal_rcc_ex.c:641:9
	cbz	r5, .LBB0_81
.Ltmp136:
@ %bb.80:
	@DEBUG_VALUE: HAL_RCCEx_PeriphCLKConfig:ret <- $r5
	@DEBUG_VALUE: HAL_RCCEx_PeriphCLKConfig:status <- $r6
	@DEBUG_VALUE: HAL_RCCEx_PeriphCLKConfig:PeriphClkInit <- $r4
	@DEBUG_VALUE: HAL_RCCEx_PeriphCLKConfig:ret <- $r5
	@DEBUG_VALUE: HAL_RCCEx_PeriphCLKConfig:status <- $r7
	.loc	5 654 69                        @ ../Drivers/STM32H7xx_HAL_Driver/Src/stm32h7xx_hal_rcc_ex.c:654:69
	ldrb	r0, [r4, #1]
.Ltmp137:
	.loc	5 654 7 is_stmt 0               @ ../Drivers/STM32H7xx_HAL_Driver/Src/stm32h7xx_hal_rcc_ex.c:654:7
	lsls	r0, r0, #26
	bmi	.LBB0_83
	b	.LBB0_93
.Ltmp138:
	.p2align	2
.LBB0_81:
	@DEBUG_VALUE: HAL_RCCEx_PeriphCLKConfig:ret <- $r5
	@DEBUG_VALUE: HAL_RCCEx_PeriphCLKConfig:status <- $r6
	@DEBUG_VALUE: HAL_RCCEx_PeriphCLKConfig:PeriphClkInit <- $r4
	.loc	5 644 7 is_stmt 1               @ ../Drivers/STM32H7xx_HAL_Driver/Src/stm32h7xx_hal_rcc_ex.c:644:7
	ldr.w	r0, [r8, #36]
	ldr	r1, [r4, #96]
	bic	r0, r0, #28672
	movs	r5, #0
.Ltmp139:
	orrs	r0, r1
	str.w	r0, [r8, #36]
.Ltmp140:
.LBB0_82:
	@DEBUG_VALUE: HAL_RCCEx_PeriphCLKConfig:status <- $r6
	@DEBUG_VALUE: HAL_RCCEx_PeriphCLKConfig:PeriphClkInit <- $r4
	.loc	5 0 7 is_stmt 0                 @ ../Drivers/STM32H7xx_HAL_Driver/Src/stm32h7xx_hal_rcc_ex.c:0:7
	mov	r7, r6
.Ltmp141:
	@DEBUG_VALUE: HAL_RCCEx_PeriphCLKConfig:status <- $r7
	@DEBUG_VALUE: HAL_RCCEx_PeriphCLKConfig:ret <- $r5
	@DEBUG_VALUE: HAL_RCCEx_PeriphCLKConfig:status <- $r7
	.loc	5 654 69 is_stmt 1              @ ../Drivers/STM32H7xx_HAL_Driver/Src/stm32h7xx_hal_rcc_ex.c:654:69
	ldrb	r0, [r4, #1]
.Ltmp142:
	.loc	5 654 7 is_stmt 0               @ ../Drivers/STM32H7xx_HAL_Driver/Src/stm32h7xx_hal_rcc_ex.c:654:7
	lsls	r0, r0, #26
	bpl	.LBB0_93
.Ltmp143:
.LBB0_83:
	@DEBUG_VALUE: HAL_RCCEx_PeriphCLKConfig:status <- $r7
	@DEBUG_VALUE: HAL_RCCEx_PeriphCLKConfig:ret <- $r5
	@DEBUG_VALUE: HAL_RCCEx_PeriphCLKConfig:PeriphClkInit <- $r4
	.loc	5 656 28 is_stmt 1              @ ../Drivers/STM32H7xx_HAL_Driver/Src/stm32h7xx_hal_rcc_ex.c:656:28
	ldr	r0, [r4, #100]
	.loc	5 656 5 is_stmt 0               @ ../Drivers/STM32H7xx_HAL_Driver/Src/stm32h7xx_hal_rcc_ex.c:656:5
	ror.w	r0, r0, #16
	cmp	r0, #5
	bhi	.LBB0_87
.Ltmp144:
@ %bb.84:
	@DEBUG_VALUE: HAL_RCCEx_PeriphCLKConfig:status <- $r7
	@DEBUG_VALUE: HAL_RCCEx_PeriphCLKConfig:ret <- $r5
	@DEBUG_VALUE: HAL_RCCEx_PeriphCLKConfig:PeriphClkInit <- $r4
	.loc	5 0 5                           @ ../Drivers/STM32H7xx_HAL_Driver/Src/stm32h7xx_hal_rcc_ex.c:0:5
.LCPI0_7:
	tbb	[pc, r0]
.Ltmp145:
@ %bb.85:
.LJTI0_7:
	.byte	(.LBB0_86-(.LCPI0_7+4))/2
	.byte	(.LBB0_88-(.LCPI0_7+4))/2
	.byte	(.LBB0_89-(.LCPI0_7+4))/2
	.byte	(.LBB0_86-(.LCPI0_7+4))/2
	.byte	(.LBB0_86-(.LCPI0_7+4))/2
	.byte	(.LBB0_86-(.LCPI0_7+4))/2
	.p2align	1
	.p2align	2
.LBB0_86:
.Ltmp146:
	@DEBUG_VALUE: HAL_RCCEx_PeriphCLKConfig:status <- $r7
	@DEBUG_VALUE: HAL_RCCEx_PeriphCLKConfig:ret <- $r5
	@DEBUG_VALUE: HAL_RCCEx_PeriphCLKConfig:PeriphClkInit <- $r4
	@DEBUG_VALUE: HAL_RCCEx_PeriphCLKConfig:ret <- $r5
	mov	r6, r5
	.loc	5 693 9 is_stmt 1               @ ../Drivers/STM32H7xx_HAL_Driver/Src/stm32h7xx_hal_rcc_ex.c:693:9
	cbnz	r5, .LBB0_91
	b	.LBB0_92
.Ltmp147:
	.p2align	2
.LBB0_87:
	@DEBUG_VALUE: HAL_RCCEx_PeriphCLKConfig:status <- $r7
	@DEBUG_VALUE: HAL_RCCEx_PeriphCLKConfig:ret <- $r5
	@DEBUG_VALUE: HAL_RCCEx_PeriphCLKConfig:PeriphClkInit <- $r4
	.loc	5 0 9 is_stmt 0                 @ ../Drivers/STM32H7xx_HAL_Driver/Src/stm32h7xx_hal_rcc_ex.c:0:9
	movs	r5, #1
.Ltmp148:
	movs	r6, #1
.Ltmp149:
	@DEBUG_VALUE: HAL_RCCEx_PeriphCLKConfig:ret <- $r5
	@DEBUG_VALUE: HAL_RCCEx_PeriphCLKConfig:status <- $r6
	.loc	5 706 68 is_stmt 1              @ ../Drivers/STM32H7xx_HAL_Driver/Src/stm32h7xx_hal_rcc_ex.c:706:68
	ldrb	r0, [r4, #1]
.Ltmp150:
	.loc	5 706 7 is_stmt 0               @ ../Drivers/STM32H7xx_HAL_Driver/Src/stm32h7xx_hal_rcc_ex.c:706:7
	lsls	r0, r0, #25
	bmi	.LBB0_94
	b	.LBB0_104
.Ltmp151:
	.p2align	2
.LBB0_88:
	@DEBUG_VALUE: HAL_RCCEx_PeriphCLKConfig:status <- $r7
	@DEBUG_VALUE: HAL_RCCEx_PeriphCLKConfig:ret <- $r5
	@DEBUG_VALUE: HAL_RCCEx_PeriphCLKConfig:PeriphClkInit <- $r4
	.loc	5 664 50 is_stmt 1              @ ../Drivers/STM32H7xx_HAL_Driver/Src/stm32h7xx_hal_rcc_ex.c:664:50
	add.w	r0, r4, #8
	.loc	5 664 15 is_stmt 0              @ ../Drivers/STM32H7xx_HAL_Driver/Src/stm32h7xx_hal_rcc_ex.c:664:15
	movs	r1, #1
	bl	RCCEx_PLL2_Config
.Ltmp152:
	.loc	5 0 15                          @ ../Drivers/STM32H7xx_HAL_Driver/Src/stm32h7xx_hal_rcc_ex.c:0:15
	b	.LBB0_90
.Ltmp153:
	.p2align	2
.LBB0_89:
	@DEBUG_VALUE: HAL_RCCEx_PeriphCLKConfig:status <- $r7
	@DEBUG_VALUE: HAL_RCCEx_PeriphCLKConfig:ret <- $r5
	@DEBUG_VALUE: HAL_RCCEx_PeriphCLKConfig:PeriphClkInit <- $r4
	.loc	5 669 50 is_stmt 1              @ ../Drivers/STM32H7xx_HAL_Driver/Src/stm32h7xx_hal_rcc_ex.c:669:50
	add.w	r0, r4, #40
	.loc	5 669 15 is_stmt 0              @ ../Drivers/STM32H7xx_HAL_Driver/Src/stm32h7xx_hal_rcc_ex.c:669:15
	movs	r1, #1
	bl	RCCEx_PLL3_Config
.Ltmp154:
.LBB0_90:
	@DEBUG_VALUE: HAL_RCCEx_PeriphCLKConfig:status <- $r7
	@DEBUG_VALUE: HAL_RCCEx_PeriphCLKConfig:ret <- $r5
	@DEBUG_VALUE: HAL_RCCEx_PeriphCLKConfig:PeriphClkInit <- $r4
	.loc	5 0 0                           @ ../Drivers/STM32H7xx_HAL_Driver/Src/stm32h7xx_hal_rcc_ex.c:0:0
	mov	r5, r0
.Ltmp155:
	@DEBUG_VALUE: HAL_RCCEx_PeriphCLKConfig:ret <- undef
	@DEBUG_VALUE: HAL_RCCEx_PeriphCLKConfig:ret <- $r5
	mov	r6, r5
.Ltmp156:
	.loc	5 693 9 is_stmt 1               @ ../Drivers/STM32H7xx_HAL_Driver/Src/stm32h7xx_hal_rcc_ex.c:693:9
	cbz	r5, .LBB0_92
.Ltmp157:
.LBB0_91:
	@DEBUG_VALUE: HAL_RCCEx_PeriphCLKConfig:status <- $r7
	@DEBUG_VALUE: HAL_RCCEx_PeriphCLKConfig:ret <- $r5
	@DEBUG_VALUE: HAL_RCCEx_PeriphCLKConfig:PeriphClkInit <- $r4
	@DEBUG_VALUE: HAL_RCCEx_PeriphCLKConfig:ret <- $r5
	@DEBUG_VALUE: HAL_RCCEx_PeriphCLKConfig:status <- $r6
	.loc	5 706 68                        @ ../Drivers/STM32H7xx_HAL_Driver/Src/stm32h7xx_hal_rcc_ex.c:706:68
	ldrb	r0, [r4, #1]
.Ltmp158:
	.loc	5 706 7 is_stmt 0               @ ../Drivers/STM32H7xx_HAL_Driver/Src/stm32h7xx_hal_rcc_ex.c:706:7
	lsls	r0, r0, #25
	bmi	.LBB0_94
	b	.LBB0_104
.Ltmp159:
	.p2align	2
.LBB0_92:
	@DEBUG_VALUE: HAL_RCCEx_PeriphCLKConfig:status <- $r7
	@DEBUG_VALUE: HAL_RCCEx_PeriphCLKConfig:ret <- $r5
	@DEBUG_VALUE: HAL_RCCEx_PeriphCLKConfig:PeriphClkInit <- $r4
	.loc	5 696 7 is_stmt 1               @ ../Drivers/STM32H7xx_HAL_Driver/Src/stm32h7xx_hal_rcc_ex.c:696:7
	ldr.w	r0, [r8, #36]
	ldr	r1, [r4, #100]
	bic	r0, r0, #458752
	movs	r5, #0
.Ltmp160:
	orrs	r0, r1
	str.w	r0, [r8, #36]
.Ltmp161:
.LBB0_93:
	@DEBUG_VALUE: HAL_RCCEx_PeriphCLKConfig:status <- $r7
	@DEBUG_VALUE: HAL_RCCEx_PeriphCLKConfig:PeriphClkInit <- $r4
	.loc	5 0 7 is_stmt 0                 @ ../Drivers/STM32H7xx_HAL_Driver/Src/stm32h7xx_hal_rcc_ex.c:0:7
	mov	r6, r7
.Ltmp162:
	@DEBUG_VALUE: HAL_RCCEx_PeriphCLKConfig:status <- $r6
	@DEBUG_VALUE: HAL_RCCEx_PeriphCLKConfig:ret <- $r5
	@DEBUG_VALUE: HAL_RCCEx_PeriphCLKConfig:status <- $r6
	.loc	5 706 68 is_stmt 1              @ ../Drivers/STM32H7xx_HAL_Driver/Src/stm32h7xx_hal_rcc_ex.c:706:68
	ldrb	r0, [r4, #1]
.Ltmp163:
	.loc	5 706 7 is_stmt 0               @ ../Drivers/STM32H7xx_HAL_Driver/Src/stm32h7xx_hal_rcc_ex.c:706:7
	lsls	r0, r0, #25
	bpl	.LBB0_104
.Ltmp164:
.LBB0_94:
	@DEBUG_VALUE: HAL_RCCEx_PeriphCLKConfig:ret <- $r5
	@DEBUG_VALUE: HAL_RCCEx_PeriphCLKConfig:status <- $r6
	@DEBUG_VALUE: HAL_RCCEx_PeriphCLKConfig:PeriphClkInit <- $r4
	.loc	5 708 28 is_stmt 1              @ ../Drivers/STM32H7xx_HAL_Driver/Src/stm32h7xx_hal_rcc_ex.c:708:28
	ldr.w	r0, [r4, #176]
	.loc	5 708 5 is_stmt 0               @ ../Drivers/STM32H7xx_HAL_Driver/Src/stm32h7xx_hal_rcc_ex.c:708:5
	ror.w	r0, r0, #28
	cmp	r0, #5
	bhi	.LBB0_98
.Ltmp165:
@ %bb.95:
	@DEBUG_VALUE: HAL_RCCEx_PeriphCLKConfig:ret <- $r5
	@DEBUG_VALUE: HAL_RCCEx_PeriphCLKConfig:status <- $r6
	@DEBUG_VALUE: HAL_RCCEx_PeriphCLKConfig:PeriphClkInit <- $r4
	.loc	5 0 5                           @ ../Drivers/STM32H7xx_HAL_Driver/Src/stm32h7xx_hal_rcc_ex.c:0:5
.LCPI0_8:
	tbb	[pc, r0]
.Ltmp166:
@ %bb.96:
.LJTI0_8:
	.byte	(.LBB0_97-(.LCPI0_8+4))/2
	.byte	(.LBB0_99-(.LCPI0_8+4))/2
	.byte	(.LBB0_100-(.LCPI0_8+4))/2
	.byte	(.LBB0_97-(.LCPI0_8+4))/2
	.byte	(.LBB0_97-(.LCPI0_8+4))/2
	.byte	(.LBB0_97-(.LCPI0_8+4))/2
	.p2align	1
	.p2align	2
.LBB0_97:
.Ltmp167:
	@DEBUG_VALUE: HAL_RCCEx_PeriphCLKConfig:ret <- $r5
	@DEBUG_VALUE: HAL_RCCEx_PeriphCLKConfig:status <- $r6
	@DEBUG_VALUE: HAL_RCCEx_PeriphCLKConfig:PeriphClkInit <- $r4
	@DEBUG_VALUE: HAL_RCCEx_PeriphCLKConfig:ret <- $r5
	mov	r7, r5
	.loc	5 751 9 is_stmt 1               @ ../Drivers/STM32H7xx_HAL_Driver/Src/stm32h7xx_hal_rcc_ex.c:751:9
	cbnz	r5, .LBB0_102
	b	.LBB0_103
.Ltmp168:
	.p2align	2
.LBB0_98:
	@DEBUG_VALUE: HAL_RCCEx_PeriphCLKConfig:ret <- $r5
	@DEBUG_VALUE: HAL_RCCEx_PeriphCLKConfig:status <- $r6
	@DEBUG_VALUE: HAL_RCCEx_PeriphCLKConfig:PeriphClkInit <- $r4
	.loc	5 0 9 is_stmt 0                 @ ../Drivers/STM32H7xx_HAL_Driver/Src/stm32h7xx_hal_rcc_ex.c:0:9
	movs	r5, #1
.Ltmp169:
	movs	r7, #1
.Ltmp170:
	@DEBUG_VALUE: HAL_RCCEx_PeriphCLKConfig:ret <- $r5
	@DEBUG_VALUE: HAL_RCCEx_PeriphCLKConfig:status <- $r7
	.loc	5 802 69 is_stmt 1              @ ../Drivers/STM32H7xx_HAL_Driver/Src/stm32h7xx_hal_rcc_ex.c:802:69
	ldrb	r0, [r4, #1]
.Ltmp171:
	.loc	5 802 7 is_stmt 0               @ ../Drivers/STM32H7xx_HAL_Driver/Src/stm32h7xx_hal_rcc_ex.c:802:7
	lsls	r0, r0, #24
	bmi	.LBB0_105
	b	.LBB0_112
.Ltmp172:
	.p2align	2
.LBB0_99:
	@DEBUG_VALUE: HAL_RCCEx_PeriphCLKConfig:ret <- $r5
	@DEBUG_VALUE: HAL_RCCEx_PeriphCLKConfig:status <- $r6
	@DEBUG_VALUE: HAL_RCCEx_PeriphCLKConfig:PeriphClkInit <- $r4
	.loc	5 716 50 is_stmt 1              @ ../Drivers/STM32H7xx_HAL_Driver/Src/stm32h7xx_hal_rcc_ex.c:716:50
	add.w	r0, r4, #8
	.loc	5 716 15 is_stmt 0              @ ../Drivers/STM32H7xx_HAL_Driver/Src/stm32h7xx_hal_rcc_ex.c:716:15
	movs	r1, #1
	bl	RCCEx_PLL2_Config
.Ltmp173:
	.loc	5 0 15                          @ ../Drivers/STM32H7xx_HAL_Driver/Src/stm32h7xx_hal_rcc_ex.c:0:15
	b	.LBB0_101
.Ltmp174:
	.p2align	2
.LBB0_100:
	@DEBUG_VALUE: HAL_RCCEx_PeriphCLKConfig:ret <- $r5
	@DEBUG_VALUE: HAL_RCCEx_PeriphCLKConfig:status <- $r6
	@DEBUG_VALUE: HAL_RCCEx_PeriphCLKConfig:PeriphClkInit <- $r4
	.loc	5 721 50 is_stmt 1              @ ../Drivers/STM32H7xx_HAL_Driver/Src/stm32h7xx_hal_rcc_ex.c:721:50
	add.w	r0, r4, #40
	.loc	5 721 15 is_stmt 0              @ ../Drivers/STM32H7xx_HAL_Driver/Src/stm32h7xx_hal_rcc_ex.c:721:15
	movs	r1, #1
	bl	RCCEx_PLL3_Config
.Ltmp175:
.LBB0_101:
	@DEBUG_VALUE: HAL_RCCEx_PeriphCLKConfig:ret <- $r5
	@DEBUG_VALUE: HAL_RCCEx_PeriphCLKConfig:status <- $r6
	@DEBUG_VALUE: HAL_RCCEx_PeriphCLKConfig:PeriphClkInit <- $r4
	.loc	5 0 0                           @ ../Drivers/STM32H7xx_HAL_Driver/Src/stm32h7xx_hal_rcc_ex.c:0:0
	mov	r5, r0
.Ltmp176:
	@DEBUG_VALUE: HAL_RCCEx_PeriphCLKConfig:ret <- undef
	@DEBUG_VALUE: HAL_RCCEx_PeriphCLKConfig:ret <- $r5
	mov	r7, r5
.Ltmp177:
	.loc	5 751 9 is_stmt 1               @ ../Drivers/STM32H7xx_HAL_Driver/Src/stm32h7xx_hal_rcc_ex.c:751:9
	cbz	r5, .LBB0_103
.Ltmp178:
.LBB0_102:
	@DEBUG_VALUE: HAL_RCCEx_PeriphCLKConfig:ret <- $r5
	@DEBUG_VALUE: HAL_RCCEx_PeriphCLKConfig:status <- $r6
	@DEBUG_VALUE: HAL_RCCEx_PeriphCLKConfig:PeriphClkInit <- $r4
	@DEBUG_VALUE: HAL_RCCEx_PeriphCLKConfig:ret <- $r5
	@DEBUG_VALUE: HAL_RCCEx_PeriphCLKConfig:status <- $r7
	.loc	5 802 69                        @ ../Drivers/STM32H7xx_HAL_Driver/Src/stm32h7xx_hal_rcc_ex.c:802:69
	ldrb	r0, [r4, #1]
.Ltmp179:
	.loc	5 802 7 is_stmt 0               @ ../Drivers/STM32H7xx_HAL_Driver/Src/stm32h7xx_hal_rcc_ex.c:802:7
	lsls	r0, r0, #24
	bmi	.LBB0_105
	b	.LBB0_112
.Ltmp180:
	.p2align	2
.LBB0_103:
	@DEBUG_VALUE: HAL_RCCEx_PeriphCLKConfig:ret <- $r5
	@DEBUG_VALUE: HAL_RCCEx_PeriphCLKConfig:status <- $r6
	@DEBUG_VALUE: HAL_RCCEx_PeriphCLKConfig:PeriphClkInit <- $r4
	.loc	5 754 7 is_stmt 1               @ ../Drivers/STM32H7xx_HAL_Driver/Src/stm32h7xx_hal_rcc_ex.c:754:7
	ldr.w	r0, [r8, #44]
	ldr.w	r1, [r4, #176]
	bic	r0, r0, #1879048192
	movs	r5, #0
.Ltmp181:
	orrs	r0, r1
	str.w	r0, [r8, #44]
.Ltmp182:
.LBB0_104:
	@DEBUG_VALUE: HAL_RCCEx_PeriphCLKConfig:status <- $r6
	@DEBUG_VALUE: HAL_RCCEx_PeriphCLKConfig:PeriphClkInit <- $r4
	.loc	5 0 7 is_stmt 0                 @ ../Drivers/STM32H7xx_HAL_Driver/Src/stm32h7xx_hal_rcc_ex.c:0:7
	mov	r7, r6
.Ltmp183:
	@DEBUG_VALUE: HAL_RCCEx_PeriphCLKConfig:status <- $r7
	@DEBUG_VALUE: HAL_RCCEx_PeriphCLKConfig:ret <- $r5
	@DEBUG_VALUE: HAL_RCCEx_PeriphCLKConfig:status <- $r7
	.loc	5 802 69 is_stmt 1              @ ../Drivers/STM32H7xx_HAL_Driver/Src/stm32h7xx_hal_rcc_ex.c:802:69
	ldrb	r0, [r4, #1]
.Ltmp184:
	.loc	5 802 7 is_stmt 0               @ ../Drivers/STM32H7xx_HAL_Driver/Src/stm32h7xx_hal_rcc_ex.c:802:7
	lsls	r0, r0, #24
	bpl	.LBB0_112
.Ltmp185:
.LBB0_105:
	@DEBUG_VALUE: HAL_RCCEx_PeriphCLKConfig:status <- $r7
	@DEBUG_VALUE: HAL_RCCEx_PeriphCLKConfig:ret <- $r5
	@DEBUG_VALUE: HAL_RCCEx_PeriphCLKConfig:PeriphClkInit <- $r4
	.loc	5 804 28 is_stmt 1              @ ../Drivers/STM32H7xx_HAL_Driver/Src/stm32h7xx_hal_rcc_ex.c:804:28
	ldr	r0, [r4, #112]
	.loc	5 804 5 is_stmt 0               @ ../Drivers/STM32H7xx_HAL_Driver/Src/stm32h7xx_hal_rcc_ex.c:804:5
	cbz	r0, .LBB0_109
.Ltmp186:
@ %bb.106:
	@DEBUG_VALUE: HAL_RCCEx_PeriphCLKConfig:status <- $r7
	@DEBUG_VALUE: HAL_RCCEx_PeriphCLKConfig:ret <- $r5
	@DEBUG_VALUE: HAL_RCCEx_PeriphCLKConfig:PeriphClkInit <- $r4
	cmp.w	r0, #536870912
	beq	.LBB0_110
.Ltmp187:
@ %bb.107:
	@DEBUG_VALUE: HAL_RCCEx_PeriphCLKConfig:status <- $r7
	@DEBUG_VALUE: HAL_RCCEx_PeriphCLKConfig:ret <- $r5
	@DEBUG_VALUE: HAL_RCCEx_PeriphCLKConfig:PeriphClkInit <- $r4
	cmp.w	r0, #268435456
	bne	.LBB0_119
.Ltmp188:
@ %bb.108:
	@DEBUG_VALUE: HAL_RCCEx_PeriphCLKConfig:status <- $r7
	@DEBUG_VALUE: HAL_RCCEx_PeriphCLKConfig:ret <- $r5
	@DEBUG_VALUE: HAL_RCCEx_PeriphCLKConfig:PeriphClkInit <- $r4
	.loc	5 808 9 is_stmt 1               @ ../Drivers/STM32H7xx_HAL_Driver/Src/stm32h7xx_hal_rcc_ex.c:808:9
	ldr.w	r0, [r8]
	orr	r0, r0, #131072
	str.w	r0, [r8]
.Ltmp189:
.LBB0_109:
	@DEBUG_VALUE: HAL_RCCEx_PeriphCLKConfig:status <- $r7
	@DEBUG_VALUE: HAL_RCCEx_PeriphCLKConfig:ret <- $r5
	@DEBUG_VALUE: HAL_RCCEx_PeriphCLKConfig:PeriphClkInit <- $r4
	@DEBUG_VALUE: HAL_RCCEx_PeriphCLKConfig:ret <- $r5
	.loc	5 0 9 is_stmt 0                 @ ../Drivers/STM32H7xx_HAL_Driver/Src/stm32h7xx_hal_rcc_ex.c:0:9
	mov	r6, r5
	cbnz	r5, .LBB0_113
	b	.LBB0_111
.Ltmp190:
	.p2align	2
.LBB0_110:
	@DEBUG_VALUE: HAL_RCCEx_PeriphCLKConfig:status <- $r7
	@DEBUG_VALUE: HAL_RCCEx_PeriphCLKConfig:ret <- $r5
	@DEBUG_VALUE: HAL_RCCEx_PeriphCLKConfig:PeriphClkInit <- $r4
	.loc	5 815 50 is_stmt 1              @ ../Drivers/STM32H7xx_HAL_Driver/Src/stm32h7xx_hal_rcc_ex.c:815:50
	add.w	r0, r4, #8
	.loc	5 815 15 is_stmt 0              @ ../Drivers/STM32H7xx_HAL_Driver/Src/stm32h7xx_hal_rcc_ex.c:815:15
	movs	r1, #1
	bl	RCCEx_PLL2_Config
.Ltmp191:
	mov	r5, r0
.Ltmp192:
	@DEBUG_VALUE: HAL_RCCEx_PeriphCLKConfig:ret <- undef
	@DEBUG_VALUE: HAL_RCCEx_PeriphCLKConfig:ret <- $r5
	.loc	5 0 15                          @ ../Drivers/STM32H7xx_HAL_Driver/Src/stm32h7xx_hal_rcc_ex.c:0:15
	mov	r6, r5
.Ltmp193:
	.loc	5 830 9 is_stmt 1               @ ../Drivers/STM32H7xx_HAL_Driver/Src/stm32h7xx_hal_rcc_ex.c:830:9
	cbnz	r5, .LBB0_113
.Ltmp194:
.LBB0_111:
	@DEBUG_VALUE: HAL_RCCEx_PeriphCLKConfig:status <- $r7
	@DEBUG_VALUE: HAL_RCCEx_PeriphCLKConfig:ret <- $r5
	@DEBUG_VALUE: HAL_RCCEx_PeriphCLKConfig:PeriphClkInit <- $r4
	.loc	5 833 7                         @ ../Drivers/STM32H7xx_HAL_Driver/Src/stm32h7xx_hal_rcc_ex.c:833:7
	ldr.w	r0, [r8, #36]
	ldr	r1, [r4, #112]
	bic	r0, r0, #805306368
	movs	r5, #0
.Ltmp195:
	orrs	r0, r1
	str.w	r0, [r8, #36]
.Ltmp196:
.LBB0_112:
	@DEBUG_VALUE: HAL_RCCEx_PeriphCLKConfig:status <- $r7
	@DEBUG_VALUE: HAL_RCCEx_PeriphCLKConfig:PeriphClkInit <- $r4
	.loc	5 0 7 is_stmt 0                 @ ../Drivers/STM32H7xx_HAL_Driver/Src/stm32h7xx_hal_rcc_ex.c:0:7
	mov	r6, r7
.Ltmp197:
	@DEBUG_VALUE: HAL_RCCEx_PeriphCLKConfig:status <- $r6
.LBB0_113:
	@DEBUG_VALUE: HAL_RCCEx_PeriphCLKConfig:PeriphClkInit <- $r4
	@DEBUG_VALUE: HAL_RCCEx_PeriphCLKConfig:ret <- $r5
	@DEBUG_VALUE: HAL_RCCEx_PeriphCLKConfig:status <- $r6
	.loc	5 844 67 is_stmt 1              @ ../Drivers/STM32H7xx_HAL_Driver/Src/stm32h7xx_hal_rcc_ex.c:844:67
	ldrb	r0, [r4, #3]
.Ltmp198:
	.loc	5 844 7 is_stmt 0               @ ../Drivers/STM32H7xx_HAL_Driver/Src/stm32h7xx_hal_rcc_ex.c:844:7
	lsls	r0, r0, #31
	beq	.LBB0_124
.Ltmp199:
.LBB0_114:
	@DEBUG_VALUE: HAL_RCCEx_PeriphCLKConfig:ret <- $r5
	@DEBUG_VALUE: HAL_RCCEx_PeriphCLKConfig:status <- $r6
	@DEBUG_VALUE: HAL_RCCEx_PeriphCLKConfig:PeriphClkInit <- $r4
	.loc	5 846 28 is_stmt 1              @ ../Drivers/STM32H7xx_HAL_Driver/Src/stm32h7xx_hal_rcc_ex.c:846:28
	ldr	r0, [r4, #72]
	.loc	5 846 5 is_stmt 0               @ ../Drivers/STM32H7xx_HAL_Driver/Src/stm32h7xx_hal_rcc_ex.c:846:5
	cmp	r0, #3
	bhi	.LBB0_120
.Ltmp200:
@ %bb.115:
	@DEBUG_VALUE: HAL_RCCEx_PeriphCLKConfig:ret <- $r5
	@DEBUG_VALUE: HAL_RCCEx_PeriphCLKConfig:status <- $r6
	@DEBUG_VALUE: HAL_RCCEx_PeriphCLKConfig:PeriphClkInit <- $r4
	.loc	5 0 5                           @ ../Drivers/STM32H7xx_HAL_Driver/Src/stm32h7xx_hal_rcc_ex.c:0:5
.LCPI0_9:
	tbb	[pc, r0]
.Ltmp201:
@ %bb.116:
.LJTI0_9:
	.byte	(.LBB0_118-(.LCPI0_9+4))/2
	.byte	(.LBB0_117-(.LCPI0_9+4))/2
	.byte	(.LBB0_121-(.LCPI0_9+4))/2
	.byte	(.LBB0_118-(.LCPI0_9+4))/2
	.p2align	1
	.p2align	2
.LBB0_117:
.Ltmp202:
	@DEBUG_VALUE: HAL_RCCEx_PeriphCLKConfig:ret <- $r5
	@DEBUG_VALUE: HAL_RCCEx_PeriphCLKConfig:status <- $r6
	@DEBUG_VALUE: HAL_RCCEx_PeriphCLKConfig:PeriphClkInit <- $r4
	.loc	5 850 9 is_stmt 1               @ ../Drivers/STM32H7xx_HAL_Driver/Src/stm32h7xx_hal_rcc_ex.c:850:9
	ldr.w	r0, [r8]
	orr	r0, r0, #131072
	str.w	r0, [r8]
.Ltmp203:
.LBB0_118:
	@DEBUG_VALUE: HAL_RCCEx_PeriphCLKConfig:ret <- $r5
	@DEBUG_VALUE: HAL_RCCEx_PeriphCLKConfig:status <- $r6
	@DEBUG_VALUE: HAL_RCCEx_PeriphCLKConfig:PeriphClkInit <- $r4
	@DEBUG_VALUE: HAL_RCCEx_PeriphCLKConfig:ret <- $r5
	.loc	5 0 9 is_stmt 0                 @ ../Drivers/STM32H7xx_HAL_Driver/Src/stm32h7xx_hal_rcc_ex.c:0:9
	mov	r10, r5
	.loc	5 877 9 is_stmt 1               @ ../Drivers/STM32H7xx_HAL_Driver/Src/stm32h7xx_hal_rcc_ex.c:877:9
	cbnz	r5, .LBB0_122
	b	.LBB0_123
.Ltmp204:
	.p2align	2
.LBB0_119:
	@DEBUG_VALUE: HAL_RCCEx_PeriphCLKConfig:status <- $r7
	@DEBUG_VALUE: HAL_RCCEx_PeriphCLKConfig:ret <- $r5
	@DEBUG_VALUE: HAL_RCCEx_PeriphCLKConfig:PeriphClkInit <- $r4
	.loc	5 0 9 is_stmt 0                 @ ../Drivers/STM32H7xx_HAL_Driver/Src/stm32h7xx_hal_rcc_ex.c:0:9
	movs	r5, #1
.Ltmp205:
	movs	r6, #1
.Ltmp206:
	@DEBUG_VALUE: HAL_RCCEx_PeriphCLKConfig:ret <- $r5
	@DEBUG_VALUE: HAL_RCCEx_PeriphCLKConfig:status <- $r6
	.loc	5 844 67 is_stmt 1              @ ../Drivers/STM32H7xx_HAL_Driver/Src/stm32h7xx_hal_rcc_ex.c:844:67
	ldrb	r0, [r4, #3]
.Ltmp207:
	.loc	5 844 7 is_stmt 0               @ ../Drivers/STM32H7xx_HAL_Driver/Src/stm32h7xx_hal_rcc_ex.c:844:7
	lsls	r0, r0, #31
	bne	.LBB0_114
	b	.LBB0_124
.Ltmp208:
	.p2align	2
.LBB0_120:
	@DEBUG_VALUE: HAL_RCCEx_PeriphCLKConfig:ret <- $r5
	@DEBUG_VALUE: HAL_RCCEx_PeriphCLKConfig:status <- $r6
	@DEBUG_VALUE: HAL_RCCEx_PeriphCLKConfig:PeriphClkInit <- $r4
	.loc	5 0 7                           @ ../Drivers/STM32H7xx_HAL_Driver/Src/stm32h7xx_hal_rcc_ex.c:0:7
	movs	r5, #1
.Ltmp209:
	mov.w	r10, #1
.Ltmp210:
	@DEBUG_VALUE: HAL_RCCEx_PeriphCLKConfig:ret <- $r5
	@DEBUG_VALUE: HAL_RCCEx_PeriphCLKConfig:status <- $r10
	.loc	5 890 67 is_stmt 1              @ ../Drivers/STM32H7xx_HAL_Driver/Src/stm32h7xx_hal_rcc_ex.c:890:67
	ldrb	r0, [r4, #2]
.Ltmp211:
	.loc	5 890 7 is_stmt 0               @ ../Drivers/STM32H7xx_HAL_Driver/Src/stm32h7xx_hal_rcc_ex.c:890:7
	lsls	r0, r0, #25
	bpl	.LBB0_125
	b	.LBB0_126
.Ltmp212:
	.p2align	2
.LBB0_121:
	@DEBUG_VALUE: HAL_RCCEx_PeriphCLKConfig:ret <- $r5
	@DEBUG_VALUE: HAL_RCCEx_PeriphCLKConfig:status <- $r6
	@DEBUG_VALUE: HAL_RCCEx_PeriphCLKConfig:PeriphClkInit <- $r4
	.loc	5 857 50 is_stmt 1              @ ../Drivers/STM32H7xx_HAL_Driver/Src/stm32h7xx_hal_rcc_ex.c:857:50
	add.w	r0, r4, #8
	.loc	5 857 15 is_stmt 0              @ ../Drivers/STM32H7xx_HAL_Driver/Src/stm32h7xx_hal_rcc_ex.c:857:15
	movs	r1, #2
	bl	RCCEx_PLL2_Config
.Ltmp213:
	mov	r5, r0
.Ltmp214:
	@DEBUG_VALUE: HAL_RCCEx_PeriphCLKConfig:ret <- undef
	@DEBUG_VALUE: HAL_RCCEx_PeriphCLKConfig:ret <- $r5
	.loc	5 0 15                          @ ../Drivers/STM32H7xx_HAL_Driver/Src/stm32h7xx_hal_rcc_ex.c:0:15
	mov	r10, r5
.Ltmp215:
	.loc	5 877 9 is_stmt 1               @ ../Drivers/STM32H7xx_HAL_Driver/Src/stm32h7xx_hal_rcc_ex.c:877:9
	cbz	r5, .LBB0_123
.Ltmp216:
.LBB0_122:
	@DEBUG_VALUE: HAL_RCCEx_PeriphCLKConfig:ret <- $r5
	@DEBUG_VALUE: HAL_RCCEx_PeriphCLKConfig:status <- $r6
	@DEBUG_VALUE: HAL_RCCEx_PeriphCLKConfig:PeriphClkInit <- $r4
	@DEBUG_VALUE: HAL_RCCEx_PeriphCLKConfig:ret <- $r5
	@DEBUG_VALUE: HAL_RCCEx_PeriphCLKConfig:status <- $r10
	.loc	5 890 67                        @ ../Drivers/STM32H7xx_HAL_Driver/Src/stm32h7xx_hal_rcc_ex.c:890:67
	ldrb	r0, [r4, #2]
.Ltmp217:
	.loc	5 890 7 is_stmt 0               @ ../Drivers/STM32H7xx_HAL_Driver/Src/stm32h7xx_hal_rcc_ex.c:890:7
	lsls	r0, r0, #25
	bpl	.LBB0_125
	b	.LBB0_126
.Ltmp218:
	.p2align	2
.LBB0_123:
	@DEBUG_VALUE: HAL_RCCEx_PeriphCLKConfig:ret <- $r5
	@DEBUG_VALUE: HAL_RCCEx_PeriphCLKConfig:status <- $r6
	@DEBUG_VALUE: HAL_RCCEx_PeriphCLKConfig:PeriphClkInit <- $r4
	.loc	5 880 7 is_stmt 1               @ ../Drivers/STM32H7xx_HAL_Driver/Src/stm32h7xx_hal_rcc_ex.c:880:7
	ldr.w	r0, [r8, #32]
	ldr	r1, [r4, #72]
	bic	r0, r0, #3
	movs	r5, #0
.Ltmp219:
	orrs	r0, r1
	str.w	r0, [r8, #32]
.Ltmp220:
.LBB0_124:
	@DEBUG_VALUE: HAL_RCCEx_PeriphCLKConfig:status <- $r6
	@DEBUG_VALUE: HAL_RCCEx_PeriphCLKConfig:PeriphClkInit <- $r4
	.loc	5 0 7 is_stmt 0                 @ ../Drivers/STM32H7xx_HAL_Driver/Src/stm32h7xx_hal_rcc_ex.c:0:7
	mov	r10, r6
.Ltmp221:
	@DEBUG_VALUE: HAL_RCCEx_PeriphCLKConfig:status <- $r10
	@DEBUG_VALUE: HAL_RCCEx_PeriphCLKConfig:ret <- $r5
	@DEBUG_VALUE: HAL_RCCEx_PeriphCLKConfig:status <- $r10
	.loc	5 890 67 is_stmt 1              @ ../Drivers/STM32H7xx_HAL_Driver/Src/stm32h7xx_hal_rcc_ex.c:890:67
	ldrb	r0, [r4, #2]
.Ltmp222:
	.loc	5 890 7 is_stmt 0               @ ../Drivers/STM32H7xx_HAL_Driver/Src/stm32h7xx_hal_rcc_ex.c:890:7
	lsls	r0, r0, #25
	bmi	.LBB0_126
.Ltmp223:
.LBB0_125:
	@DEBUG_VALUE: HAL_RCCEx_PeriphCLKConfig:status <- $r10
	@DEBUG_VALUE: HAL_RCCEx_PeriphCLKConfig:PeriphClkInit <- $r4
	.loc	5 0 7                           @ ../Drivers/STM32H7xx_HAL_Driver/Src/stm32h7xx_hal_rcc_ex.c:0:7
	mov	r7, r10
.Ltmp224:
	@DEBUG_VALUE: HAL_RCCEx_PeriphCLKConfig:status <- $r7
	b	.LBB0_131
.Ltmp225:
	.p2align	2
.LBB0_126:
	@DEBUG_VALUE: HAL_RCCEx_PeriphCLKConfig:status <- $r10
	@DEBUG_VALUE: HAL_RCCEx_PeriphCLKConfig:ret <- $r5
	@DEBUG_VALUE: HAL_RCCEx_PeriphCLKConfig:PeriphClkInit <- $r4
	.loc	5 896 5 is_stmt 1               @ ../Drivers/STM32H7xx_HAL_Driver/Src/stm32h7xx_hal_rcc_ex.c:896:5
	ldr.w	r0, [r8, #980]
	orr	r0, r0, #256
	str.w	r0, [r8, #980]
	.loc	5 899 17                        @ ../Drivers/STM32H7xx_HAL_Driver/Src/stm32h7xx_hal_rcc_ex.c:899:17
	bl	HAL_GetTick
.Ltmp226:
	mov	r6, r0
.Ltmp227:
	@DEBUG_VALUE: HAL_RCCEx_PeriphCLKConfig:tickstart <- $r6
	.p2align	2
.LBB0_127:                              @ =>This Inner Loop Header: Depth=1
	@DEBUG_VALUE: HAL_RCCEx_PeriphCLKConfig:tickstart <- $r6
	@DEBUG_VALUE: HAL_RCCEx_PeriphCLKConfig:status <- $r10
	@DEBUG_VALUE: HAL_RCCEx_PeriphCLKConfig:ret <- $r5
	@DEBUG_VALUE: HAL_RCCEx_PeriphCLKConfig:PeriphClkInit <- $r4
	.loc	5 901 18                        @ ../Drivers/STM32H7xx_HAL_Driver/Src/stm32h7xx_hal_rcc_ex.c:901:18
	ldr.w	r0, [r8, #980]
	.loc	5 901 5 is_stmt 0               @ ../Drivers/STM32H7xx_HAL_Driver/Src/stm32h7xx_hal_rcc_ex.c:901:5
	lsls	r0, r0, #23
	bmi	.LBB0_130
.Ltmp228:
@ %bb.128:                              @   in Loop: Header=BB0_127 Depth=1
	@DEBUG_VALUE: HAL_RCCEx_PeriphCLKConfig:tickstart <- $r6
	@DEBUG_VALUE: HAL_RCCEx_PeriphCLKConfig:status <- $r10
	@DEBUG_VALUE: HAL_RCCEx_PeriphCLKConfig:ret <- $r5
	@DEBUG_VALUE: HAL_RCCEx_PeriphCLKConfig:PeriphClkInit <- $r4
	.loc	5 903 12 is_stmt 1              @ ../Drivers/STM32H7xx_HAL_Driver/Src/stm32h7xx_hal_rcc_ex.c:903:12
	bl	HAL_GetTick
.Ltmp229:
	.loc	5 903 26 is_stmt 0              @ ../Drivers/STM32H7xx_HAL_Driver/Src/stm32h7xx_hal_rcc_ex.c:903:26
	subs	r0, r0, r6
.Ltmp230:
	.loc	5 903 11                        @ ../Drivers/STM32H7xx_HAL_Driver/Src/stm32h7xx_hal_rcc_ex.c:903:11
	cmp	r0, #100
	bls	.LBB0_127
.Ltmp231:
@ %bb.129:
	@DEBUG_VALUE: HAL_RCCEx_PeriphCLKConfig:tickstart <- $r6
	@DEBUG_VALUE: HAL_RCCEx_PeriphCLKConfig:status <- $r10
	@DEBUG_VALUE: HAL_RCCEx_PeriphCLKConfig:ret <- $r5
	@DEBUG_VALUE: HAL_RCCEx_PeriphCLKConfig:PeriphClkInit <- $r4
	.loc	5 0 11                          @ ../Drivers/STM32H7xx_HAL_Driver/Src/stm32h7xx_hal_rcc_ex.c:0:11
	movs	r5, #3
.Ltmp232:
	movs	r7, #3
	b	.LBB0_131
.Ltmp233:
	.p2align	2
.LBB0_130:
	@DEBUG_VALUE: HAL_RCCEx_PeriphCLKConfig:tickstart <- $r6
	@DEBUG_VALUE: HAL_RCCEx_PeriphCLKConfig:status <- $r10
	@DEBUG_VALUE: HAL_RCCEx_PeriphCLKConfig:ret <- $r5
	@DEBUG_VALUE: HAL_RCCEx_PeriphCLKConfig:PeriphClkInit <- $r4
	@DEBUG_VALUE: HAL_RCCEx_PeriphCLKConfig:ret <- $r5
	mov	r7, r5
	.loc	5 910 9 is_stmt 1               @ ../Drivers/STM32H7xx_HAL_Driver/Src/stm32h7xx_hal_rcc_ex.c:910:9
	cbz	r5, .LBB0_136
.Ltmp234:
.LBB0_131:
	@DEBUG_VALUE: HAL_RCCEx_PeriphCLKConfig:PeriphClkInit <- $r4
	@DEBUG_VALUE: HAL_RCCEx_PeriphCLKConfig:ret <- $r5
	@DEBUG_VALUE: HAL_RCCEx_PeriphCLKConfig:status <- $r7
	.loc	5 960 71                        @ ../Drivers/STM32H7xx_HAL_Driver/Src/stm32h7xx_hal_rcc_ex.c:960:71
	ldrb	r0, [r4]
.Ltmp235:
	.loc	5 960 7 is_stmt 0               @ ../Drivers/STM32H7xx_HAL_Driver/Src/stm32h7xx_hal_rcc_ex.c:960:7
	lsls	r0, r0, #31
	beq	.LBB0_148
.Ltmp236:
@ %bb.132:
	@DEBUG_VALUE: HAL_RCCEx_PeriphCLKConfig:status <- $r7
	@DEBUG_VALUE: HAL_RCCEx_PeriphCLKConfig:ret <- $r5
	@DEBUG_VALUE: HAL_RCCEx_PeriphCLKConfig:PeriphClkInit <- $r4
	.loc	5 962 28 is_stmt 1              @ ../Drivers/STM32H7xx_HAL_Driver/Src/stm32h7xx_hal_rcc_ex.c:962:28
	ldr	r0, [r4, #124]
	.loc	5 962 5 is_stmt 0               @ ../Drivers/STM32H7xx_HAL_Driver/Src/stm32h7xx_hal_rcc_ex.c:962:5
	ror.w	r0, r0, #3
	cmp	r0, #5
	bhi	.LBB0_142
.Ltmp237:
@ %bb.133:
	@DEBUG_VALUE: HAL_RCCEx_PeriphCLKConfig:status <- $r7
	@DEBUG_VALUE: HAL_RCCEx_PeriphCLKConfig:ret <- $r5
	@DEBUG_VALUE: HAL_RCCEx_PeriphCLKConfig:PeriphClkInit <- $r4
	.loc	5 0 5                           @ ../Drivers/STM32H7xx_HAL_Driver/Src/stm32h7xx_hal_rcc_ex.c:0:5
.LCPI0_10:
	tbb	[pc, r0]
.Ltmp238:
@ %bb.134:
.LJTI0_10:
	.byte	(.LBB0_135-(.LCPI0_10+4))/2
	.byte	(.LBB0_143-(.LCPI0_10+4))/2
	.byte	(.LBB0_144-(.LCPI0_10+4))/2
	.byte	(.LBB0_135-(.LCPI0_10+4))/2
	.byte	(.LBB0_135-(.LCPI0_10+4))/2
	.byte	(.LBB0_135-(.LCPI0_10+4))/2
	.p2align	1
	.p2align	2
.LBB0_135:
.Ltmp239:
	@DEBUG_VALUE: HAL_RCCEx_PeriphCLKConfig:status <- $r7
	@DEBUG_VALUE: HAL_RCCEx_PeriphCLKConfig:ret <- $r5
	@DEBUG_VALUE: HAL_RCCEx_PeriphCLKConfig:PeriphClkInit <- $r4
	@DEBUG_VALUE: HAL_RCCEx_PeriphCLKConfig:ret <- $r5
	.loc	5 998 9 is_stmt 1               @ ../Drivers/STM32H7xx_HAL_Driver/Src/stm32h7xx_hal_rcc_ex.c:998:9
	cmp	r5, #0
	mov	r6, r5
	bne	.LBB0_146
	b	.LBB0_147
.Ltmp240:
	.p2align	2
.LBB0_136:
	@DEBUG_VALUE: HAL_RCCEx_PeriphCLKConfig:tickstart <- $r6
	@DEBUG_VALUE: HAL_RCCEx_PeriphCLKConfig:status <- $r10
	@DEBUG_VALUE: HAL_RCCEx_PeriphCLKConfig:ret <- $r5
	@DEBUG_VALUE: HAL_RCCEx_PeriphCLKConfig:PeriphClkInit <- $r4
	.loc	5 913 17                        @ ../Drivers/STM32H7xx_HAL_Driver/Src/stm32h7xx_hal_rcc_ex.c:913:17
	ldr.w	r1, [r8, #68]
	.loc	5 913 60 is_stmt 0              @ ../Drivers/STM32H7xx_HAL_Driver/Src/stm32h7xx_hal_rcc_ex.c:913:60
	ldr.w	r0, [r4, #180]
	.loc	5 913 41                        @ ../Drivers/STM32H7xx_HAL_Driver/Src/stm32h7xx_hal_rcc_ex.c:913:41
	eors	r1, r0
.Ltmp241:
	.loc	5 913 11                        @ ../Drivers/STM32H7xx_HAL_Driver/Src/stm32h7xx_hal_rcc_ex.c:913:11
	tst.w	r1, #768
	beq	.LBB0_138
.Ltmp242:
@ %bb.137:
	@DEBUG_VALUE: HAL_RCCEx_PeriphCLKConfig:tickstart <- $r6
	@DEBUG_VALUE: HAL_RCCEx_PeriphCLKConfig:status <- $r10
	@DEBUG_VALUE: HAL_RCCEx_PeriphCLKConfig:ret <- $r5
	@DEBUG_VALUE: HAL_RCCEx_PeriphCLKConfig:PeriphClkInit <- $r4
	.loc	5 916 24 is_stmt 1              @ ../Drivers/STM32H7xx_HAL_Driver/Src/stm32h7xx_hal_rcc_ex.c:916:24
	ldr.w	r1, [r8, #68]
	.loc	5 918 9                         @ ../Drivers/STM32H7xx_HAL_Driver/Src/stm32h7xx_hal_rcc_ex.c:918:9
	ldr.w	r2, [r8, #68]
	orr	r2, r2, #65536
	str.w	r2, [r8, #68]
	.loc	5 919 9                         @ ../Drivers/STM32H7xx_HAL_Driver/Src/stm32h7xx_hal_rcc_ex.c:919:9
	ldr.w	r2, [r8, #68]
	.loc	5 916 29                        @ ../Drivers/STM32H7xx_HAL_Driver/Src/stm32h7xx_hal_rcc_ex.c:916:29
	bic	r1, r1, #768
.Ltmp243:
	@DEBUG_VALUE: HAL_RCCEx_PeriphCLKConfig:tmpreg <- $r1
	.loc	5 919 9                         @ ../Drivers/STM32H7xx_HAL_Driver/Src/stm32h7xx_hal_rcc_ex.c:919:9
	bic	r2, r2, #65536
	str.w	r2, [r8, #68]
	.loc	5 921 19                        @ ../Drivers/STM32H7xx_HAL_Driver/Src/stm32h7xx_hal_rcc_ex.c:921:19
	str.w	r1, [r8, #68]
.Ltmp244:
.LBB0_138:
	@DEBUG_VALUE: HAL_RCCEx_PeriphCLKConfig:tickstart <- $r6
	@DEBUG_VALUE: HAL_RCCEx_PeriphCLKConfig:status <- $r10
	@DEBUG_VALUE: HAL_RCCEx_PeriphCLKConfig:ret <- $r5
	@DEBUG_VALUE: HAL_RCCEx_PeriphCLKConfig:PeriphClkInit <- $r4
	.loc	5 925 11                        @ ../Drivers/STM32H7xx_HAL_Driver/Src/stm32h7xx_hal_rcc_ex.c:925:11
	cmp.w	r0, #256
	bne.w	.LBB0_277
.Ltmp245:
@ %bb.139:
	@DEBUG_VALUE: HAL_RCCEx_PeriphCLKConfig:tickstart <- $r6
	@DEBUG_VALUE: HAL_RCCEx_PeriphCLKConfig:status <- $r10
	@DEBUG_VALUE: HAL_RCCEx_PeriphCLKConfig:ret <- $r5
	@DEBUG_VALUE: HAL_RCCEx_PeriphCLKConfig:PeriphClkInit <- $r4
	.loc	5 928 21                        @ ../Drivers/STM32H7xx_HAL_Driver/Src/stm32h7xx_hal_rcc_ex.c:928:21
	bl	HAL_GetTick
.Ltmp246:
	mov	r6, r0
.Ltmp247:
	@DEBUG_VALUE: HAL_RCCEx_PeriphCLKConfig:tickstart <- $r6
	.loc	5 0 21 is_stmt 0                @ ../Drivers/STM32H7xx_HAL_Driver/Src/stm32h7xx_hal_rcc_ex.c:0:21
	movw	r11, #5000
	movs	r5, #3
.Ltmp248:
	movs	r7, #3
.Ltmp249:
	.p2align	2
.LBB0_140:                              @ =>This Inner Loop Header: Depth=1
	@DEBUG_VALUE: HAL_RCCEx_PeriphCLKConfig:tickstart <- $r6
	@DEBUG_VALUE: HAL_RCCEx_PeriphCLKConfig:status <- $r10
	@DEBUG_VALUE: HAL_RCCEx_PeriphCLKConfig:PeriphClkInit <- $r4
	.loc	5 931 16 is_stmt 1              @ ../Drivers/STM32H7xx_HAL_Driver/Src/stm32h7xx_hal_rcc_ex.c:931:16
	ldr.w	r0, [r8, #68]
	.loc	5 931 9 is_stmt 0               @ ../Drivers/STM32H7xx_HAL_Driver/Src/stm32h7xx_hal_rcc_ex.c:931:9
	lsls	r0, r0, #30
	bmi.w	.LBB0_276
.Ltmp250:
@ %bb.141:                              @   in Loop: Header=BB0_140 Depth=1
	@DEBUG_VALUE: HAL_RCCEx_PeriphCLKConfig:tickstart <- $r6
	@DEBUG_VALUE: HAL_RCCEx_PeriphCLKConfig:status <- $r10
	@DEBUG_VALUE: HAL_RCCEx_PeriphCLKConfig:PeriphClkInit <- $r4
	.loc	5 933 16 is_stmt 1              @ ../Drivers/STM32H7xx_HAL_Driver/Src/stm32h7xx_hal_rcc_ex.c:933:16
	bl	HAL_GetTick
.Ltmp251:
	.loc	5 933 30 is_stmt 0              @ ../Drivers/STM32H7xx_HAL_Driver/Src/stm32h7xx_hal_rcc_ex.c:933:30
	subs	r0, r0, r6
.Ltmp252:
	.loc	5 933 15                        @ ../Drivers/STM32H7xx_HAL_Driver/Src/stm32h7xx_hal_rcc_ex.c:933:15
	cmp	r0, r11
	bls	.LBB0_140
	b	.LBB0_131
.Ltmp253:
	.p2align	2
.LBB0_142:
	@DEBUG_VALUE: HAL_RCCEx_PeriphCLKConfig:status <- $r7
	@DEBUG_VALUE: HAL_RCCEx_PeriphCLKConfig:ret <- $r5
	@DEBUG_VALUE: HAL_RCCEx_PeriphCLKConfig:PeriphClkInit <- $r4
	.loc	5 0 15                          @ ../Drivers/STM32H7xx_HAL_Driver/Src/stm32h7xx_hal_rcc_ex.c:0:15
	movs	r6, #1
	movs	r5, #1
.Ltmp254:
	@DEBUG_VALUE: HAL_RCCEx_PeriphCLKConfig:ret <- $r5
	@DEBUG_VALUE: HAL_RCCEx_PeriphCLKConfig:status <- $r6
	.loc	5 1011 75 is_stmt 1             @ ../Drivers/STM32H7xx_HAL_Driver/Src/stm32h7xx_hal_rcc_ex.c:1011:75
	ldrb	r0, [r4]
.Ltmp255:
	.loc	5 1011 7 is_stmt 0              @ ../Drivers/STM32H7xx_HAL_Driver/Src/stm32h7xx_hal_rcc_ex.c:1011:7
	lsls	r0, r0, #30
	bmi	.LBB0_149
	b	.LBB0_159
.Ltmp256:
	.p2align	2
.LBB0_143:
	@DEBUG_VALUE: HAL_RCCEx_PeriphCLKConfig:status <- $r7
	@DEBUG_VALUE: HAL_RCCEx_PeriphCLKConfig:ret <- $r5
	@DEBUG_VALUE: HAL_RCCEx_PeriphCLKConfig:PeriphClkInit <- $r4
	.loc	5 969 50 is_stmt 1              @ ../Drivers/STM32H7xx_HAL_Driver/Src/stm32h7xx_hal_rcc_ex.c:969:50
	add.w	r0, r4, #8
	.loc	5 969 15 is_stmt 0              @ ../Drivers/STM32H7xx_HAL_Driver/Src/stm32h7xx_hal_rcc_ex.c:969:15
	movs	r1, #1
	bl	RCCEx_PLL2_Config
.Ltmp257:
	.loc	5 0 15                          @ ../Drivers/STM32H7xx_HAL_Driver/Src/stm32h7xx_hal_rcc_ex.c:0:15
	b	.LBB0_145
.Ltmp258:
	.p2align	2
.LBB0_144:
	@DEBUG_VALUE: HAL_RCCEx_PeriphCLKConfig:status <- $r7
	@DEBUG_VALUE: HAL_RCCEx_PeriphCLKConfig:ret <- $r5
	@DEBUG_VALUE: HAL_RCCEx_PeriphCLKConfig:PeriphClkInit <- $r4
	.loc	5 974 50 is_stmt 1              @ ../Drivers/STM32H7xx_HAL_Driver/Src/stm32h7xx_hal_rcc_ex.c:974:50
	add.w	r0, r4, #40
	.loc	5 974 15 is_stmt 0              @ ../Drivers/STM32H7xx_HAL_Driver/Src/stm32h7xx_hal_rcc_ex.c:974:15
	movs	r1, #1
	bl	RCCEx_PLL3_Config
.Ltmp259:
.LBB0_145:
	@DEBUG_VALUE: HAL_RCCEx_PeriphCLKConfig:status <- $r7
	@DEBUG_VALUE: HAL_RCCEx_PeriphCLKConfig:ret <- $r5
	@DEBUG_VALUE: HAL_RCCEx_PeriphCLKConfig:PeriphClkInit <- $r4
	.loc	5 0 0                           @ ../Drivers/STM32H7xx_HAL_Driver/Src/stm32h7xx_hal_rcc_ex.c:0:0
	mov	r5, r0
.Ltmp260:
	@DEBUG_VALUE: HAL_RCCEx_PeriphCLKConfig:ret <- undef
	@DEBUG_VALUE: HAL_RCCEx_PeriphCLKConfig:ret <- $r5
	mov	r6, r5
.Ltmp261:
	.loc	5 998 9 is_stmt 1               @ ../Drivers/STM32H7xx_HAL_Driver/Src/stm32h7xx_hal_rcc_ex.c:998:9
	cbz	r5, .LBB0_147
.Ltmp262:
.LBB0_146:
	@DEBUG_VALUE: HAL_RCCEx_PeriphCLKConfig:status <- $r7
	@DEBUG_VALUE: HAL_RCCEx_PeriphCLKConfig:ret <- $r5
	@DEBUG_VALUE: HAL_RCCEx_PeriphCLKConfig:PeriphClkInit <- $r4
	@DEBUG_VALUE: HAL_RCCEx_PeriphCLKConfig:ret <- $r5
	@DEBUG_VALUE: HAL_RCCEx_PeriphCLKConfig:status <- $r6
	.loc	5 1011 75                       @ ../Drivers/STM32H7xx_HAL_Driver/Src/stm32h7xx_hal_rcc_ex.c:1011:75
	ldrb	r0, [r4]
.Ltmp263:
	.loc	5 1011 7 is_stmt 0              @ ../Drivers/STM32H7xx_HAL_Driver/Src/stm32h7xx_hal_rcc_ex.c:1011:7
	lsls	r0, r0, #30
	bmi	.LBB0_149
	b	.LBB0_159
.Ltmp264:
	.p2align	2
.LBB0_147:
	@DEBUG_VALUE: HAL_RCCEx_PeriphCLKConfig:status <- $r7
	@DEBUG_VALUE: HAL_RCCEx_PeriphCLKConfig:ret <- $r5
	@DEBUG_VALUE: HAL_RCCEx_PeriphCLKConfig:PeriphClkInit <- $r4
	.loc	5 1001 7 is_stmt 1              @ ../Drivers/STM32H7xx_HAL_Driver/Src/stm32h7xx_hal_rcc_ex.c:1001:7
	ldr.w	r0, [r8, #40]
	ldr	r1, [r4, #124]
	bic	r0, r0, #56
	movs	r5, #0
.Ltmp265:
	orrs	r0, r1
	str.w	r0, [r8, #40]
.Ltmp266:
.LBB0_148:
	@DEBUG_VALUE: HAL_RCCEx_PeriphCLKConfig:status <- $r7
	@DEBUG_VALUE: HAL_RCCEx_PeriphCLKConfig:PeriphClkInit <- $r4
	.loc	5 0 7 is_stmt 0                 @ ../Drivers/STM32H7xx_HAL_Driver/Src/stm32h7xx_hal_rcc_ex.c:0:7
	mov	r6, r7
.Ltmp267:
	@DEBUG_VALUE: HAL_RCCEx_PeriphCLKConfig:status <- $r6
	@DEBUG_VALUE: HAL_RCCEx_PeriphCLKConfig:ret <- $r5
	@DEBUG_VALUE: HAL_RCCEx_PeriphCLKConfig:status <- $r6
	.loc	5 1011 75 is_stmt 1             @ ../Drivers/STM32H7xx_HAL_Driver/Src/stm32h7xx_hal_rcc_ex.c:1011:75
	ldrb	r0, [r4]
.Ltmp268:
	.loc	5 1011 7 is_stmt 0              @ ../Drivers/STM32H7xx_HAL_Driver/Src/stm32h7xx_hal_rcc_ex.c:1011:7
	lsls	r0, r0, #30
	bpl	.LBB0_159
.Ltmp269:
.LBB0_149:
	@DEBUG_VALUE: HAL_RCCEx_PeriphCLKConfig:ret <- $r5
	@DEBUG_VALUE: HAL_RCCEx_PeriphCLKConfig:status <- $r6
	@DEBUG_VALUE: HAL_RCCEx_PeriphCLKConfig:PeriphClkInit <- $r4
	.loc	5 1013 28 is_stmt 1             @ ../Drivers/STM32H7xx_HAL_Driver/Src/stm32h7xx_hal_rcc_ex.c:1013:28
	ldr	r0, [r4, #120]
	.loc	5 1013 5 is_stmt 0              @ ../Drivers/STM32H7xx_HAL_Driver/Src/stm32h7xx_hal_rcc_ex.c:1013:5
	cmp	r0, #5
	bhi	.LBB0_153
.Ltmp270:
@ %bb.150:
	@DEBUG_VALUE: HAL_RCCEx_PeriphCLKConfig:ret <- $r5
	@DEBUG_VALUE: HAL_RCCEx_PeriphCLKConfig:status <- $r6
	@DEBUG_VALUE: HAL_RCCEx_PeriphCLKConfig:PeriphClkInit <- $r4
	.loc	5 0 5                           @ ../Drivers/STM32H7xx_HAL_Driver/Src/stm32h7xx_hal_rcc_ex.c:0:5
.LCPI0_11:
	tbb	[pc, r0]
.Ltmp271:
@ %bb.151:
.LJTI0_11:
	.byte	(.LBB0_152-(.LCPI0_11+4))/2
	.byte	(.LBB0_154-(.LCPI0_11+4))/2
	.byte	(.LBB0_155-(.LCPI0_11+4))/2
	.byte	(.LBB0_152-(.LCPI0_11+4))/2
	.byte	(.LBB0_152-(.LCPI0_11+4))/2
	.byte	(.LBB0_152-(.LCPI0_11+4))/2
	.p2align	1
	.p2align	2
.LBB0_152:
.Ltmp272:
	@DEBUG_VALUE: HAL_RCCEx_PeriphCLKConfig:ret <- $r5
	@DEBUG_VALUE: HAL_RCCEx_PeriphCLKConfig:status <- $r6
	@DEBUG_VALUE: HAL_RCCEx_PeriphCLKConfig:PeriphClkInit <- $r4
	@DEBUG_VALUE: HAL_RCCEx_PeriphCLKConfig:ret <- $r5
	mov	r7, r5
	.loc	5 1049 9 is_stmt 1              @ ../Drivers/STM32H7xx_HAL_Driver/Src/stm32h7xx_hal_rcc_ex.c:1049:9
	cbnz	r5, .LBB0_157
	b	.LBB0_158
.Ltmp273:
	.p2align	2
.LBB0_153:
	@DEBUG_VALUE: HAL_RCCEx_PeriphCLKConfig:ret <- $r5
	@DEBUG_VALUE: HAL_RCCEx_PeriphCLKConfig:status <- $r6
	@DEBUG_VALUE: HAL_RCCEx_PeriphCLKConfig:PeriphClkInit <- $r4
	.loc	5 0 9 is_stmt 0                 @ ../Drivers/STM32H7xx_HAL_Driver/Src/stm32h7xx_hal_rcc_ex.c:0:9
	movs	r7, #1
	movs	r5, #1
.Ltmp274:
	@DEBUG_VALUE: HAL_RCCEx_PeriphCLKConfig:ret <- $r5
	@DEBUG_VALUE: HAL_RCCEx_PeriphCLKConfig:status <- $r7
	.loc	5 1062 71 is_stmt 1             @ ../Drivers/STM32H7xx_HAL_Driver/Src/stm32h7xx_hal_rcc_ex.c:1062:71
	ldrb	r0, [r4]
.Ltmp275:
	.loc	5 1062 7 is_stmt 0              @ ../Drivers/STM32H7xx_HAL_Driver/Src/stm32h7xx_hal_rcc_ex.c:1062:7
	lsls	r0, r0, #29
	bmi	.LBB0_160
	b	.LBB0_170
.Ltmp276:
	.p2align	2
.LBB0_154:
	@DEBUG_VALUE: HAL_RCCEx_PeriphCLKConfig:ret <- $r5
	@DEBUG_VALUE: HAL_RCCEx_PeriphCLKConfig:status <- $r6
	@DEBUG_VALUE: HAL_RCCEx_PeriphCLKConfig:PeriphClkInit <- $r4
	.loc	5 1020 50 is_stmt 1             @ ../Drivers/STM32H7xx_HAL_Driver/Src/stm32h7xx_hal_rcc_ex.c:1020:50
	add.w	r0, r4, #8
	.loc	5 1020 15 is_stmt 0             @ ../Drivers/STM32H7xx_HAL_Driver/Src/stm32h7xx_hal_rcc_ex.c:1020:15
	movs	r1, #1
	bl	RCCEx_PLL2_Config
.Ltmp277:
	.loc	5 0 15                          @ ../Drivers/STM32H7xx_HAL_Driver/Src/stm32h7xx_hal_rcc_ex.c:0:15
	b	.LBB0_156
.Ltmp278:
	.p2align	2
.LBB0_155:
	@DEBUG_VALUE: HAL_RCCEx_PeriphCLKConfig:ret <- $r5
	@DEBUG_VALUE: HAL_RCCEx_PeriphCLKConfig:status <- $r6
	@DEBUG_VALUE: HAL_RCCEx_PeriphCLKConfig:PeriphClkInit <- $r4
	.loc	5 1025 50 is_stmt 1             @ ../Drivers/STM32H7xx_HAL_Driver/Src/stm32h7xx_hal_rcc_ex.c:1025:50
	add.w	r0, r4, #40
	.loc	5 1025 15 is_stmt 0             @ ../Drivers/STM32H7xx_HAL_Driver/Src/stm32h7xx_hal_rcc_ex.c:1025:15
	movs	r1, #1
	bl	RCCEx_PLL3_Config
.Ltmp279:
.LBB0_156:
	@DEBUG_VALUE: HAL_RCCEx_PeriphCLKConfig:ret <- $r5
	@DEBUG_VALUE: HAL_RCCEx_PeriphCLKConfig:status <- $r6
	@DEBUG_VALUE: HAL_RCCEx_PeriphCLKConfig:PeriphClkInit <- $r4
	.loc	5 0 0                           @ ../Drivers/STM32H7xx_HAL_Driver/Src/stm32h7xx_hal_rcc_ex.c:0:0
	mov	r5, r0
.Ltmp280:
	@DEBUG_VALUE: HAL_RCCEx_PeriphCLKConfig:ret <- undef
	@DEBUG_VALUE: HAL_RCCEx_PeriphCLKConfig:ret <- $r5
	mov	r7, r5
.Ltmp281:
	.loc	5 1049 9 is_stmt 1              @ ../Drivers/STM32H7xx_HAL_Driver/Src/stm32h7xx_hal_rcc_ex.c:1049:9
	cbz	r5, .LBB0_158
.Ltmp282:
.LBB0_157:
	@DEBUG_VALUE: HAL_RCCEx_PeriphCLKConfig:ret <- $r5
	@DEBUG_VALUE: HAL_RCCEx_PeriphCLKConfig:status <- $r6
	@DEBUG_VALUE: HAL_RCCEx_PeriphCLKConfig:PeriphClkInit <- $r4
	@DEBUG_VALUE: HAL_RCCEx_PeriphCLKConfig:ret <- $r5
	@DEBUG_VALUE: HAL_RCCEx_PeriphCLKConfig:status <- $r7
	.loc	5 1062 71                       @ ../Drivers/STM32H7xx_HAL_Driver/Src/stm32h7xx_hal_rcc_ex.c:1062:71
	ldrb	r0, [r4]
.Ltmp283:
	.loc	5 1062 7 is_stmt 0              @ ../Drivers/STM32H7xx_HAL_Driver/Src/stm32h7xx_hal_rcc_ex.c:1062:7
	lsls	r0, r0, #29
	bmi	.LBB0_160
	b	.LBB0_170
.Ltmp284:
	.p2align	2
.LBB0_158:
	@DEBUG_VALUE: HAL_RCCEx_PeriphCLKConfig:ret <- $r5
	@DEBUG_VALUE: HAL_RCCEx_PeriphCLKConfig:status <- $r6
	@DEBUG_VALUE: HAL_RCCEx_PeriphCLKConfig:PeriphClkInit <- $r4
	.loc	5 1052 7 is_stmt 1              @ ../Drivers/STM32H7xx_HAL_Driver/Src/stm32h7xx_hal_rcc_ex.c:1052:7
	ldr.w	r0, [r8, #40]
	ldr	r1, [r4, #120]
	bic	r0, r0, #7
	movs	r5, #0
.Ltmp285:
	orrs	r0, r1
	str.w	r0, [r8, #40]
.Ltmp286:
.LBB0_159:
	@DEBUG_VALUE: HAL_RCCEx_PeriphCLKConfig:status <- $r6
	@DEBUG_VALUE: HAL_RCCEx_PeriphCLKConfig:PeriphClkInit <- $r4
	.loc	5 0 7 is_stmt 0                 @ ../Drivers/STM32H7xx_HAL_Driver/Src/stm32h7xx_hal_rcc_ex.c:0:7
	mov	r7, r6
.Ltmp287:
	@DEBUG_VALUE: HAL_RCCEx_PeriphCLKConfig:status <- $r7
	@DEBUG_VALUE: HAL_RCCEx_PeriphCLKConfig:ret <- $r5
	@DEBUG_VALUE: HAL_RCCEx_PeriphCLKConfig:status <- $r7
	.loc	5 1062 71 is_stmt 1             @ ../Drivers/STM32H7xx_HAL_Driver/Src/stm32h7xx_hal_rcc_ex.c:1062:71
	ldrb	r0, [r4]
.Ltmp288:
	.loc	5 1062 7 is_stmt 0              @ ../Drivers/STM32H7xx_HAL_Driver/Src/stm32h7xx_hal_rcc_ex.c:1062:7
	lsls	r0, r0, #29
	bpl	.LBB0_170
.Ltmp289:
.LBB0_160:
	@DEBUG_VALUE: HAL_RCCEx_PeriphCLKConfig:status <- $r7
	@DEBUG_VALUE: HAL_RCCEx_PeriphCLKConfig:ret <- $r5
	@DEBUG_VALUE: HAL_RCCEx_PeriphCLKConfig:PeriphClkInit <- $r4
	.loc	5 1064 28 is_stmt 1             @ ../Drivers/STM32H7xx_HAL_Driver/Src/stm32h7xx_hal_rcc_ex.c:1064:28
	ldr.w	r0, [r4, #148]
	.loc	5 1064 5 is_stmt 0              @ ../Drivers/STM32H7xx_HAL_Driver/Src/stm32h7xx_hal_rcc_ex.c:1064:5
	cmp	r0, #5
	bhi	.LBB0_164
.Ltmp290:
@ %bb.161:
	@DEBUG_VALUE: HAL_RCCEx_PeriphCLKConfig:status <- $r7
	@DEBUG_VALUE: HAL_RCCEx_PeriphCLKConfig:ret <- $r5
	@DEBUG_VALUE: HAL_RCCEx_PeriphCLKConfig:PeriphClkInit <- $r4
	.loc	5 0 5                           @ ../Drivers/STM32H7xx_HAL_Driver/Src/stm32h7xx_hal_rcc_ex.c:0:5
.LCPI0_12:
	tbb	[pc, r0]
.Ltmp291:
@ %bb.162:
.LJTI0_12:
	.byte	(.LBB0_163-(.LCPI0_12+4))/2
	.byte	(.LBB0_165-(.LCPI0_12+4))/2
	.byte	(.LBB0_166-(.LCPI0_12+4))/2
	.byte	(.LBB0_163-(.LCPI0_12+4))/2
	.byte	(.LBB0_163-(.LCPI0_12+4))/2
	.byte	(.LBB0_163-(.LCPI0_12+4))/2
	.p2align	1
	.p2align	2
.LBB0_163:
.Ltmp292:
	@DEBUG_VALUE: HAL_RCCEx_PeriphCLKConfig:status <- $r7
	@DEBUG_VALUE: HAL_RCCEx_PeriphCLKConfig:ret <- $r5
	@DEBUG_VALUE: HAL_RCCEx_PeriphCLKConfig:PeriphClkInit <- $r4
	@DEBUG_VALUE: HAL_RCCEx_PeriphCLKConfig:ret <- $r5
	mov	r6, r5
	.loc	5 1100 9 is_stmt 1              @ ../Drivers/STM32H7xx_HAL_Driver/Src/stm32h7xx_hal_rcc_ex.c:1100:9
	cbnz	r5, .LBB0_168
	b	.LBB0_169
.Ltmp293:
	.p2align	2
.LBB0_164:
	@DEBUG_VALUE: HAL_RCCEx_PeriphCLKConfig:status <- $r7
	@DEBUG_VALUE: HAL_RCCEx_PeriphCLKConfig:ret <- $r5
	@DEBUG_VALUE: HAL_RCCEx_PeriphCLKConfig:PeriphClkInit <- $r4
	.loc	5 0 9 is_stmt 0                 @ ../Drivers/STM32H7xx_HAL_Driver/Src/stm32h7xx_hal_rcc_ex.c:0:9
	movs	r6, #1
	movs	r5, #1
.Ltmp294:
	@DEBUG_VALUE: HAL_RCCEx_PeriphCLKConfig:ret <- $r5
	@DEBUG_VALUE: HAL_RCCEx_PeriphCLKConfig:status <- $r6
	.loc	5 1113 70 is_stmt 1             @ ../Drivers/STM32H7xx_HAL_Driver/Src/stm32h7xx_hal_rcc_ex.c:1113:70
	ldrb	r0, [r4]
.Ltmp295:
	.loc	5 1113 7 is_stmt 0              @ ../Drivers/STM32H7xx_HAL_Driver/Src/stm32h7xx_hal_rcc_ex.c:1113:7
	lsls	r0, r0, #26
	bmi	.LBB0_171
	b	.LBB0_181
.Ltmp296:
	.p2align	2
.LBB0_165:
	@DEBUG_VALUE: HAL_RCCEx_PeriphCLKConfig:status <- $r7
	@DEBUG_VALUE: HAL_RCCEx_PeriphCLKConfig:ret <- $r5
	@DEBUG_VALUE: HAL_RCCEx_PeriphCLKConfig:PeriphClkInit <- $r4
	.loc	5 1071 50 is_stmt 1             @ ../Drivers/STM32H7xx_HAL_Driver/Src/stm32h7xx_hal_rcc_ex.c:1071:50
	add.w	r0, r4, #8
	.loc	5 1071 15 is_stmt 0             @ ../Drivers/STM32H7xx_HAL_Driver/Src/stm32h7xx_hal_rcc_ex.c:1071:15
	movs	r1, #1
	bl	RCCEx_PLL2_Config
.Ltmp297:
	.loc	5 0 15                          @ ../Drivers/STM32H7xx_HAL_Driver/Src/stm32h7xx_hal_rcc_ex.c:0:15
	b	.LBB0_167
.Ltmp298:
	.p2align	2
.LBB0_166:
	@DEBUG_VALUE: HAL_RCCEx_PeriphCLKConfig:status <- $r7
	@DEBUG_VALUE: HAL_RCCEx_PeriphCLKConfig:ret <- $r5
	@DEBUG_VALUE: HAL_RCCEx_PeriphCLKConfig:PeriphClkInit <- $r4
	.loc	5 1076 50 is_stmt 1             @ ../Drivers/STM32H7xx_HAL_Driver/Src/stm32h7xx_hal_rcc_ex.c:1076:50
	add.w	r0, r4, #40
	.loc	5 1076 15 is_stmt 0             @ ../Drivers/STM32H7xx_HAL_Driver/Src/stm32h7xx_hal_rcc_ex.c:1076:15
	movs	r1, #1
	bl	RCCEx_PLL3_Config
.Ltmp299:
.LBB0_167:
	@DEBUG_VALUE: HAL_RCCEx_PeriphCLKConfig:status <- $r7
	@DEBUG_VALUE: HAL_RCCEx_PeriphCLKConfig:ret <- $r5
	@DEBUG_VALUE: HAL_RCCEx_PeriphCLKConfig:PeriphClkInit <- $r4
	.loc	5 0 0                           @ ../Drivers/STM32H7xx_HAL_Driver/Src/stm32h7xx_hal_rcc_ex.c:0:0
	mov	r5, r0
.Ltmp300:
	@DEBUG_VALUE: HAL_RCCEx_PeriphCLKConfig:ret <- undef
	@DEBUG_VALUE: HAL_RCCEx_PeriphCLKConfig:ret <- $r5
	mov	r6, r5
.Ltmp301:
	.loc	5 1100 9 is_stmt 1              @ ../Drivers/STM32H7xx_HAL_Driver/Src/stm32h7xx_hal_rcc_ex.c:1100:9
	cbz	r5, .LBB0_169
.Ltmp302:
.LBB0_168:
	@DEBUG_VALUE: HAL_RCCEx_PeriphCLKConfig:status <- $r7
	@DEBUG_VALUE: HAL_RCCEx_PeriphCLKConfig:ret <- $r5
	@DEBUG_VALUE: HAL_RCCEx_PeriphCLKConfig:PeriphClkInit <- $r4
	@DEBUG_VALUE: HAL_RCCEx_PeriphCLKConfig:ret <- $r5
	@DEBUG_VALUE: HAL_RCCEx_PeriphCLKConfig:status <- $r6
	.loc	5 1113 70                       @ ../Drivers/STM32H7xx_HAL_Driver/Src/stm32h7xx_hal_rcc_ex.c:1113:70
	ldrb	r0, [r4]
.Ltmp303:
	.loc	5 1113 7 is_stmt 0              @ ../Drivers/STM32H7xx_HAL_Driver/Src/stm32h7xx_hal_rcc_ex.c:1113:7
	lsls	r0, r0, #26
	bmi	.LBB0_171
	b	.LBB0_181
.Ltmp304:
	.p2align	2
.LBB0_169:
	@DEBUG_VALUE: HAL_RCCEx_PeriphCLKConfig:status <- $r7
	@DEBUG_VALUE: HAL_RCCEx_PeriphCLKConfig:ret <- $r5
	@DEBUG_VALUE: HAL_RCCEx_PeriphCLKConfig:PeriphClkInit <- $r4
	.loc	5 1103 7 is_stmt 1              @ ../Drivers/STM32H7xx_HAL_Driver/Src/stm32h7xx_hal_rcc_ex.c:1103:7
	ldr.w	r0, [r8, #44]
	ldr.w	r1, [r4, #148]
	bic	r0, r0, #7
	movs	r5, #0
.Ltmp305:
	orrs	r0, r1
	str.w	r0, [r8, #44]
.Ltmp306:
.LBB0_170:
	@DEBUG_VALUE: HAL_RCCEx_PeriphCLKConfig:status <- $r7
	@DEBUG_VALUE: HAL_RCCEx_PeriphCLKConfig:PeriphClkInit <- $r4
	.loc	5 0 7 is_stmt 0                 @ ../Drivers/STM32H7xx_HAL_Driver/Src/stm32h7xx_hal_rcc_ex.c:0:7
	mov	r6, r7
.Ltmp307:
	@DEBUG_VALUE: HAL_RCCEx_PeriphCLKConfig:status <- $r6
	@DEBUG_VALUE: HAL_RCCEx_PeriphCLKConfig:ret <- $r5
	@DEBUG_VALUE: HAL_RCCEx_PeriphCLKConfig:status <- $r6
	.loc	5 1113 70 is_stmt 1             @ ../Drivers/STM32H7xx_HAL_Driver/Src/stm32h7xx_hal_rcc_ex.c:1113:70
	ldrb	r0, [r4]
.Ltmp308:
	.loc	5 1113 7 is_stmt 0              @ ../Drivers/STM32H7xx_HAL_Driver/Src/stm32h7xx_hal_rcc_ex.c:1113:7
	lsls	r0, r0, #26
	bpl	.LBB0_181
.Ltmp309:
.LBB0_171:
	@DEBUG_VALUE: HAL_RCCEx_PeriphCLKConfig:ret <- $r5
	@DEBUG_VALUE: HAL_RCCEx_PeriphCLKConfig:status <- $r6
	@DEBUG_VALUE: HAL_RCCEx_PeriphCLKConfig:PeriphClkInit <- $r4
	.loc	5 1115 28 is_stmt 1             @ ../Drivers/STM32H7xx_HAL_Driver/Src/stm32h7xx_hal_rcc_ex.c:1115:28
	ldr.w	r0, [r4, #144]
	.loc	5 1115 5 is_stmt 0              @ ../Drivers/STM32H7xx_HAL_Driver/Src/stm32h7xx_hal_rcc_ex.c:1115:5
	ror.w	r0, r0, #28
	cmp	r0, #5
	bhi	.LBB0_175
.Ltmp310:
@ %bb.172:
	@DEBUG_VALUE: HAL_RCCEx_PeriphCLKConfig:ret <- $r5
	@DEBUG_VALUE: HAL_RCCEx_PeriphCLKConfig:status <- $r6
	@DEBUG_VALUE: HAL_RCCEx_PeriphCLKConfig:PeriphClkInit <- $r4
	.loc	5 0 5                           @ ../Drivers/STM32H7xx_HAL_Driver/Src/stm32h7xx_hal_rcc_ex.c:0:5
.LCPI0_13:
	tbb	[pc, r0]
.Ltmp311:
@ %bb.173:
.LJTI0_13:
	.byte	(.LBB0_174-(.LCPI0_13+4))/2
	.byte	(.LBB0_176-(.LCPI0_13+4))/2
	.byte	(.LBB0_177-(.LCPI0_13+4))/2
	.byte	(.LBB0_174-(.LCPI0_13+4))/2
	.byte	(.LBB0_174-(.LCPI0_13+4))/2
	.byte	(.LBB0_174-(.LCPI0_13+4))/2
	.p2align	1
	.p2align	2
.LBB0_174:
.Ltmp312:
	@DEBUG_VALUE: HAL_RCCEx_PeriphCLKConfig:ret <- $r5
	@DEBUG_VALUE: HAL_RCCEx_PeriphCLKConfig:status <- $r6
	@DEBUG_VALUE: HAL_RCCEx_PeriphCLKConfig:PeriphClkInit <- $r4
	@DEBUG_VALUE: HAL_RCCEx_PeriphCLKConfig:ret <- $r5
	mov	r7, r5
	.loc	5 1153 9 is_stmt 1              @ ../Drivers/STM32H7xx_HAL_Driver/Src/stm32h7xx_hal_rcc_ex.c:1153:9
	cbnz	r5, .LBB0_179
	b	.LBB0_180
.Ltmp313:
	.p2align	2
.LBB0_175:
	@DEBUG_VALUE: HAL_RCCEx_PeriphCLKConfig:ret <- $r5
	@DEBUG_VALUE: HAL_RCCEx_PeriphCLKConfig:status <- $r6
	@DEBUG_VALUE: HAL_RCCEx_PeriphCLKConfig:PeriphClkInit <- $r4
	.loc	5 0 9 is_stmt 0                 @ ../Drivers/STM32H7xx_HAL_Driver/Src/stm32h7xx_hal_rcc_ex.c:0:9
	movs	r7, #1
	movs	r5, #1
.Ltmp314:
	@DEBUG_VALUE: HAL_RCCEx_PeriphCLKConfig:ret <- $r5
	@DEBUG_VALUE: HAL_RCCEx_PeriphCLKConfig:status <- $r7
	.loc	5 1166 70 is_stmt 1             @ ../Drivers/STM32H7xx_HAL_Driver/Src/stm32h7xx_hal_rcc_ex.c:1166:70
	ldrb	r0, [r4]
.Ltmp315:
	.loc	5 1166 7 is_stmt 0              @ ../Drivers/STM32H7xx_HAL_Driver/Src/stm32h7xx_hal_rcc_ex.c:1166:7
	lsls	r0, r0, #25
	bmi	.LBB0_182
	b	.LBB0_192
.Ltmp316:
	.p2align	2
.LBB0_176:
	@DEBUG_VALUE: HAL_RCCEx_PeriphCLKConfig:ret <- $r5
	@DEBUG_VALUE: HAL_RCCEx_PeriphCLKConfig:status <- $r6
	@DEBUG_VALUE: HAL_RCCEx_PeriphCLKConfig:PeriphClkInit <- $r4
	.loc	5 1123 50 is_stmt 1             @ ../Drivers/STM32H7xx_HAL_Driver/Src/stm32h7xx_hal_rcc_ex.c:1123:50
	add.w	r0, r4, #8
	.loc	5 1123 15 is_stmt 0             @ ../Drivers/STM32H7xx_HAL_Driver/Src/stm32h7xx_hal_rcc_ex.c:1123:15
	movs	r1, #0
	bl	RCCEx_PLL2_Config
.Ltmp317:
	.loc	5 0 15                          @ ../Drivers/STM32H7xx_HAL_Driver/Src/stm32h7xx_hal_rcc_ex.c:0:15
	b	.LBB0_178
.Ltmp318:
	.p2align	2
.LBB0_177:
	@DEBUG_VALUE: HAL_RCCEx_PeriphCLKConfig:ret <- $r5
	@DEBUG_VALUE: HAL_RCCEx_PeriphCLKConfig:status <- $r6
	@DEBUG_VALUE: HAL_RCCEx_PeriphCLKConfig:PeriphClkInit <- $r4
	.loc	5 1129 50 is_stmt 1             @ ../Drivers/STM32H7xx_HAL_Driver/Src/stm32h7xx_hal_rcc_ex.c:1129:50
	add.w	r0, r4, #40
	.loc	5 1129 15 is_stmt 0             @ ../Drivers/STM32H7xx_HAL_Driver/Src/stm32h7xx_hal_rcc_ex.c:1129:15
	movs	r1, #2
	bl	RCCEx_PLL3_Config
.Ltmp319:
.LBB0_178:
	@DEBUG_VALUE: HAL_RCCEx_PeriphCLKConfig:ret <- $r5
	@DEBUG_VALUE: HAL_RCCEx_PeriphCLKConfig:status <- $r6
	@DEBUG_VALUE: HAL_RCCEx_PeriphCLKConfig:PeriphClkInit <- $r4
	.loc	5 0 0                           @ ../Drivers/STM32H7xx_HAL_Driver/Src/stm32h7xx_hal_rcc_ex.c:0:0
	mov	r5, r0
.Ltmp320:
	@DEBUG_VALUE: HAL_RCCEx_PeriphCLKConfig:ret <- undef
	@DEBUG_VALUE: HAL_RCCEx_PeriphCLKConfig:ret <- $r5
	mov	r7, r5
.Ltmp321:
	.loc	5 1153 9 is_stmt 1              @ ../Drivers/STM32H7xx_HAL_Driver/Src/stm32h7xx_hal_rcc_ex.c:1153:9
	cbz	r5, .LBB0_180
.Ltmp322:
.LBB0_179:
	@DEBUG_VALUE: HAL_RCCEx_PeriphCLKConfig:ret <- $r5
	@DEBUG_VALUE: HAL_RCCEx_PeriphCLKConfig:status <- $r6
	@DEBUG_VALUE: HAL_RCCEx_PeriphCLKConfig:PeriphClkInit <- $r4
	@DEBUG_VALUE: HAL_RCCEx_PeriphCLKConfig:ret <- $r5
	@DEBUG_VALUE: HAL_RCCEx_PeriphCLKConfig:status <- $r7
	.loc	5 1166 70                       @ ../Drivers/STM32H7xx_HAL_Driver/Src/stm32h7xx_hal_rcc_ex.c:1166:70
	ldrb	r0, [r4]
.Ltmp323:
	.loc	5 1166 7 is_stmt 0              @ ../Drivers/STM32H7xx_HAL_Driver/Src/stm32h7xx_hal_rcc_ex.c:1166:7
	lsls	r0, r0, #25
	bmi	.LBB0_182
	b	.LBB0_192
.Ltmp324:
	.p2align	2
.LBB0_180:
	@DEBUG_VALUE: HAL_RCCEx_PeriphCLKConfig:ret <- $r5
	@DEBUG_VALUE: HAL_RCCEx_PeriphCLKConfig:status <- $r6
	@DEBUG_VALUE: HAL_RCCEx_PeriphCLKConfig:PeriphClkInit <- $r4
	.loc	5 1156 7 is_stmt 1              @ ../Drivers/STM32H7xx_HAL_Driver/Src/stm32h7xx_hal_rcc_ex.c:1156:7
	ldr.w	r0, [r8, #40]
	ldr.w	r1, [r4, #144]
	bic	r0, r0, #1879048192
	movs	r5, #0
.Ltmp325:
	orrs	r0, r1
	str.w	r0, [r8, #40]
.Ltmp326:
.LBB0_181:
	@DEBUG_VALUE: HAL_RCCEx_PeriphCLKConfig:status <- $r6
	@DEBUG_VALUE: HAL_RCCEx_PeriphCLKConfig:PeriphClkInit <- $r4
	.loc	5 0 7 is_stmt 0                 @ ../Drivers/STM32H7xx_HAL_Driver/Src/stm32h7xx_hal_rcc_ex.c:0:7
	mov	r7, r6
.Ltmp327:
	@DEBUG_VALUE: HAL_RCCEx_PeriphCLKConfig:status <- $r7
	@DEBUG_VALUE: HAL_RCCEx_PeriphCLKConfig:ret <- $r5
	@DEBUG_VALUE: HAL_RCCEx_PeriphCLKConfig:status <- $r7
	.loc	5 1166 70 is_stmt 1             @ ../Drivers/STM32H7xx_HAL_Driver/Src/stm32h7xx_hal_rcc_ex.c:1166:70
	ldrb	r0, [r4]
.Ltmp328:
	.loc	5 1166 7 is_stmt 0              @ ../Drivers/STM32H7xx_HAL_Driver/Src/stm32h7xx_hal_rcc_ex.c:1166:7
	lsls	r0, r0, #25
	bpl	.LBB0_192
.Ltmp329:
.LBB0_182:
	@DEBUG_VALUE: HAL_RCCEx_PeriphCLKConfig:status <- $r7
	@DEBUG_VALUE: HAL_RCCEx_PeriphCLKConfig:ret <- $r5
	@DEBUG_VALUE: HAL_RCCEx_PeriphCLKConfig:PeriphClkInit <- $r4
	.loc	5 1168 28 is_stmt 1             @ ../Drivers/STM32H7xx_HAL_Driver/Src/stm32h7xx_hal_rcc_ex.c:1168:28
	ldr.w	r0, [r4, #156]
	.loc	5 1168 5 is_stmt 0              @ ../Drivers/STM32H7xx_HAL_Driver/Src/stm32h7xx_hal_rcc_ex.c:1168:5
	ror.w	r0, r0, #10
	cmp	r0, #5
	bhi	.LBB0_186
.Ltmp330:
@ %bb.183:
	@DEBUG_VALUE: HAL_RCCEx_PeriphCLKConfig:status <- $r7
	@DEBUG_VALUE: HAL_RCCEx_PeriphCLKConfig:ret <- $r5
	@DEBUG_VALUE: HAL_RCCEx_PeriphCLKConfig:PeriphClkInit <- $r4
	.loc	5 0 5                           @ ../Drivers/STM32H7xx_HAL_Driver/Src/stm32h7xx_hal_rcc_ex.c:0:5
.LCPI0_14:
	tbb	[pc, r0]
.Ltmp331:
@ %bb.184:
.LJTI0_14:
	.byte	(.LBB0_185-(.LCPI0_14+4))/2
	.byte	(.LBB0_187-(.LCPI0_14+4))/2
	.byte	(.LBB0_188-(.LCPI0_14+4))/2
	.byte	(.LBB0_185-(.LCPI0_14+4))/2
	.byte	(.LBB0_185-(.LCPI0_14+4))/2
	.byte	(.LBB0_185-(.LCPI0_14+4))/2
	.p2align	1
	.p2align	2
.LBB0_185:
.Ltmp332:
	@DEBUG_VALUE: HAL_RCCEx_PeriphCLKConfig:status <- $r7
	@DEBUG_VALUE: HAL_RCCEx_PeriphCLKConfig:ret <- $r5
	@DEBUG_VALUE: HAL_RCCEx_PeriphCLKConfig:PeriphClkInit <- $r4
	@DEBUG_VALUE: HAL_RCCEx_PeriphCLKConfig:ret <- $r5
	mov	r6, r5
	.loc	5 1206 9 is_stmt 1              @ ../Drivers/STM32H7xx_HAL_Driver/Src/stm32h7xx_hal_rcc_ex.c:1206:9
	cbnz	r5, .LBB0_190
	b	.LBB0_191
.Ltmp333:
	.p2align	2
.LBB0_186:
	@DEBUG_VALUE: HAL_RCCEx_PeriphCLKConfig:status <- $r7
	@DEBUG_VALUE: HAL_RCCEx_PeriphCLKConfig:ret <- $r5
	@DEBUG_VALUE: HAL_RCCEx_PeriphCLKConfig:PeriphClkInit <- $r4
	.loc	5 0 9 is_stmt 0                 @ ../Drivers/STM32H7xx_HAL_Driver/Src/stm32h7xx_hal_rcc_ex.c:0:9
	movs	r6, #1
	movs	r5, #1
.Ltmp334:
	@DEBUG_VALUE: HAL_RCCEx_PeriphCLKConfig:ret <- $r5
	@DEBUG_VALUE: HAL_RCCEx_PeriphCLKConfig:status <- $r6
	.loc	5 1219 72 is_stmt 1             @ ../Drivers/STM32H7xx_HAL_Driver/Src/stm32h7xx_hal_rcc_ex.c:1219:72
	ldrb	r0, [r4]
.Ltmp335:
	.loc	5 1219 7 is_stmt 0              @ ../Drivers/STM32H7xx_HAL_Driver/Src/stm32h7xx_hal_rcc_ex.c:1219:7
	lsls	r0, r0, #24
	bmi	.LBB0_193
	b	.LBB0_205
.Ltmp336:
	.p2align	2
.LBB0_187:
	@DEBUG_VALUE: HAL_RCCEx_PeriphCLKConfig:status <- $r7
	@DEBUG_VALUE: HAL_RCCEx_PeriphCLKConfig:ret <- $r5
	@DEBUG_VALUE: HAL_RCCEx_PeriphCLKConfig:PeriphClkInit <- $r4
	.loc	5 1176 50 is_stmt 1             @ ../Drivers/STM32H7xx_HAL_Driver/Src/stm32h7xx_hal_rcc_ex.c:1176:50
	add.w	r0, r4, #8
	.loc	5 1176 15 is_stmt 0             @ ../Drivers/STM32H7xx_HAL_Driver/Src/stm32h7xx_hal_rcc_ex.c:1176:15
	movs	r1, #0
	bl	RCCEx_PLL2_Config
.Ltmp337:
	.loc	5 0 15                          @ ../Drivers/STM32H7xx_HAL_Driver/Src/stm32h7xx_hal_rcc_ex.c:0:15
	b	.LBB0_189
.Ltmp338:
	.p2align	2
.LBB0_188:
	@DEBUG_VALUE: HAL_RCCEx_PeriphCLKConfig:status <- $r7
	@DEBUG_VALUE: HAL_RCCEx_PeriphCLKConfig:ret <- $r5
	@DEBUG_VALUE: HAL_RCCEx_PeriphCLKConfig:PeriphClkInit <- $r4
	.loc	5 1182 50 is_stmt 1             @ ../Drivers/STM32H7xx_HAL_Driver/Src/stm32h7xx_hal_rcc_ex.c:1182:50
	add.w	r0, r4, #40
	.loc	5 1182 15 is_stmt 0             @ ../Drivers/STM32H7xx_HAL_Driver/Src/stm32h7xx_hal_rcc_ex.c:1182:15
	movs	r1, #2
	bl	RCCEx_PLL3_Config
.Ltmp339:
.LBB0_189:
	@DEBUG_VALUE: HAL_RCCEx_PeriphCLKConfig:status <- $r7
	@DEBUG_VALUE: HAL_RCCEx_PeriphCLKConfig:ret <- $r5
	@DEBUG_VALUE: HAL_RCCEx_PeriphCLKConfig:PeriphClkInit <- $r4
	.loc	5 0 0                           @ ../Drivers/STM32H7xx_HAL_Driver/Src/stm32h7xx_hal_rcc_ex.c:0:0
	mov	r5, r0
.Ltmp340:
	@DEBUG_VALUE: HAL_RCCEx_PeriphCLKConfig:ret <- undef
	@DEBUG_VALUE: HAL_RCCEx_PeriphCLKConfig:ret <- $r5
	mov	r6, r5
.Ltmp341:
	.loc	5 1206 9 is_stmt 1              @ ../Drivers/STM32H7xx_HAL_Driver/Src/stm32h7xx_hal_rcc_ex.c:1206:9
	cbz	r5, .LBB0_191
.Ltmp342:
.LBB0_190:
	@DEBUG_VALUE: HAL_RCCEx_PeriphCLKConfig:status <- $r7
	@DEBUG_VALUE: HAL_RCCEx_PeriphCLKConfig:ret <- $r5
	@DEBUG_VALUE: HAL_RCCEx_PeriphCLKConfig:PeriphClkInit <- $r4
	@DEBUG_VALUE: HAL_RCCEx_PeriphCLKConfig:ret <- $r5
	@DEBUG_VALUE: HAL_RCCEx_PeriphCLKConfig:status <- $r6
	.loc	5 1219 72                       @ ../Drivers/STM32H7xx_HAL_Driver/Src/stm32h7xx_hal_rcc_ex.c:1219:72
	ldrb	r0, [r4]
.Ltmp343:
	.loc	5 1219 7 is_stmt 0              @ ../Drivers/STM32H7xx_HAL_Driver/Src/stm32h7xx_hal_rcc_ex.c:1219:7
	lsls	r0, r0, #24
	bmi	.LBB0_193
	b	.LBB0_205
.Ltmp344:
	.p2align	2
.LBB0_191:
	@DEBUG_VALUE: HAL_RCCEx_PeriphCLKConfig:status <- $r7
	@DEBUG_VALUE: HAL_RCCEx_PeriphCLKConfig:ret <- $r5
	@DEBUG_VALUE: HAL_RCCEx_PeriphCLKConfig:PeriphClkInit <- $r4
	.loc	5 1209 7 is_stmt 1              @ ../Drivers/STM32H7xx_HAL_Driver/Src/stm32h7xx_hal_rcc_ex.c:1209:7
	ldr.w	r0, [r8, #44]
	ldr.w	r1, [r4, #156]
	bic	r0, r0, #7168
	movs	r5, #0
.Ltmp345:
	orrs	r0, r1
	str.w	r0, [r8, #44]
.Ltmp346:
.LBB0_192:
	@DEBUG_VALUE: HAL_RCCEx_PeriphCLKConfig:status <- $r7
	@DEBUG_VALUE: HAL_RCCEx_PeriphCLKConfig:PeriphClkInit <- $r4
	.loc	5 0 7 is_stmt 0                 @ ../Drivers/STM32H7xx_HAL_Driver/Src/stm32h7xx_hal_rcc_ex.c:0:7
	mov	r6, r7
.Ltmp347:
	@DEBUG_VALUE: HAL_RCCEx_PeriphCLKConfig:status <- $r6
	@DEBUG_VALUE: HAL_RCCEx_PeriphCLKConfig:ret <- $r5
	@DEBUG_VALUE: HAL_RCCEx_PeriphCLKConfig:status <- $r6
	.loc	5 1219 72 is_stmt 1             @ ../Drivers/STM32H7xx_HAL_Driver/Src/stm32h7xx_hal_rcc_ex.c:1219:72
	ldrb	r0, [r4]
.Ltmp348:
	.loc	5 1219 7 is_stmt 0              @ ../Drivers/STM32H7xx_HAL_Driver/Src/stm32h7xx_hal_rcc_ex.c:1219:7
	lsls	r0, r0, #24
	bpl	.LBB0_205
.Ltmp349:
.LBB0_193:
	@DEBUG_VALUE: HAL_RCCEx_PeriphCLKConfig:ret <- $r5
	@DEBUG_VALUE: HAL_RCCEx_PeriphCLKConfig:status <- $r6
	@DEBUG_VALUE: HAL_RCCEx_PeriphCLKConfig:PeriphClkInit <- $r4
	.loc	5 1221 28 is_stmt 1             @ ../Drivers/STM32H7xx_HAL_Driver/Src/stm32h7xx_hal_rcc_ex.c:1221:28
	ldr.w	r0, [r4, #160]
	.loc	5 1221 5 is_stmt 0              @ ../Drivers/STM32H7xx_HAL_Driver/Src/stm32h7xx_hal_rcc_ex.c:1221:5
	ror.w	r0, r0, #13
	cmp	r0, #5
	bhi	.LBB0_200
.Ltmp350:
@ %bb.194:
	@DEBUG_VALUE: HAL_RCCEx_PeriphCLKConfig:ret <- $r5
	@DEBUG_VALUE: HAL_RCCEx_PeriphCLKConfig:status <- $r6
	@DEBUG_VALUE: HAL_RCCEx_PeriphCLKConfig:PeriphClkInit <- $r4
	.loc	5 0 5                           @ ../Drivers/STM32H7xx_HAL_Driver/Src/stm32h7xx_hal_rcc_ex.c:0:5
.LCPI0_15:
	tbb	[pc, r0]
.Ltmp351:
@ %bb.195:
.LJTI0_15:
	.byte	(.LBB0_196-(.LCPI0_15+4))/2
	.byte	(.LBB0_201-(.LCPI0_15+4))/2
	.byte	(.LBB0_202-(.LCPI0_15+4))/2
	.byte	(.LBB0_196-(.LCPI0_15+4))/2
	.byte	(.LBB0_196-(.LCPI0_15+4))/2
	.byte	(.LBB0_196-(.LCPI0_15+4))/2
	.p2align	1
	.p2align	2
.LBB0_196:
.Ltmp352:
	@DEBUG_VALUE: HAL_RCCEx_PeriphCLKConfig:ret <- $r5
	@DEBUG_VALUE: HAL_RCCEx_PeriphCLKConfig:status <- $r6
	@DEBUG_VALUE: HAL_RCCEx_PeriphCLKConfig:PeriphClkInit <- $r4
	@DEBUG_VALUE: HAL_RCCEx_PeriphCLKConfig:ret <- $r5
	mov	r7, r5
	.loc	5 1259 9 is_stmt 1              @ ../Drivers/STM32H7xx_HAL_Driver/Src/stm32h7xx_hal_rcc_ex.c:1259:9
	cbz	r5, .LBB0_204
.Ltmp353:
.LBB0_197:
	@DEBUG_VALUE: HAL_RCCEx_PeriphCLKConfig:ret <- $r5
	@DEBUG_VALUE: HAL_RCCEx_PeriphCLKConfig:status <- $r6
	@DEBUG_VALUE: HAL_RCCEx_PeriphCLKConfig:PeriphClkInit <- $r4
	@DEBUG_VALUE: HAL_RCCEx_PeriphCLKConfig:ret <- $r5
	@DEBUG_VALUE: HAL_RCCEx_PeriphCLKConfig:status <- $r7
	.loc	5 1290 24                       @ ../Drivers/STM32H7xx_HAL_Driver/Src/stm32h7xx_hal_rcc_ex.c:1290:24
	ldr	r0, [r4]
.Ltmp354:
	.loc	5 1290 7 is_stmt 0              @ ../Drivers/STM32H7xx_HAL_Driver/Src/stm32h7xx_hal_rcc_ex.c:1290:7
	lsls	r1, r0, #28
	bmi	.LBB0_206
.Ltmp355:
.LBB0_198:
	@DEBUG_VALUE: HAL_RCCEx_PeriphCLKConfig:status <- $r7
	@DEBUG_VALUE: HAL_RCCEx_PeriphCLKConfig:ret <- $r5
	@DEBUG_VALUE: HAL_RCCEx_PeriphCLKConfig:PeriphClkInit <- $r4
	@DEBUG_VALUE: HAL_RCCEx_PeriphCLKConfig:status <- $r7
	.loc	5 1309 7 is_stmt 1              @ ../Drivers/STM32H7xx_HAL_Driver/Src/stm32h7xx_hal_rcc_ex.c:1309:7
	lsls	r1, r0, #27
	bmi	.LBB0_209
.Ltmp356:
.LBB0_199:
	@DEBUG_VALUE: HAL_RCCEx_PeriphCLKConfig:status <- $r7
	@DEBUG_VALUE: HAL_RCCEx_PeriphCLKConfig:ret <- $r5
	@DEBUG_VALUE: HAL_RCCEx_PeriphCLKConfig:PeriphClkInit <- $r4
	@DEBUG_VALUE: HAL_RCCEx_PeriphCLKConfig:status <- $r7
	.loc	5 1327 7                        @ ../Drivers/STM32H7xx_HAL_Driver/Src/stm32h7xx_hal_rcc_ex.c:1327:7
	lsls	r0, r0, #12
	bmi	.LBB0_212
	b	.LBB0_220
.Ltmp357:
	.p2align	2
.LBB0_200:
	@DEBUG_VALUE: HAL_RCCEx_PeriphCLKConfig:ret <- $r5
	@DEBUG_VALUE: HAL_RCCEx_PeriphCLKConfig:status <- $r6
	@DEBUG_VALUE: HAL_RCCEx_PeriphCLKConfig:PeriphClkInit <- $r4
	.loc	5 0 7 is_stmt 0                 @ ../Drivers/STM32H7xx_HAL_Driver/Src/stm32h7xx_hal_rcc_ex.c:0:7
	movs	r7, #1
	movs	r5, #1
.Ltmp358:
	@DEBUG_VALUE: HAL_RCCEx_PeriphCLKConfig:ret <- $r5
	@DEBUG_VALUE: HAL_RCCEx_PeriphCLKConfig:status <- $r7
	.loc	5 1290 24 is_stmt 1             @ ../Drivers/STM32H7xx_HAL_Driver/Src/stm32h7xx_hal_rcc_ex.c:1290:24
	ldr	r0, [r4]
.Ltmp359:
	.loc	5 1290 7 is_stmt 0              @ ../Drivers/STM32H7xx_HAL_Driver/Src/stm32h7xx_hal_rcc_ex.c:1290:7
	lsls	r1, r0, #28
	bpl	.LBB0_198
	b	.LBB0_206
.Ltmp360:
	.p2align	2
.LBB0_201:
	@DEBUG_VALUE: HAL_RCCEx_PeriphCLKConfig:ret <- $r5
	@DEBUG_VALUE: HAL_RCCEx_PeriphCLKConfig:status <- $r6
	@DEBUG_VALUE: HAL_RCCEx_PeriphCLKConfig:PeriphClkInit <- $r4
	.loc	5 1229 50 is_stmt 1             @ ../Drivers/STM32H7xx_HAL_Driver/Src/stm32h7xx_hal_rcc_ex.c:1229:50
	add.w	r0, r4, #8
	.loc	5 1229 15 is_stmt 0             @ ../Drivers/STM32H7xx_HAL_Driver/Src/stm32h7xx_hal_rcc_ex.c:1229:15
	movs	r1, #0
	bl	RCCEx_PLL2_Config
.Ltmp361:
	.loc	5 0 15                          @ ../Drivers/STM32H7xx_HAL_Driver/Src/stm32h7xx_hal_rcc_ex.c:0:15
	b	.LBB0_203
.Ltmp362:
	.p2align	2
.LBB0_202:
	@DEBUG_VALUE: HAL_RCCEx_PeriphCLKConfig:ret <- $r5
	@DEBUG_VALUE: HAL_RCCEx_PeriphCLKConfig:status <- $r6
	@DEBUG_VALUE: HAL_RCCEx_PeriphCLKConfig:PeriphClkInit <- $r4
	.loc	5 1235 50 is_stmt 1             @ ../Drivers/STM32H7xx_HAL_Driver/Src/stm32h7xx_hal_rcc_ex.c:1235:50
	add.w	r0, r4, #40
	.loc	5 1235 15 is_stmt 0             @ ../Drivers/STM32H7xx_HAL_Driver/Src/stm32h7xx_hal_rcc_ex.c:1235:15
	movs	r1, #2
	bl	RCCEx_PLL3_Config
.Ltmp363:
.LBB0_203:
	@DEBUG_VALUE: HAL_RCCEx_PeriphCLKConfig:ret <- $r5
	@DEBUG_VALUE: HAL_RCCEx_PeriphCLKConfig:status <- $r6
	@DEBUG_VALUE: HAL_RCCEx_PeriphCLKConfig:PeriphClkInit <- $r4
	.loc	5 0 0                           @ ../Drivers/STM32H7xx_HAL_Driver/Src/stm32h7xx_hal_rcc_ex.c:0:0
	mov	r5, r0
.Ltmp364:
	@DEBUG_VALUE: HAL_RCCEx_PeriphCLKConfig:ret <- undef
	@DEBUG_VALUE: HAL_RCCEx_PeriphCLKConfig:ret <- $r5
	.loc	5 1259 9 is_stmt 1              @ ../Drivers/STM32H7xx_HAL_Driver/Src/stm32h7xx_hal_rcc_ex.c:1259:9
	cmp	r5, #0
	mov	r7, r5
	bne	.LBB0_197
.Ltmp365:
.LBB0_204:
	@DEBUG_VALUE: HAL_RCCEx_PeriphCLKConfig:ret <- $r5
	@DEBUG_VALUE: HAL_RCCEx_PeriphCLKConfig:status <- $r6
	@DEBUG_VALUE: HAL_RCCEx_PeriphCLKConfig:PeriphClkInit <- $r4
	.loc	5 1262 7                        @ ../Drivers/STM32H7xx_HAL_Driver/Src/stm32h7xx_hal_rcc_ex.c:1262:7
	ldr.w	r0, [r8, #44]
	ldr.w	r1, [r4, #160]
	bic	r0, r0, #57344
	movs	r5, #0
.Ltmp366:
	orrs	r0, r1
	str.w	r0, [r8, #44]
.Ltmp367:
.LBB0_205:
	@DEBUG_VALUE: HAL_RCCEx_PeriphCLKConfig:status <- $r6
	@DEBUG_VALUE: HAL_RCCEx_PeriphCLKConfig:PeriphClkInit <- $r4
	.loc	5 0 7 is_stmt 0                 @ ../Drivers/STM32H7xx_HAL_Driver/Src/stm32h7xx_hal_rcc_ex.c:0:7
	mov	r7, r6
.Ltmp368:
	@DEBUG_VALUE: HAL_RCCEx_PeriphCLKConfig:status <- $r7
	@DEBUG_VALUE: HAL_RCCEx_PeriphCLKConfig:ret <- $r5
	@DEBUG_VALUE: HAL_RCCEx_PeriphCLKConfig:status <- $r7
	.loc	5 1290 24 is_stmt 1             @ ../Drivers/STM32H7xx_HAL_Driver/Src/stm32h7xx_hal_rcc_ex.c:1290:24
	ldr	r0, [r4]
.Ltmp369:
	.loc	5 1290 7 is_stmt 0              @ ../Drivers/STM32H7xx_HAL_Driver/Src/stm32h7xx_hal_rcc_ex.c:1290:7
	lsls	r1, r0, #28
	bpl	.LBB0_198
.Ltmp370:
.LBB0_206:
	@DEBUG_VALUE: HAL_RCCEx_PeriphCLKConfig:status <- $r7
	@DEBUG_VALUE: HAL_RCCEx_PeriphCLKConfig:ret <- $r5
	@DEBUG_VALUE: HAL_RCCEx_PeriphCLKConfig:PeriphClkInit <- $r4
	.loc	5 1295 25 is_stmt 1             @ ../Drivers/STM32H7xx_HAL_Driver/Src/stm32h7xx_hal_rcc_ex.c:1295:25
	ldr.w	r0, [r4, #132]
.Ltmp371:
	.loc	5 1295 9 is_stmt 0              @ ../Drivers/STM32H7xx_HAL_Driver/Src/stm32h7xx_hal_rcc_ex.c:1295:9
	cmp.w	r0, #4096
	bne	.LBB0_208
.Ltmp372:
@ %bb.207:
	@DEBUG_VALUE: HAL_RCCEx_PeriphCLKConfig:status <- $r7
	@DEBUG_VALUE: HAL_RCCEx_PeriphCLKConfig:ret <- $r5
	@DEBUG_VALUE: HAL_RCCEx_PeriphCLKConfig:PeriphClkInit <- $r4
	.loc	5 1297 46 is_stmt 1             @ ../Drivers/STM32H7xx_HAL_Driver/Src/stm32h7xx_hal_rcc_ex.c:1297:46
	add.w	r0, r4, #40
	.loc	5 1297 11 is_stmt 0             @ ../Drivers/STM32H7xx_HAL_Driver/Src/stm32h7xx_hal_rcc_ex.c:1297:11
	movs	r1, #2
	bl	RCCEx_PLL3_Config
.Ltmp373:
	.loc	5 1297 11                       @ ../Drivers/STM32H7xx_HAL_Driver/Src/stm32h7xx_hal_rcc_ex.c:1297:11
	cmp	r0, #0
	it	ne
	movne	r7, #1
.Ltmp374:
	.loc	5 1303 5 is_stmt 1              @ ../Drivers/STM32H7xx_HAL_Driver/Src/stm32h7xx_hal_rcc_ex.c:1303:5
	ldr.w	r0, [r4, #132]
.Ltmp375:
.LBB0_208:
	@DEBUG_VALUE: HAL_RCCEx_PeriphCLKConfig:ret <- $r5
	@DEBUG_VALUE: HAL_RCCEx_PeriphCLKConfig:PeriphClkInit <- $r4
	@DEBUG_VALUE: HAL_RCCEx_PeriphCLKConfig:status <- $r7
	ldr.w	r1, [r8, #40]
	bic	r1, r1, #12288
	orrs	r0, r1
	str.w	r0, [r8, #40]
.Ltmp376:
	.loc	5 1309 24                       @ ../Drivers/STM32H7xx_HAL_Driver/Src/stm32h7xx_hal_rcc_ex.c:1309:24
	ldr	r0, [r4]
.Ltmp377:
	@DEBUG_VALUE: HAL_RCCEx_PeriphCLKConfig:status <- $r7
	.loc	5 1309 7 is_stmt 0              @ ../Drivers/STM32H7xx_HAL_Driver/Src/stm32h7xx_hal_rcc_ex.c:1309:7
	lsls	r1, r0, #27
	bpl	.LBB0_199
.Ltmp378:
.LBB0_209:
	@DEBUG_VALUE: HAL_RCCEx_PeriphCLKConfig:status <- $r7
	@DEBUG_VALUE: HAL_RCCEx_PeriphCLKConfig:ret <- $r5
	@DEBUG_VALUE: HAL_RCCEx_PeriphCLKConfig:PeriphClkInit <- $r4
	.loc	5 1314 25 is_stmt 1             @ ../Drivers/STM32H7xx_HAL_Driver/Src/stm32h7xx_hal_rcc_ex.c:1314:25
	ldr.w	r0, [r4, #152]
.Ltmp379:
	.loc	5 1314 9 is_stmt 0              @ ../Drivers/STM32H7xx_HAL_Driver/Src/stm32h7xx_hal_rcc_ex.c:1314:9
	cmp.w	r0, #256
	bne	.LBB0_211
.Ltmp380:
@ %bb.210:
	@DEBUG_VALUE: HAL_RCCEx_PeriphCLKConfig:status <- $r7
	@DEBUG_VALUE: HAL_RCCEx_PeriphCLKConfig:ret <- $r5
	@DEBUG_VALUE: HAL_RCCEx_PeriphCLKConfig:PeriphClkInit <- $r4
	.loc	5 1316 46 is_stmt 1             @ ../Drivers/STM32H7xx_HAL_Driver/Src/stm32h7xx_hal_rcc_ex.c:1316:46
	add.w	r0, r4, #40
	.loc	5 1316 11 is_stmt 0             @ ../Drivers/STM32H7xx_HAL_Driver/Src/stm32h7xx_hal_rcc_ex.c:1316:11
	movs	r1, #2
	bl	RCCEx_PLL3_Config
.Ltmp381:
	.loc	5 1316 11                       @ ../Drivers/STM32H7xx_HAL_Driver/Src/stm32h7xx_hal_rcc_ex.c:1316:11
	cmp	r0, #0
	it	ne
	movne	r7, #1
.Ltmp382:
	.loc	5 1322 5 is_stmt 1              @ ../Drivers/STM32H7xx_HAL_Driver/Src/stm32h7xx_hal_rcc_ex.c:1322:5
	ldr.w	r0, [r4, #152]
.Ltmp383:
.LBB0_211:
	@DEBUG_VALUE: HAL_RCCEx_PeriphCLKConfig:ret <- $r5
	@DEBUG_VALUE: HAL_RCCEx_PeriphCLKConfig:PeriphClkInit <- $r4
	@DEBUG_VALUE: HAL_RCCEx_PeriphCLKConfig:status <- $r7
	ldr.w	r1, [r8, #44]
	bic	r1, r1, #768
	orrs	r0, r1
	str.w	r0, [r8, #44]
.Ltmp384:
	.loc	5 1327 24                       @ ../Drivers/STM32H7xx_HAL_Driver/Src/stm32h7xx_hal_rcc_ex.c:1327:24
	ldr	r0, [r4]
.Ltmp385:
	@DEBUG_VALUE: HAL_RCCEx_PeriphCLKConfig:status <- $r7
	.loc	5 1327 7 is_stmt 0              @ ../Drivers/STM32H7xx_HAL_Driver/Src/stm32h7xx_hal_rcc_ex.c:1327:7
	lsls	r0, r0, #12
	bpl	.LBB0_220
.Ltmp386:
.LBB0_212:
	@DEBUG_VALUE: HAL_RCCEx_PeriphCLKConfig:status <- $r7
	@DEBUG_VALUE: HAL_RCCEx_PeriphCLKConfig:ret <- $r5
	@DEBUG_VALUE: HAL_RCCEx_PeriphCLKConfig:PeriphClkInit <- $r4
	.loc	5 1329 28 is_stmt 1             @ ../Drivers/STM32H7xx_HAL_Driver/Src/stm32h7xx_hal_rcc_ex.c:1329:28
	ldr.w	r0, [r4, #164]
	.loc	5 1329 5 is_stmt 0              @ ../Drivers/STM32H7xx_HAL_Driver/Src/stm32h7xx_hal_rcc_ex.c:1329:5
	cmp.w	r0, #131072
	beq	.LBB0_218
.Ltmp387:
@ %bb.213:
	@DEBUG_VALUE: HAL_RCCEx_PeriphCLKConfig:status <- $r7
	@DEBUG_VALUE: HAL_RCCEx_PeriphCLKConfig:ret <- $r5
	@DEBUG_VALUE: HAL_RCCEx_PeriphCLKConfig:PeriphClkInit <- $r4
	cmp.w	r0, #65536
	beq	.LBB0_216
.Ltmp388:
@ %bb.214:
	@DEBUG_VALUE: HAL_RCCEx_PeriphCLKConfig:status <- $r7
	@DEBUG_VALUE: HAL_RCCEx_PeriphCLKConfig:ret <- $r5
	@DEBUG_VALUE: HAL_RCCEx_PeriphCLKConfig:PeriphClkInit <- $r4
	cbnz	r0, .LBB0_227
.Ltmp389:
@ %bb.215:
	@DEBUG_VALUE: HAL_RCCEx_PeriphCLKConfig:status <- $r7
	@DEBUG_VALUE: HAL_RCCEx_PeriphCLKConfig:ret <- $r5
	@DEBUG_VALUE: HAL_RCCEx_PeriphCLKConfig:PeriphClkInit <- $r4
	.loc	5 1334 50 is_stmt 1             @ ../Drivers/STM32H7xx_HAL_Driver/Src/stm32h7xx_hal_rcc_ex.c:1334:50
	add.w	r0, r4, #8
	.loc	5 1334 15 is_stmt 0             @ ../Drivers/STM32H7xx_HAL_Driver/Src/stm32h7xx_hal_rcc_ex.c:1334:15
	movs	r1, #0
	bl	RCCEx_PLL2_Config
.Ltmp390:
	.loc	5 0 15                          @ ../Drivers/STM32H7xx_HAL_Driver/Src/stm32h7xx_hal_rcc_ex.c:0:15
	b	.LBB0_217
.Ltmp391:
	.p2align	2
.LBB0_216:
	@DEBUG_VALUE: HAL_RCCEx_PeriphCLKConfig:status <- $r7
	@DEBUG_VALUE: HAL_RCCEx_PeriphCLKConfig:ret <- $r5
	@DEBUG_VALUE: HAL_RCCEx_PeriphCLKConfig:PeriphClkInit <- $r4
	.loc	5 1340 50 is_stmt 1             @ ../Drivers/STM32H7xx_HAL_Driver/Src/stm32h7xx_hal_rcc_ex.c:1340:50
	add.w	r0, r4, #40
	.loc	5 1340 15 is_stmt 0             @ ../Drivers/STM32H7xx_HAL_Driver/Src/stm32h7xx_hal_rcc_ex.c:1340:15
	movs	r1, #2
	bl	RCCEx_PLL3_Config
.Ltmp392:
.LBB0_217:
	@DEBUG_VALUE: HAL_RCCEx_PeriphCLKConfig:status <- $r7
	@DEBUG_VALUE: HAL_RCCEx_PeriphCLKConfig:ret <- $r5
	@DEBUG_VALUE: HAL_RCCEx_PeriphCLKConfig:PeriphClkInit <- $r4
	.loc	5 0 0                           @ ../Drivers/STM32H7xx_HAL_Driver/Src/stm32h7xx_hal_rcc_ex.c:0:0
	mov	r5, r0
.Ltmp393:
	@DEBUG_VALUE: HAL_RCCEx_PeriphCLKConfig:ret <- undef
.LBB0_218:
	@DEBUG_VALUE: HAL_RCCEx_PeriphCLKConfig:status <- $r7
	@DEBUG_VALUE: HAL_RCCEx_PeriphCLKConfig:PeriphClkInit <- $r4
	@DEBUG_VALUE: HAL_RCCEx_PeriphCLKConfig:ret <- $r5
	mov	r6, r5
	.loc	5 1355 9 is_stmt 1              @ ../Drivers/STM32H7xx_HAL_Driver/Src/stm32h7xx_hal_rcc_ex.c:1355:9
	cbnz	r5, .LBB0_221
.Ltmp394:
@ %bb.219:
	@DEBUG_VALUE: HAL_RCCEx_PeriphCLKConfig:status <- $r7
	@DEBUG_VALUE: HAL_RCCEx_PeriphCLKConfig:ret <- $r5
	@DEBUG_VALUE: HAL_RCCEx_PeriphCLKConfig:PeriphClkInit <- $r4
	.loc	5 1358 7                        @ ../Drivers/STM32H7xx_HAL_Driver/Src/stm32h7xx_hal_rcc_ex.c:1358:7
	ldr.w	r0, [r8, #44]
	ldr.w	r1, [r4, #164]
	bic	r0, r0, #196608
	movs	r5, #0
.Ltmp395:
	orrs	r0, r1
	str.w	r0, [r8, #44]
.Ltmp396:
.LBB0_220:
	@DEBUG_VALUE: HAL_RCCEx_PeriphCLKConfig:status <- $r7
	@DEBUG_VALUE: HAL_RCCEx_PeriphCLKConfig:PeriphClkInit <- $r4
	.loc	5 0 7 is_stmt 0                 @ ../Drivers/STM32H7xx_HAL_Driver/Src/stm32h7xx_hal_rcc_ex.c:0:7
	mov	r6, r7
.Ltmp397:
	@DEBUG_VALUE: HAL_RCCEx_PeriphCLKConfig:status <- $r6
.LBB0_221:
	@DEBUG_VALUE: HAL_RCCEx_PeriphCLKConfig:PeriphClkInit <- $r4
	@DEBUG_VALUE: HAL_RCCEx_PeriphCLKConfig:ret <- $r5
	@DEBUG_VALUE: HAL_RCCEx_PeriphCLKConfig:status <- $r6
	.loc	5 1368 67 is_stmt 1             @ ../Drivers/STM32H7xx_HAL_Driver/Src/stm32h7xx_hal_rcc_ex.c:1368:67
	ldrb	r0, [r4, #2]
.Ltmp398:
	.loc	5 1368 7 is_stmt 0              @ ../Drivers/STM32H7xx_HAL_Driver/Src/stm32h7xx_hal_rcc_ex.c:1368:7
	lsls	r0, r0, #29
	bpl	.LBB0_230
.Ltmp399:
.LBB0_222:
	@DEBUG_VALUE: HAL_RCCEx_PeriphCLKConfig:ret <- $r5
	@DEBUG_VALUE: HAL_RCCEx_PeriphCLKConfig:status <- $r6
	@DEBUG_VALUE: HAL_RCCEx_PeriphCLKConfig:PeriphClkInit <- $r4
	.loc	5 1371 28 is_stmt 1             @ ../Drivers/STM32H7xx_HAL_Driver/Src/stm32h7xx_hal_rcc_ex.c:1371:28
	ldr.w	r0, [r4, #136]
	.loc	5 1371 5 is_stmt 0              @ ../Drivers/STM32H7xx_HAL_Driver/Src/stm32h7xx_hal_rcc_ex.c:1371:5
	cmp.w	r0, #3145728
	beq	.LBB0_226
.Ltmp400:
@ %bb.223:
	@DEBUG_VALUE: HAL_RCCEx_PeriphCLKConfig:ret <- $r5
	@DEBUG_VALUE: HAL_RCCEx_PeriphCLKConfig:status <- $r6
	@DEBUG_VALUE: HAL_RCCEx_PeriphCLKConfig:PeriphClkInit <- $r4
	cmp.w	r0, #2097152
	beq	.LBB0_228
.Ltmp401:
@ %bb.224:
	@DEBUG_VALUE: HAL_RCCEx_PeriphCLKConfig:ret <- $r5
	@DEBUG_VALUE: HAL_RCCEx_PeriphCLKConfig:status <- $r6
	@DEBUG_VALUE: HAL_RCCEx_PeriphCLKConfig:PeriphClkInit <- $r4
	cmp.w	r0, #1048576
	bne	.LBB0_233
.Ltmp402:
@ %bb.225:
	@DEBUG_VALUE: HAL_RCCEx_PeriphCLKConfig:ret <- $r5
	@DEBUG_VALUE: HAL_RCCEx_PeriphCLKConfig:status <- $r6
	@DEBUG_VALUE: HAL_RCCEx_PeriphCLKConfig:PeriphClkInit <- $r4
	.loc	5 1375 9 is_stmt 1              @ ../Drivers/STM32H7xx_HAL_Driver/Src/stm32h7xx_hal_rcc_ex.c:1375:9
	ldr.w	r0, [r8]
	orr	r0, r0, #131072
	str.w	r0, [r8]
.Ltmp403:
.LBB0_226:
	@DEBUG_VALUE: HAL_RCCEx_PeriphCLKConfig:ret <- $r5
	@DEBUG_VALUE: HAL_RCCEx_PeriphCLKConfig:status <- $r6
	@DEBUG_VALUE: HAL_RCCEx_PeriphCLKConfig:PeriphClkInit <- $r4
	@DEBUG_VALUE: HAL_RCCEx_PeriphCLKConfig:ret <- $r5
	.loc	5 0 9 is_stmt 0                 @ ../Drivers/STM32H7xx_HAL_Driver/Src/stm32h7xx_hal_rcc_ex.c:0:9
	mov	r7, r5
	cbnz	r5, .LBB0_231
	b	.LBB0_229
.Ltmp404:
	.p2align	2
.LBB0_227:
	@DEBUG_VALUE: HAL_RCCEx_PeriphCLKConfig:status <- $r7
	@DEBUG_VALUE: HAL_RCCEx_PeriphCLKConfig:ret <- $r5
	@DEBUG_VALUE: HAL_RCCEx_PeriphCLKConfig:PeriphClkInit <- $r4
	movs	r6, #1
	movs	r5, #1
.Ltmp405:
	@DEBUG_VALUE: HAL_RCCEx_PeriphCLKConfig:ret <- $r5
	@DEBUG_VALUE: HAL_RCCEx_PeriphCLKConfig:status <- $r6
	.loc	5 1368 67 is_stmt 1             @ ../Drivers/STM32H7xx_HAL_Driver/Src/stm32h7xx_hal_rcc_ex.c:1368:67
	ldrb	r0, [r4, #2]
.Ltmp406:
	.loc	5 1368 7 is_stmt 0              @ ../Drivers/STM32H7xx_HAL_Driver/Src/stm32h7xx_hal_rcc_ex.c:1368:7
	lsls	r0, r0, #29
	bmi	.LBB0_222
	b	.LBB0_230
.Ltmp407:
	.p2align	2
.LBB0_228:
	@DEBUG_VALUE: HAL_RCCEx_PeriphCLKConfig:ret <- $r5
	@DEBUG_VALUE: HAL_RCCEx_PeriphCLKConfig:status <- $r6
	@DEBUG_VALUE: HAL_RCCEx_PeriphCLKConfig:PeriphClkInit <- $r4
	.loc	5 1382 50 is_stmt 1             @ ../Drivers/STM32H7xx_HAL_Driver/Src/stm32h7xx_hal_rcc_ex.c:1382:50
	add.w	r0, r4, #40
	.loc	5 1382 15 is_stmt 0             @ ../Drivers/STM32H7xx_HAL_Driver/Src/stm32h7xx_hal_rcc_ex.c:1382:15
	movs	r1, #1
	bl	RCCEx_PLL3_Config
.Ltmp408:
	mov	r5, r0
.Ltmp409:
	@DEBUG_VALUE: HAL_RCCEx_PeriphCLKConfig:ret <- undef
	@DEBUG_VALUE: HAL_RCCEx_PeriphCLKConfig:ret <- $r5
	.loc	5 0 15                          @ ../Drivers/STM32H7xx_HAL_Driver/Src/stm32h7xx_hal_rcc_ex.c:0:15
	mov	r7, r5
.Ltmp410:
	.loc	5 1397 9 is_stmt 1              @ ../Drivers/STM32H7xx_HAL_Driver/Src/stm32h7xx_hal_rcc_ex.c:1397:9
	cbnz	r5, .LBB0_231
.Ltmp411:
.LBB0_229:
	@DEBUG_VALUE: HAL_RCCEx_PeriphCLKConfig:ret <- $r5
	@DEBUG_VALUE: HAL_RCCEx_PeriphCLKConfig:status <- $r6
	@DEBUG_VALUE: HAL_RCCEx_PeriphCLKConfig:PeriphClkInit <- $r4
	.loc	5 1400 7                        @ ../Drivers/STM32H7xx_HAL_Driver/Src/stm32h7xx_hal_rcc_ex.c:1400:7
	ldr.w	r0, [r8, #40]
	ldr.w	r1, [r4, #136]
	bic	r0, r0, #3145728
	movs	r5, #0
.Ltmp412:
	orrs	r0, r1
	str.w	r0, [r8, #40]
.Ltmp413:
.LBB0_230:
	@DEBUG_VALUE: HAL_RCCEx_PeriphCLKConfig:status <- $r6
	@DEBUG_VALUE: HAL_RCCEx_PeriphCLKConfig:PeriphClkInit <- $r4
	.loc	5 0 7 is_stmt 0                 @ ../Drivers/STM32H7xx_HAL_Driver/Src/stm32h7xx_hal_rcc_ex.c:0:7
	mov	r7, r6
.Ltmp414:
	@DEBUG_VALUE: HAL_RCCEx_PeriphCLKConfig:status <- $r7
.LBB0_231:
	@DEBUG_VALUE: HAL_RCCEx_PeriphCLKConfig:PeriphClkInit <- $r4
	@DEBUG_VALUE: HAL_RCCEx_PeriphCLKConfig:ret <- $r5
	@DEBUG_VALUE: HAL_RCCEx_PeriphCLKConfig:status <- $r7
	.loc	5 1411 69 is_stmt 1             @ ../Drivers/STM32H7xx_HAL_Driver/Src/stm32h7xx_hal_rcc_ex.c:1411:69
	ldrb	r0, [r4, #2]
.Ltmp415:
	.loc	5 1411 7 is_stmt 0              @ ../Drivers/STM32H7xx_HAL_Driver/Src/stm32h7xx_hal_rcc_ex.c:1411:7
	lsls	r0, r0, #31
	bne	.LBB0_234
.Ltmp416:
.LBB0_232:
	@DEBUG_VALUE: HAL_RCCEx_PeriphCLKConfig:status <- $r7
	@DEBUG_VALUE: HAL_RCCEx_PeriphCLKConfig:PeriphClkInit <- $r4
	.loc	5 0 7                           @ ../Drivers/STM32H7xx_HAL_Driver/Src/stm32h7xx_hal_rcc_ex.c:0:7
	mov	r6, r7
.Ltmp417:
	@DEBUG_VALUE: HAL_RCCEx_PeriphCLKConfig:status <- $r6
	@DEBUG_VALUE: HAL_RCCEx_PeriphCLKConfig:ret <- $r5
	@DEBUG_VALUE: HAL_RCCEx_PeriphCLKConfig:status <- $r6
	.loc	5 1451 24 is_stmt 1             @ ../Drivers/STM32H7xx_HAL_Driver/Src/stm32h7xx_hal_rcc_ex.c:1451:24
	ldr	r1, [r4]
.Ltmp418:
	.loc	5 1451 7 is_stmt 0              @ ../Drivers/STM32H7xx_HAL_Driver/Src/stm32h7xx_hal_rcc_ex.c:1451:7
	lsls	r0, r1, #2
	bpl	.LBB0_238
	b	.LBB0_242
.Ltmp419:
	.p2align	2
.LBB0_233:
	@DEBUG_VALUE: HAL_RCCEx_PeriphCLKConfig:ret <- $r5
	@DEBUG_VALUE: HAL_RCCEx_PeriphCLKConfig:status <- $r6
	@DEBUG_VALUE: HAL_RCCEx_PeriphCLKConfig:PeriphClkInit <- $r4
	.loc	5 0 7                           @ ../Drivers/STM32H7xx_HAL_Driver/Src/stm32h7xx_hal_rcc_ex.c:0:7
	movs	r7, #1
	movs	r5, #1
.Ltmp420:
	@DEBUG_VALUE: HAL_RCCEx_PeriphCLKConfig:ret <- $r5
	@DEBUG_VALUE: HAL_RCCEx_PeriphCLKConfig:status <- $r7
	.loc	5 1411 69 is_stmt 1             @ ../Drivers/STM32H7xx_HAL_Driver/Src/stm32h7xx_hal_rcc_ex.c:1411:69
	ldrb	r0, [r4, #2]
.Ltmp421:
	.loc	5 1411 7 is_stmt 0              @ ../Drivers/STM32H7xx_HAL_Driver/Src/stm32h7xx_hal_rcc_ex.c:1411:7
	lsls	r0, r0, #31
	beq	.LBB0_232
.Ltmp422:
.LBB0_234:
	@DEBUG_VALUE: HAL_RCCEx_PeriphCLKConfig:status <- $r7
	@DEBUG_VALUE: HAL_RCCEx_PeriphCLKConfig:ret <- $r5
	@DEBUG_VALUE: HAL_RCCEx_PeriphCLKConfig:PeriphClkInit <- $r4
	.loc	5 1416 28 is_stmt 1             @ ../Drivers/STM32H7xx_HAL_Driver/Src/stm32h7xx_hal_rcc_ex.c:1416:28
	ldr	r0, [r4, #80]
	.loc	5 1416 5 is_stmt 0              @ ../Drivers/STM32H7xx_HAL_Driver/Src/stm32h7xx_hal_rcc_ex.c:1416:5
	cmp.w	r0, #65536
	beq	.LBB0_239
.Ltmp423:
@ %bb.235:
	@DEBUG_VALUE: HAL_RCCEx_PeriphCLKConfig:status <- $r7
	@DEBUG_VALUE: HAL_RCCEx_PeriphCLKConfig:ret <- $r5
	@DEBUG_VALUE: HAL_RCCEx_PeriphCLKConfig:PeriphClkInit <- $r4
	cbnz	r0, .LBB0_241
.Ltmp424:
@ %bb.236:
	@DEBUG_VALUE: HAL_RCCEx_PeriphCLKConfig:status <- $r7
	@DEBUG_VALUE: HAL_RCCEx_PeriphCLKConfig:ret <- $r5
	@DEBUG_VALUE: HAL_RCCEx_PeriphCLKConfig:PeriphClkInit <- $r4
	.loc	5 1420 9 is_stmt 1              @ ../Drivers/STM32H7xx_HAL_Driver/Src/stm32h7xx_hal_rcc_ex.c:1420:9
	ldr.w	r0, [r8]
	orr	r0, r0, #131072
	str.w	r0, [r8]
	@DEBUG_VALUE: HAL_RCCEx_PeriphCLKConfig:ret <- $r5
	mov	r6, r5
.Ltmp425:
	.loc	5 1437 9                        @ ../Drivers/STM32H7xx_HAL_Driver/Src/stm32h7xx_hal_rcc_ex.c:1437:9
	cbz	r5, .LBB0_240
.Ltmp426:
.LBB0_237:
	@DEBUG_VALUE: HAL_RCCEx_PeriphCLKConfig:status <- $r7
	@DEBUG_VALUE: HAL_RCCEx_PeriphCLKConfig:ret <- $r5
	@DEBUG_VALUE: HAL_RCCEx_PeriphCLKConfig:PeriphClkInit <- $r4
	@DEBUG_VALUE: HAL_RCCEx_PeriphCLKConfig:ret <- $r5
	@DEBUG_VALUE: HAL_RCCEx_PeriphCLKConfig:status <- $r6
	.loc	5 1451 24                       @ ../Drivers/STM32H7xx_HAL_Driver/Src/stm32h7xx_hal_rcc_ex.c:1451:24
	ldr	r1, [r4]
.Ltmp427:
	.loc	5 1451 7 is_stmt 0              @ ../Drivers/STM32H7xx_HAL_Driver/Src/stm32h7xx_hal_rcc_ex.c:1451:7
	lsls	r0, r1, #2
	bmi	.LBB0_242
.Ltmp428:
.LBB0_238:
	@DEBUG_VALUE: HAL_RCCEx_PeriphCLKConfig:ret <- $r5
	@DEBUG_VALUE: HAL_RCCEx_PeriphCLKConfig:status <- $r6
	@DEBUG_VALUE: HAL_RCCEx_PeriphCLKConfig:PeriphClkInit <- $r4
	.loc	5 0 7                           @ ../Drivers/STM32H7xx_HAL_Driver/Src/stm32h7xx_hal_rcc_ex.c:0:7
	ldr	r0, [r4, #4]
	@DEBUG_VALUE: HAL_RCCEx_PeriphCLKConfig:status <- $r6
	.loc	5 1461 7 is_stmt 1              @ ../Drivers/STM32H7xx_HAL_Driver/Src/stm32h7xx_hal_rcc_ex.c:1461:7
	lsls	r2, r1, #14
	bmi	.LBB0_243
	b	.LBB0_263
.Ltmp429:
	.p2align	2
.LBB0_239:
	@DEBUG_VALUE: HAL_RCCEx_PeriphCLKConfig:status <- $r7
	@DEBUG_VALUE: HAL_RCCEx_PeriphCLKConfig:ret <- $r5
	@DEBUG_VALUE: HAL_RCCEx_PeriphCLKConfig:PeriphClkInit <- $r4
	.loc	5 1427 50                       @ ../Drivers/STM32H7xx_HAL_Driver/Src/stm32h7xx_hal_rcc_ex.c:1427:50
	add.w	r0, r4, #8
	.loc	5 1427 15 is_stmt 0             @ ../Drivers/STM32H7xx_HAL_Driver/Src/stm32h7xx_hal_rcc_ex.c:1427:15
	movs	r1, #2
	bl	RCCEx_PLL2_Config
.Ltmp430:
	mov	r5, r0
.Ltmp431:
	@DEBUG_VALUE: HAL_RCCEx_PeriphCLKConfig:ret <- undef
	@DEBUG_VALUE: HAL_RCCEx_PeriphCLKConfig:ret <- $r5
	.loc	5 1437 9 is_stmt 1              @ ../Drivers/STM32H7xx_HAL_Driver/Src/stm32h7xx_hal_rcc_ex.c:1437:9
	cmp	r5, #0
	mov	r6, r5
	bne	.LBB0_237
.Ltmp432:
.LBB0_240:
	@DEBUG_VALUE: HAL_RCCEx_PeriphCLKConfig:status <- $r7
	@DEBUG_VALUE: HAL_RCCEx_PeriphCLKConfig:ret <- $r5
	@DEBUG_VALUE: HAL_RCCEx_PeriphCLKConfig:PeriphClkInit <- $r4
	.loc	5 1440 7                        @ ../Drivers/STM32H7xx_HAL_Driver/Src/stm32h7xx_hal_rcc_ex.c:1440:7
	ldr.w	r0, [r8, #32]
	ldr	r1, [r4, #80]
	bic	r0, r0, #65536
	movs	r5, #0
.Ltmp433:
	orrs	r0, r1
	str.w	r0, [r8, #32]
	b	.LBB0_232
.Ltmp434:
	.p2align	2
.LBB0_241:
	@DEBUG_VALUE: HAL_RCCEx_PeriphCLKConfig:status <- $r7
	@DEBUG_VALUE: HAL_RCCEx_PeriphCLKConfig:ret <- $r5
	@DEBUG_VALUE: HAL_RCCEx_PeriphCLKConfig:PeriphClkInit <- $r4
	.loc	5 0 7 is_stmt 0                 @ ../Drivers/STM32H7xx_HAL_Driver/Src/stm32h7xx_hal_rcc_ex.c:0:7
	movs	r6, #1
	movs	r5, #1
.Ltmp435:
	@DEBUG_VALUE: HAL_RCCEx_PeriphCLKConfig:ret <- $r5
	@DEBUG_VALUE: HAL_RCCEx_PeriphCLKConfig:status <- $r6
	.loc	5 1451 24 is_stmt 1             @ ../Drivers/STM32H7xx_HAL_Driver/Src/stm32h7xx_hal_rcc_ex.c:1451:24
	ldr	r1, [r4]
.Ltmp436:
	.loc	5 1451 7 is_stmt 0              @ ../Drivers/STM32H7xx_HAL_Driver/Src/stm32h7xx_hal_rcc_ex.c:1451:7
	lsls	r0, r1, #2
	bpl	.LBB0_238
.Ltmp437:
.LBB0_242:
	@DEBUG_VALUE: HAL_RCCEx_PeriphCLKConfig:ret <- $r5
	@DEBUG_VALUE: HAL_RCCEx_PeriphCLKConfig:status <- $r6
	@DEBUG_VALUE: HAL_RCCEx_PeriphCLKConfig:PeriphClkInit <- $r4
	.loc	5 1453 44 is_stmt 1             @ ../Drivers/STM32H7xx_HAL_Driver/Src/stm32h7xx_hal_rcc_ex.c:1453:44
	add.w	r0, r4, #40
	.loc	5 1453 9 is_stmt 0              @ ../Drivers/STM32H7xx_HAL_Driver/Src/stm32h7xx_hal_rcc_ex.c:1453:9
	movs	r1, #2
	bl	RCCEx_PLL3_Config
.Ltmp438:
	.loc	5 1453 9                        @ ../Drivers/STM32H7xx_HAL_Driver/Src/stm32h7xx_hal_rcc_ex.c:1453:9
	cmp	r0, #0
	it	ne
	movne	r6, #1
.Ltmp439:
	.loc	5 1461 24 is_stmt 1             @ ../Drivers/STM32H7xx_HAL_Driver/Src/stm32h7xx_hal_rcc_ex.c:1461:24
	ldrd	r1, r0, [r4]
.Ltmp440:
	@DEBUG_VALUE: HAL_RCCEx_PeriphCLKConfig:status <- $r6
	.loc	5 1461 7 is_stmt 0              @ ../Drivers/STM32H7xx_HAL_Driver/Src/stm32h7xx_hal_rcc_ex.c:1461:7
	lsls	r2, r1, #14
	bpl	.LBB0_263
.Ltmp441:
.LBB0_243:
	@DEBUG_VALUE: HAL_RCCEx_PeriphCLKConfig:ret <- $r5
	@DEBUG_VALUE: HAL_RCCEx_PeriphCLKConfig:status <- $r6
	@DEBUG_VALUE: HAL_RCCEx_PeriphCLKConfig:PeriphClkInit <- $r4
	.loc	5 1464 28 is_stmt 1             @ ../Drivers/STM32H7xx_HAL_Driver/Src/stm32h7xx_hal_rcc_ex.c:1464:28
	ldr.w	r2, [r4, #128]
	mvn	r3, #1
	.loc	5 1464 5 is_stmt 0              @ ../Drivers/STM32H7xx_HAL_Driver/Src/stm32h7xx_hal_rcc_ex.c:1464:5
	add.w	r3, r3, r2, ror #8
	cmp	r3, #2
	blo	.LBB0_247
.Ltmp442:
@ %bb.244:
	@DEBUG_VALUE: HAL_RCCEx_PeriphCLKConfig:ret <- $r5
	@DEBUG_VALUE: HAL_RCCEx_PeriphCLKConfig:status <- $r6
	@DEBUG_VALUE: HAL_RCCEx_PeriphCLKConfig:PeriphClkInit <- $r4
	.loc	5 0 5                           @ ../Drivers/STM32H7xx_HAL_Driver/Src/stm32h7xx_hal_rcc_ex.c:0:5
	ror.w	r3, r2, #8
	.loc	5 1464 5                        @ ../Drivers/STM32H7xx_HAL_Driver/Src/stm32h7xx_hal_rcc_ex.c:1464:5
	cbz	r3, .LBB0_247
.Ltmp443:
@ %bb.245:
	@DEBUG_VALUE: HAL_RCCEx_PeriphCLKConfig:ret <- $r5
	@DEBUG_VALUE: HAL_RCCEx_PeriphCLKConfig:status <- $r6
	@DEBUG_VALUE: HAL_RCCEx_PeriphCLKConfig:PeriphClkInit <- $r4
	cmp	r3, #1
	bne.w	.LBB0_275
.Ltmp444:
@ %bb.246:
	@DEBUG_VALUE: HAL_RCCEx_PeriphCLKConfig:ret <- $r5
	@DEBUG_VALUE: HAL_RCCEx_PeriphCLKConfig:status <- $r6
	@DEBUG_VALUE: HAL_RCCEx_PeriphCLKConfig:PeriphClkInit <- $r4
	.loc	5 1468 9 is_stmt 1              @ ../Drivers/STM32H7xx_HAL_Driver/Src/stm32h7xx_hal_rcc_ex.c:1468:9
	ldr.w	r3, [r8]
	orr	r3, r3, #131072
	str.w	r3, [r8]
.Ltmp445:
.LBB0_247:
	@DEBUG_VALUE: HAL_RCCEx_PeriphCLKConfig:ret <- $r5
	@DEBUG_VALUE: HAL_RCCEx_PeriphCLKConfig:status <- $r6
	@DEBUG_VALUE: HAL_RCCEx_PeriphCLKConfig:PeriphClkInit <- $r4
	@DEBUG_VALUE: HAL_RCCEx_PeriphCLKConfig:ret <- $r5
	.loc	5 1492 9                        @ ../Drivers/STM32H7xx_HAL_Driver/Src/stm32h7xx_hal_rcc_ex.c:1492:9
	cbz	r5, .LBB0_262
.Ltmp446:
@ %bb.248:
	@DEBUG_VALUE: HAL_RCCEx_PeriphCLKConfig:ret <- $r5
	@DEBUG_VALUE: HAL_RCCEx_PeriphCLKConfig:status <- $r6
	@DEBUG_VALUE: HAL_RCCEx_PeriphCLKConfig:PeriphClkInit <- $r4
	@DEBUG_VALUE: HAL_RCCEx_PeriphCLKConfig:status <- $r5
	.loc	5 1506 7                        @ ../Drivers/STM32H7xx_HAL_Driver/Src/stm32h7xx_hal_rcc_ex.c:1506:7
	lsls	r2, r1, #11
	bmi	.LBB0_264
.Ltmp447:
.LBB0_249:
	@DEBUG_VALUE: HAL_RCCEx_PeriphCLKConfig:status <- $r5
	@DEBUG_VALUE: HAL_RCCEx_PeriphCLKConfig:PeriphClkInit <- $r4
	.loc	5 1516 7                        @ ../Drivers/STM32H7xx_HAL_Driver/Src/stm32h7xx_hal_rcc_ex.c:1516:7
	lsls	r2, r1, #3
	bmi	.LBB0_265
.Ltmp448:
.LBB0_250:
	@DEBUG_VALUE: HAL_RCCEx_PeriphCLKConfig:status <- $r5
	@DEBUG_VALUE: HAL_RCCEx_PeriphCLKConfig:PeriphClkInit <- $r4
	.loc	5 1526 7                        @ ../Drivers/STM32H7xx_HAL_Driver/Src/stm32h7xx_hal_rcc_ex.c:1526:7
	lsls	r2, r1, #10
	bmi	.LBB0_266
.Ltmp449:
.LBB0_251:
	@DEBUG_VALUE: HAL_RCCEx_PeriphCLKConfig:status <- $r5
	@DEBUG_VALUE: HAL_RCCEx_PeriphCLKConfig:PeriphClkInit <- $r4
	.loc	5 1548 7                        @ ../Drivers/STM32H7xx_HAL_Driver/Src/stm32h7xx_hal_rcc_ex.c:1548:7
	lsls	r2, r1, #1
	bmi	.LBB0_267
.Ltmp450:
.LBB0_252:
	@DEBUG_VALUE: HAL_RCCEx_PeriphCLKConfig:status <- $r5
	@DEBUG_VALUE: HAL_RCCEx_PeriphCLKConfig:PeriphClkInit <- $r4
	.loc	5 1558 7                        @ ../Drivers/STM32H7xx_HAL_Driver/Src/stm32h7xx_hal_rcc_ex.c:1558:7
	lsrs	r2, r1, #31
	bne	.LBB0_268
.Ltmp451:
.LBB0_253:
	@DEBUG_VALUE: HAL_RCCEx_PeriphCLKConfig:status <- $r5
	@DEBUG_VALUE: HAL_RCCEx_PeriphCLKConfig:PeriphClkInit <- $r4
	.loc	5 1568 7                        @ ../Drivers/STM32H7xx_HAL_Driver/Src/stm32h7xx_hal_rcc_ex.c:1568:7
	lsls	r1, r1, #8
	bmi	.LBB0_269
.Ltmp452:
.LBB0_254:
	@DEBUG_VALUE: HAL_RCCEx_PeriphCLKConfig:status <- $r5
	@DEBUG_VALUE: HAL_RCCEx_PeriphCLKConfig:PeriphClkInit <- $r4
	.loc	5 1578 7                        @ ../Drivers/STM32H7xx_HAL_Driver/Src/stm32h7xx_hal_rcc_ex.c:1578:7
	lsls	r1, r0, #31
	bne	.LBB0_270
.Ltmp453:
.LBB0_255:
	@DEBUG_VALUE: HAL_RCCEx_PeriphCLKConfig:status <- $r5
	@DEBUG_VALUE: HAL_RCCEx_PeriphCLKConfig:PeriphClkInit <- $r4
	@DEBUG_VALUE: HAL_RCCEx_PeriphCLKConfig:status <- $r5
	.loc	5 1594 7                        @ ../Drivers/STM32H7xx_HAL_Driver/Src/stm32h7xx_hal_rcc_ex.c:1594:7
	lsls	r1, r0, #30
	bmi	.LBB0_271
.Ltmp454:
.LBB0_256:
	@DEBUG_VALUE: HAL_RCCEx_PeriphCLKConfig:status <- $r5
	@DEBUG_VALUE: HAL_RCCEx_PeriphCLKConfig:PeriphClkInit <- $r4
	@DEBUG_VALUE: HAL_RCCEx_PeriphCLKConfig:status <- $r5
	.loc	5 1610 7                        @ ../Drivers/STM32H7xx_HAL_Driver/Src/stm32h7xx_hal_rcc_ex.c:1610:7
	lsls	r1, r0, #29
	bmi	.LBB0_272
.Ltmp455:
.LBB0_257:
	@DEBUG_VALUE: HAL_RCCEx_PeriphCLKConfig:status <- $r5
	@DEBUG_VALUE: HAL_RCCEx_PeriphCLKConfig:PeriphClkInit <- $r4
	@DEBUG_VALUE: HAL_RCCEx_PeriphCLKConfig:status <- $r5
	.loc	5 1627 7                        @ ../Drivers/STM32H7xx_HAL_Driver/Src/stm32h7xx_hal_rcc_ex.c:1627:7
	lsls	r1, r0, #28
	bmi.w	.LBB0_273
.Ltmp456:
.LBB0_258:
	@DEBUG_VALUE: HAL_RCCEx_PeriphCLKConfig:status <- $r5
	@DEBUG_VALUE: HAL_RCCEx_PeriphCLKConfig:PeriphClkInit <- $r4
	@DEBUG_VALUE: HAL_RCCEx_PeriphCLKConfig:status <- $r5
	.loc	5 1643 7                        @ ../Drivers/STM32H7xx_HAL_Driver/Src/stm32h7xx_hal_rcc_ex.c:1643:7
	lsls	r1, r0, #27
	bmi.w	.LBB0_274
.Ltmp457:
.LBB0_259:
	@DEBUG_VALUE: HAL_RCCEx_PeriphCLKConfig:status <- $r5
	@DEBUG_VALUE: HAL_RCCEx_PeriphCLKConfig:PeriphClkInit <- $r4
	@DEBUG_VALUE: HAL_RCCEx_PeriphCLKConfig:status <- $r5
	.loc	5 1659 7                        @ ../Drivers/STM32H7xx_HAL_Driver/Src/stm32h7xx_hal_rcc_ex.c:1659:7
	lsls	r0, r0, #26
	bpl	.LBB0_261
.Ltmp458:
.LBB0_260:
	@DEBUG_VALUE: HAL_RCCEx_PeriphCLKConfig:status <- $r5
	@DEBUG_VALUE: HAL_RCCEx_PeriphCLKConfig:PeriphClkInit <- $r4
	.loc	5 1661 46                       @ ../Drivers/STM32H7xx_HAL_Driver/Src/stm32h7xx_hal_rcc_ex.c:1661:46
	add.w	r0, r4, #40
	.loc	5 1661 11 is_stmt 0             @ ../Drivers/STM32H7xx_HAL_Driver/Src/stm32h7xx_hal_rcc_ex.c:1661:11
	movs	r1, #2
	bl	RCCEx_PLL3_Config
.Ltmp459:
	@DEBUG_VALUE: HAL_RCCEx_PeriphCLKConfig:ret <- $r0
	.loc	5 1663 9 is_stmt 1              @ ../Drivers/STM32H7xx_HAL_Driver/Src/stm32h7xx_hal_rcc_ex.c:1663:9
	cmp	r0, #0
	it	ne
	movne	r5, #1
.Ltmp460:
.LBB0_261:
	@DEBUG_VALUE: HAL_RCCEx_PeriphCLKConfig:PeriphClkInit <- $r4
	@DEBUG_VALUE: HAL_RCCEx_PeriphCLKConfig:status <- $r5
	.loc	5 1674 14                       @ ../Drivers/STM32H7xx_HAL_Driver/Src/stm32h7xx_hal_rcc_ex.c:1674:14
	cmp	r5, #0
	it	ne
	movne	r5, #1
.Ltmp461:
	.loc	5 1679 1                        @ ../Drivers/STM32H7xx_HAL_Driver/Src/stm32h7xx_hal_rcc_ex.c:1679:1
	mov	r0, r5
	pop.w	{r4, r5, r6, r7, r8, r10, r11, pc}
.Ltmp462:
	.p2align	2
.LBB0_262:
	@DEBUG_VALUE: HAL_RCCEx_PeriphCLKConfig:ret <- $r5
	@DEBUG_VALUE: HAL_RCCEx_PeriphCLKConfig:status <- $r6
	@DEBUG_VALUE: HAL_RCCEx_PeriphCLKConfig:PeriphClkInit <- $r4
	.loc	5 1495 7                        @ ../Drivers/STM32H7xx_HAL_Driver/Src/stm32h7xx_hal_rcc_ex.c:1495:7
	ldr.w	r3, [r8, #40]
	bic	r3, r3, #768
	orrs	r2, r3
	str.w	r2, [r8, #40]
.Ltmp463:
.LBB0_263:
	@DEBUG_VALUE: HAL_RCCEx_PeriphCLKConfig:ret <- $r5
	@DEBUG_VALUE: HAL_RCCEx_PeriphCLKConfig:status <- $r6
	@DEBUG_VALUE: HAL_RCCEx_PeriphCLKConfig:PeriphClkInit <- $r4
	.loc	5 0 7 is_stmt 0                 @ ../Drivers/STM32H7xx_HAL_Driver/Src/stm32h7xx_hal_rcc_ex.c:0:7
	mov	r5, r6
.Ltmp464:
	@DEBUG_VALUE: HAL_RCCEx_PeriphCLKConfig:status <- $r5
	@DEBUG_VALUE: HAL_RCCEx_PeriphCLKConfig:status <- $r5
	.loc	5 1506 7 is_stmt 1              @ ../Drivers/STM32H7xx_HAL_Driver/Src/stm32h7xx_hal_rcc_ex.c:1506:7
	lsls	r2, r1, #11
	bpl	.LBB0_249
.Ltmp465:
.LBB0_264:
	@DEBUG_VALUE: HAL_RCCEx_PeriphCLKConfig:status <- $r5
	@DEBUG_VALUE: HAL_RCCEx_PeriphCLKConfig:PeriphClkInit <- $r4
	.loc	5 1512 5                        @ ../Drivers/STM32H7xx_HAL_Driver/Src/stm32h7xx_hal_rcc_ex.c:1512:5
	ldr.w	r2, [r8, #36]
	ldr	r3, [r4, #116]
	bic	r2, r2, #-2147483648
	orrs	r2, r3
	str.w	r2, [r8, #36]
.Ltmp466:
	.loc	5 1516 7                        @ ../Drivers/STM32H7xx_HAL_Driver/Src/stm32h7xx_hal_rcc_ex.c:1516:7
	lsls	r2, r1, #3
	bpl	.LBB0_250
.Ltmp467:
.LBB0_265:
	@DEBUG_VALUE: HAL_RCCEx_PeriphCLKConfig:status <- $r5
	@DEBUG_VALUE: HAL_RCCEx_PeriphCLKConfig:PeriphClkInit <- $r4
	.loc	5 1522 5                        @ ../Drivers/STM32H7xx_HAL_Driver/Src/stm32h7xx_hal_rcc_ex.c:1522:5
	ldr	r2, [r8, #-28]
	ldr.w	r3, [r4, #184]
	bic	r2, r2, #16384
	orrs	r2, r3
	str	r2, [r8, #-28]
.Ltmp468:
	.loc	5 1526 7                        @ ../Drivers/STM32H7xx_HAL_Driver/Src/stm32h7xx_hal_rcc_ex.c:1526:7
	lsls	r2, r1, #10
	bpl	.LBB0_251
.Ltmp469:
.LBB0_266:
	@DEBUG_VALUE: HAL_RCCEx_PeriphCLKConfig:status <- $r5
	@DEBUG_VALUE: HAL_RCCEx_PeriphCLKConfig:PeriphClkInit <- $r4
	.loc	5 1532 5                        @ ../Drivers/STM32H7xx_HAL_Driver/Src/stm32h7xx_hal_rcc_ex.c:1532:5
	ldr.w	r2, [r8, #36]
	ldr	r3, [r4, #108]
	bic	r2, r2, #16777216
	orrs	r2, r3
	str.w	r2, [r8, #36]
.Ltmp470:
	.loc	5 1548 7                        @ ../Drivers/STM32H7xx_HAL_Driver/Src/stm32h7xx_hal_rcc_ex.c:1548:7
	lsls	r2, r1, #1
	bpl	.LBB0_252
.Ltmp471:
.LBB0_267:
	@DEBUG_VALUE: HAL_RCCEx_PeriphCLKConfig:status <- $r5
	@DEBUG_VALUE: HAL_RCCEx_PeriphCLKConfig:PeriphClkInit <- $r4
	.loc	5 1554 5                        @ ../Drivers/STM32H7xx_HAL_Driver/Src/stm32h7xx_hal_rcc_ex.c:1554:5
	ldr	r2, [r8, #-28]
	bic	r2, r2, #32768
	str	r2, [r8, #-28]
	ldr.w	r2, [r4, #188]
	ldr	r3, [r8, #-28]
	orrs	r2, r3
	str	r2, [r8, #-28]
.Ltmp472:
	.loc	5 1558 7                        @ ../Drivers/STM32H7xx_HAL_Driver/Src/stm32h7xx_hal_rcc_ex.c:1558:7
	lsrs	r2, r1, #31
	beq	.LBB0_253
.Ltmp473:
.LBB0_268:
	@DEBUG_VALUE: HAL_RCCEx_PeriphCLKConfig:status <- $r5
	@DEBUG_VALUE: HAL_RCCEx_PeriphCLKConfig:PeriphClkInit <- $r4
	.loc	5 1564 5                        @ ../Drivers/STM32H7xx_HAL_Driver/Src/stm32h7xx_hal_rcc_ex.c:1564:5
	ldr.w	r2, [r8, #32]
	ldr	r3, [r4, #84]
	bic	r2, r2, #805306368
	orrs	r2, r3
	str.w	r2, [r8, #32]
.Ltmp474:
	.loc	5 1568 7                        @ ../Drivers/STM32H7xx_HAL_Driver/Src/stm32h7xx_hal_rcc_ex.c:1568:7
	lsls	r1, r1, #8
	bpl	.LBB0_254
.Ltmp475:
.LBB0_269:
	@DEBUG_VALUE: HAL_RCCEx_PeriphCLKConfig:status <- $r5
	@DEBUG_VALUE: HAL_RCCEx_PeriphCLKConfig:PeriphClkInit <- $r4
	.loc	5 1574 5                        @ ../Drivers/STM32H7xx_HAL_Driver/Src/stm32h7xx_hal_rcc_ex.c:1574:5
	ldr.w	r1, [r8, #40]
	ldr.w	r2, [r4, #140]
	bic	r1, r1, #12582912
	orrs	r1, r2
	str.w	r1, [r8, #40]
.Ltmp476:
	.loc	5 1578 7                        @ ../Drivers/STM32H7xx_HAL_Driver/Src/stm32h7xx_hal_rcc_ex.c:1578:7
	lsls	r1, r0, #31
	beq	.LBB0_255
.Ltmp477:
.LBB0_270:
	@DEBUG_VALUE: HAL_RCCEx_PeriphCLKConfig:status <- $r5
	@DEBUG_VALUE: HAL_RCCEx_PeriphCLKConfig:PeriphClkInit <- $r4
	.loc	5 1580 46                       @ ../Drivers/STM32H7xx_HAL_Driver/Src/stm32h7xx_hal_rcc_ex.c:1580:46
	add.w	r0, r4, #8
	.loc	5 1580 11 is_stmt 0             @ ../Drivers/STM32H7xx_HAL_Driver/Src/stm32h7xx_hal_rcc_ex.c:1580:11
	movs	r1, #0
	bl	RCCEx_PLL2_Config
.Ltmp478:
	@DEBUG_VALUE: HAL_RCCEx_PeriphCLKConfig:ret <- $r0
	.loc	5 1582 9 is_stmt 1              @ ../Drivers/STM32H7xx_HAL_Driver/Src/stm32h7xx_hal_rcc_ex.c:1582:9
	cmp	r0, #0
	it	ne
	movne	r5, r0
.Ltmp479:
	@DEBUG_VALUE: HAL_RCCEx_PeriphCLKConfig:ret <- $r5
	.loc	5 1594 24                       @ ../Drivers/STM32H7xx_HAL_Driver/Src/stm32h7xx_hal_rcc_ex.c:1594:24
	ldr	r0, [r4, #4]
.Ltmp480:
	@DEBUG_VALUE: HAL_RCCEx_PeriphCLKConfig:status <- $r5
	.loc	5 1594 7 is_stmt 0              @ ../Drivers/STM32H7xx_HAL_Driver/Src/stm32h7xx_hal_rcc_ex.c:1594:7
	lsls	r1, r0, #30
	bpl	.LBB0_256
.Ltmp481:
.LBB0_271:
	@DEBUG_VALUE: HAL_RCCEx_PeriphCLKConfig:status <- $r5
	@DEBUG_VALUE: HAL_RCCEx_PeriphCLKConfig:PeriphClkInit <- $r4
	.loc	5 1596 46 is_stmt 1             @ ../Drivers/STM32H7xx_HAL_Driver/Src/stm32h7xx_hal_rcc_ex.c:1596:46
	add.w	r0, r4, #8
	.loc	5 1596 11 is_stmt 0             @ ../Drivers/STM32H7xx_HAL_Driver/Src/stm32h7xx_hal_rcc_ex.c:1596:11
	movs	r1, #1
	bl	RCCEx_PLL2_Config
.Ltmp482:
	@DEBUG_VALUE: HAL_RCCEx_PeriphCLKConfig:ret <- $r0
	.loc	5 1598 9 is_stmt 1              @ ../Drivers/STM32H7xx_HAL_Driver/Src/stm32h7xx_hal_rcc_ex.c:1598:9
	cmp	r0, #0
	it	ne
	movne	r5, r0
.Ltmp483:
	@DEBUG_VALUE: HAL_RCCEx_PeriphCLKConfig:ret <- $r5
	.loc	5 1610 24                       @ ../Drivers/STM32H7xx_HAL_Driver/Src/stm32h7xx_hal_rcc_ex.c:1610:24
	ldr	r0, [r4, #4]
.Ltmp484:
	@DEBUG_VALUE: HAL_RCCEx_PeriphCLKConfig:status <- $r5
	.loc	5 1610 7 is_stmt 0              @ ../Drivers/STM32H7xx_HAL_Driver/Src/stm32h7xx_hal_rcc_ex.c:1610:7
	lsls	r1, r0, #29
	bpl.w	.LBB0_257
.Ltmp485:
.LBB0_272:
	@DEBUG_VALUE: HAL_RCCEx_PeriphCLKConfig:status <- $r5
	@DEBUG_VALUE: HAL_RCCEx_PeriphCLKConfig:PeriphClkInit <- $r4
	.loc	5 1612 46 is_stmt 1             @ ../Drivers/STM32H7xx_HAL_Driver/Src/stm32h7xx_hal_rcc_ex.c:1612:46
	add.w	r0, r4, #8
	.loc	5 1612 11 is_stmt 0             @ ../Drivers/STM32H7xx_HAL_Driver/Src/stm32h7xx_hal_rcc_ex.c:1612:11
	movs	r1, #2
	bl	RCCEx_PLL2_Config
.Ltmp486:
	@DEBUG_VALUE: HAL_RCCEx_PeriphCLKConfig:ret <- $r0
	.loc	5 1614 9 is_stmt 1              @ ../Drivers/STM32H7xx_HAL_Driver/Src/stm32h7xx_hal_rcc_ex.c:1614:9
	cmp	r0, #0
	it	ne
	movne	r5, r0
.Ltmp487:
	@DEBUG_VALUE: HAL_RCCEx_PeriphCLKConfig:ret <- $r5
	.loc	5 1627 24                       @ ../Drivers/STM32H7xx_HAL_Driver/Src/stm32h7xx_hal_rcc_ex.c:1627:24
	ldr	r0, [r4, #4]
.Ltmp488:
	@DEBUG_VALUE: HAL_RCCEx_PeriphCLKConfig:status <- $r5
	.loc	5 1627 7 is_stmt 0              @ ../Drivers/STM32H7xx_HAL_Driver/Src/stm32h7xx_hal_rcc_ex.c:1627:7
	lsls	r1, r0, #28
	bpl.w	.LBB0_258
.Ltmp489:
.LBB0_273:
	@DEBUG_VALUE: HAL_RCCEx_PeriphCLKConfig:status <- $r5
	@DEBUG_VALUE: HAL_RCCEx_PeriphCLKConfig:PeriphClkInit <- $r4
	.loc	5 1629 46 is_stmt 1             @ ../Drivers/STM32H7xx_HAL_Driver/Src/stm32h7xx_hal_rcc_ex.c:1629:46
	add.w	r0, r4, #40
	.loc	5 1629 11 is_stmt 0             @ ../Drivers/STM32H7xx_HAL_Driver/Src/stm32h7xx_hal_rcc_ex.c:1629:11
	movs	r1, #0
	bl	RCCEx_PLL3_Config
.Ltmp490:
	@DEBUG_VALUE: HAL_RCCEx_PeriphCLKConfig:ret <- $r0
	.loc	5 1631 9 is_stmt 1              @ ../Drivers/STM32H7xx_HAL_Driver/Src/stm32h7xx_hal_rcc_ex.c:1631:9
	cmp	r0, #0
	it	ne
	movne	r5, r0
.Ltmp491:
	@DEBUG_VALUE: HAL_RCCEx_PeriphCLKConfig:ret <- $r5
	.loc	5 1643 24                       @ ../Drivers/STM32H7xx_HAL_Driver/Src/stm32h7xx_hal_rcc_ex.c:1643:24
	ldr	r0, [r4, #4]
.Ltmp492:
	@DEBUG_VALUE: HAL_RCCEx_PeriphCLKConfig:status <- $r5
	.loc	5 1643 7 is_stmt 0              @ ../Drivers/STM32H7xx_HAL_Driver/Src/stm32h7xx_hal_rcc_ex.c:1643:7
	lsls	r1, r0, #27
	bpl.w	.LBB0_259
.Ltmp493:
.LBB0_274:
	@DEBUG_VALUE: HAL_RCCEx_PeriphCLKConfig:status <- $r5
	@DEBUG_VALUE: HAL_RCCEx_PeriphCLKConfig:PeriphClkInit <- $r4
	.loc	5 1645 46 is_stmt 1             @ ../Drivers/STM32H7xx_HAL_Driver/Src/stm32h7xx_hal_rcc_ex.c:1645:46
	add.w	r0, r4, #40
	.loc	5 1645 11 is_stmt 0             @ ../Drivers/STM32H7xx_HAL_Driver/Src/stm32h7xx_hal_rcc_ex.c:1645:11
	movs	r1, #1
	bl	RCCEx_PLL3_Config
.Ltmp494:
	@DEBUG_VALUE: HAL_RCCEx_PeriphCLKConfig:ret <- $r0
	.loc	5 1647 9 is_stmt 1              @ ../Drivers/STM32H7xx_HAL_Driver/Src/stm32h7xx_hal_rcc_ex.c:1647:9
	cmp	r0, #0
	it	ne
	movne	r5, r0
.Ltmp495:
	@DEBUG_VALUE: HAL_RCCEx_PeriphCLKConfig:ret <- $r5
	.loc	5 1659 24                       @ ../Drivers/STM32H7xx_HAL_Driver/Src/stm32h7xx_hal_rcc_ex.c:1659:24
	ldr	r0, [r4, #4]
.Ltmp496:
	@DEBUG_VALUE: HAL_RCCEx_PeriphCLKConfig:status <- $r5
	.loc	5 1659 7 is_stmt 0              @ ../Drivers/STM32H7xx_HAL_Driver/Src/stm32h7xx_hal_rcc_ex.c:1659:7
	lsls	r0, r0, #26
	bpl.w	.LBB0_261
	b	.LBB0_260
.Ltmp497:
	.p2align	2
.LBB0_275:
	@DEBUG_VALUE: HAL_RCCEx_PeriphCLKConfig:ret <- $r5
	@DEBUG_VALUE: HAL_RCCEx_PeriphCLKConfig:status <- $r6
	@DEBUG_VALUE: HAL_RCCEx_PeriphCLKConfig:PeriphClkInit <- $r4
	.loc	5 0 7                           @ ../Drivers/STM32H7xx_HAL_Driver/Src/stm32h7xx_hal_rcc_ex.c:0:7
	movs	r5, #1
.Ltmp498:
	@DEBUG_VALUE: HAL_RCCEx_PeriphCLKConfig:status <- $r5
	.loc	5 1506 7 is_stmt 1              @ ../Drivers/STM32H7xx_HAL_Driver/Src/stm32h7xx_hal_rcc_ex.c:1506:7
	lsls	r2, r1, #11
	bpl.w	.LBB0_249
	b	.LBB0_264
.Ltmp499:
	.p2align	2
.LBB0_276:
	@DEBUG_VALUE: HAL_RCCEx_PeriphCLKConfig:tickstart <- $r6
	@DEBUG_VALUE: HAL_RCCEx_PeriphCLKConfig:status <- $r10
	@DEBUG_VALUE: HAL_RCCEx_PeriphCLKConfig:PeriphClkInit <- $r4
	@DEBUG_VALUE: HAL_RCCEx_PeriphCLKConfig:ret <- undef
	.loc	5 943 9                         @ ../Drivers/STM32H7xx_HAL_Driver/Src/stm32h7xx_hal_rcc_ex.c:943:9
	ldr.w	r0, [r4, #180]
.Ltmp500:
.LBB0_277:
	@DEBUG_VALUE: HAL_RCCEx_PeriphCLKConfig:tickstart <- $r6
	@DEBUG_VALUE: HAL_RCCEx_PeriphCLKConfig:status <- $r10
	@DEBUG_VALUE: HAL_RCCEx_PeriphCLKConfig:PeriphClkInit <- $r4
	.loc	5 0 9 is_stmt 0                 @ ../Drivers/STM32H7xx_HAL_Driver/Src/stm32h7xx_hal_rcc_ex.c:0:9
	movw	r3, #65487
	.loc	5 943 9                         @ ../Drivers/STM32H7xx_HAL_Driver/Src/stm32h7xx_hal_rcc_ex.c:943:9
	ldr	r2, [r8, #-28]
	movt	r3, #255
	and	r1, r0, #768
	bic	r2, r2, #16128
	and.w	r3, r3, r0, lsr #4
	bfc	r0, #12, #20
	cmp.w	r1, #768
	it	eq
	orreq	r2, r3
	movs	r5, #0
	str	r2, [r8, #-28]
	ldr.w	r1, [r8, #68]
	orrs	r0, r1
	str.w	r0, [r8, #68]
	b.w	.LBB0_125
.Ltmp501:
.Lfunc_end0:
	.size	HAL_RCCEx_PeriphCLKConfig, .Lfunc_end0-HAL_RCCEx_PeriphCLKConfig
	.cfi_endproc
	.cantunwind
	.fnend
                                        @ -- End function
	.p2align	3                               @ -- Begin function RCCEx_PLL2_Config
	.type	RCCEx_PLL2_Config,%function
	.code	16                              @ @RCCEx_PLL2_Config
	.thumb_func
RCCEx_PLL2_Config:
.Lfunc_begin1:
	.loc	5 3694 0 is_stmt 1              @ ../Drivers/STM32H7xx_HAL_Driver/Src/stm32h7xx_hal_rcc_ex.c:3694:0
	.fnstart
	.cfi_startproc
@ %bb.0:
	@DEBUG_VALUE: RCCEx_PLL2_Config:pll2 <- $r0
	@DEBUG_VALUE: RCCEx_PLL2_Config:Divider <- $r1
	.save	{r4, r5, r6, r7, lr}
	push	{r4, r5, r6, r7, lr}
	.cfi_def_cfa_offset 20
	.cfi_offset lr, -4
	.cfi_offset r7, -8
	.cfi_offset r6, -12
	.cfi_offset r5, -16
	.cfi_offset r4, -20
	.pad	#4
	sub	sp, #4
	.cfi_def_cfa_offset 24
	movw	r7, #17452
	movt	r7, #22530
.Ltmp502:
	@DEBUG_VALUE: RCCEx_PLL2_Config:status <- 0
	.loc	5 3708 7 prologue_end           @ ../Drivers/STM32H7xx_HAL_Driver/Src/stm32h7xx_hal_rcc_ex.c:3708:7
	ldr	r2, [r7, #-4]
	and	r2, r2, #3
.Ltmp503:
	.loc	5 3708 7 is_stmt 0              @ ../Drivers/STM32H7xx_HAL_Driver/Src/stm32h7xx_hal_rcc_ex.c:3708:7
	cmp	r2, #3
	@DEBUG_VALUE: RCCEx_PLL2_Config:Divider <- $r1
	@DEBUG_VALUE: RCCEx_PLL2_Config:pll2 <- $r0
	bne	.LBB1_2
.Ltmp504:
@ %bb.1:
	@DEBUG_VALUE: RCCEx_PLL2_Config:status <- 0
	@DEBUG_VALUE: RCCEx_PLL2_Config:Divider <- $r1
	@DEBUG_VALUE: RCCEx_PLL2_Config:pll2 <- $r0
	.loc	5 0 7                           @ ../Drivers/STM32H7xx_HAL_Driver/Src/stm32h7xx_hal_rcc_ex.c:0:7
	movs	r0, #1
.Ltmp505:
	.loc	5 3786 1 is_stmt 1              @ ../Drivers/STM32H7xx_HAL_Driver/Src/stm32h7xx_hal_rcc_ex.c:3786:1
	add	sp, #4
	pop	{r4, r5, r6, r7, pc}
.Ltmp506:
	.p2align	2
.LBB1_2:
	@DEBUG_VALUE: RCCEx_PLL2_Config:status <- 0
	@DEBUG_VALUE: RCCEx_PLL2_Config:Divider <- $r1
	@DEBUG_VALUE: RCCEx_PLL2_Config:pll2 <- $r0
	.loc	5 0 1 is_stmt 0                 @ ../Drivers/STM32H7xx_HAL_Driver/Src/stm32h7xx_hal_rcc_ex.c:0:1
	mov	r5, r0
.Ltmp507:
	@DEBUG_VALUE: RCCEx_PLL2_Config:pll2 <- $r5
	@DEBUG_VALUE: RCCEx_PLL2_Config:pll2 <- $r5
	.loc	5 3717 5 is_stmt 1              @ ../Drivers/STM32H7xx_HAL_Driver/Src/stm32h7xx_hal_rcc_ex.c:3717:5
	ldr	r0, [r7, #-44]
	mov	r4, r1
.Ltmp508:
	@DEBUG_VALUE: RCCEx_PLL2_Config:Divider <- $r4
	@DEBUG_VALUE: RCCEx_PLL2_Config:Divider <- $r4
	bic	r0, r0, #67108864
	str	r0, [r7, #-44]
	.loc	5 3720 17                       @ ../Drivers/STM32H7xx_HAL_Driver/Src/stm32h7xx_hal_rcc_ex.c:3720:17
	bl	HAL_GetTick
.Ltmp509:
	mov	r6, r0
.Ltmp510:
	@DEBUG_VALUE: RCCEx_PLL2_Config:tickstart <- $r6
	.p2align	2
.LBB1_3:                                @ =>This Inner Loop Header: Depth=1
	@DEBUG_VALUE: RCCEx_PLL2_Config:tickstart <- $r6
	@DEBUG_VALUE: RCCEx_PLL2_Config:Divider <- $r4
	@DEBUG_VALUE: RCCEx_PLL2_Config:pll2 <- $r5
	@DEBUG_VALUE: RCCEx_PLL2_Config:status <- 0
	.loc	5 3723 12                       @ ../Drivers/STM32H7xx_HAL_Driver/Src/stm32h7xx_hal_rcc_ex.c:3723:12
	ldr	r0, [r7, #-44]
	.loc	5 3723 5 is_stmt 0              @ ../Drivers/STM32H7xx_HAL_Driver/Src/stm32h7xx_hal_rcc_ex.c:3723:5
	lsls	r0, r0, #4
	bpl	.LBB1_5
.Ltmp511:
@ %bb.4:                                @   in Loop: Header=BB1_3 Depth=1
	@DEBUG_VALUE: RCCEx_PLL2_Config:tickstart <- $r6
	@DEBUG_VALUE: RCCEx_PLL2_Config:Divider <- $r4
	@DEBUG_VALUE: RCCEx_PLL2_Config:pll2 <- $r5
	@DEBUG_VALUE: RCCEx_PLL2_Config:status <- 0
	.loc	5 3725 12 is_stmt 1             @ ../Drivers/STM32H7xx_HAL_Driver/Src/stm32h7xx_hal_rcc_ex.c:3725:12
	bl	HAL_GetTick
.Ltmp512:
	.loc	5 3725 26 is_stmt 0             @ ../Drivers/STM32H7xx_HAL_Driver/Src/stm32h7xx_hal_rcc_ex.c:3725:26
	subs	r0, r0, r6
.Ltmp513:
	.loc	5 3725 11                       @ ../Drivers/STM32H7xx_HAL_Driver/Src/stm32h7xx_hal_rcc_ex.c:3725:11
	cmp	r0, #2
	bls	.LBB1_3
	b	.LBB1_8
.Ltmp514:
	.p2align	2
.LBB1_5:
	@DEBUG_VALUE: RCCEx_PLL2_Config:tickstart <- $r6
	@DEBUG_VALUE: RCCEx_PLL2_Config:Divider <- $r4
	@DEBUG_VALUE: RCCEx_PLL2_Config:pll2 <- $r5
	@DEBUG_VALUE: RCCEx_PLL2_Config:status <- 0
	.loc	5 3732 5 is_stmt 1              @ ../Drivers/STM32H7xx_HAL_Driver/Src/stm32h7xx_hal_rcc_ex.c:3732:5
	ldr	r0, [r7, #-4]
	ldr	r6, [r5, #12]
.Ltmp515:
	ldm.w	r5, {r1, r2, r3}
	bic	r0, r0, #258048
.Ltmp516:
	.loc	5 3754 9                        @ ../Drivers/STM32H7xx_HAL_Driver/Src/stm32h7xx_hal_rcc_ex.c:3754:9
	cmp	r4, #1
.Ltmp517:
	.loc	5 3732 5                        @ ../Drivers/STM32H7xx_HAL_Driver/Src/stm32h7xx_hal_rcc_ex.c:3732:5
	orr.w	r0, r0, r1, lsl #12
	sub.w	r1, r2, #1
	bfc	r1, #9, #23
	mov.w	r2, #65024
	add.w	r2, r2, r3, lsl #9
	str	r0, [r7, #-4]
	uxth	r2, r2
	mov.w	r3, #2130706432
	add.w	r0, r2, r1
	mov.w	r1, #8323072
	ldr	r2, [r5, #16]
	add.w	r1, r1, r6, lsl #16
	and	r1, r1, #8323072
	add.w	r2, r3, r2, lsl #24
	add	r0, r1
	and	r1, r2, #2130706432
	add	r0, r1
	str	r0, [r7, #12]
.Ltmp518:
	.loc	5 3739 5                        @ ../Drivers/STM32H7xx_HAL_Driver/Src/stm32h7xx_hal_rcc_ex.c:3739:5
	ldr	r0, [r7]
	ldr	r1, [r5, #20]
	bic	r0, r0, #192
	orr.w	r0, r0, r1
	str	r0, [r7]
	.loc	5 3742 5                        @ ../Drivers/STM32H7xx_HAL_Driver/Src/stm32h7xx_hal_rcc_ex.c:3742:5
	ldr	r0, [r7]
	ldr	r1, [r5, #24]
	bic	r0, r0, #32
	orr.w	r0, r0, r1
	str	r0, [r7]
	.loc	5 3745 5                        @ ../Drivers/STM32H7xx_HAL_Driver/Src/stm32h7xx_hal_rcc_ex.c:3745:5
	ldr	r0, [r7]
	movw	r1, #65528
	bic	r0, r0, #16
	str	r0, [r7]
	.loc	5 3748 5                        @ ../Drivers/STM32H7xx_HAL_Driver/Src/stm32h7xx_hal_rcc_ex.c:3748:5
	ldr	r0, [r7, #16]
	ldr	r2, [r5, #28]
	bic.w	r0, r0, r1
	mov.w	r1, #2097152
	orr.w	r0, r0, r2, lsl #3
	str	r0, [r7, #16]
	.loc	5 3751 5                        @ ../Drivers/STM32H7xx_HAL_Driver/Src/stm32h7xx_hal_rcc_ex.c:3751:5
	ldr	r0, [r7]
	.loc	5 3754 9                        @ ../Drivers/STM32H7xx_HAL_Driver/Src/stm32h7xx_hal_rcc_ex.c:3754:9
	it	eq
	moveq.w	r1, #1048576
	.loc	5 3751 5                        @ ../Drivers/STM32H7xx_HAL_Driver/Src/stm32h7xx_hal_rcc_ex.c:3751:5
	orr	r0, r0, #16
	.loc	5 3754 9                        @ ../Drivers/STM32H7xx_HAL_Driver/Src/stm32h7xx_hal_rcc_ex.c:3754:9
	cmp	r4, #0
	.loc	5 3751 5                        @ ../Drivers/STM32H7xx_HAL_Driver/Src/stm32h7xx_hal_rcc_ex.c:3751:5
	str	r0, [r7]
	.loc	5 3754 9                        @ ../Drivers/STM32H7xx_HAL_Driver/Src/stm32h7xx_hal_rcc_ex.c:3754:9
	it	eq
	moveq.w	r1, #524288
.Ltmp519:
	.loc	5 0 0 is_stmt 0                 @ ../Drivers/STM32H7xx_HAL_Driver/Src/stm32h7xx_hal_rcc_ex.c:0:0
	ldr	r0, [r7]
	orrs	r0, r1
	str	r0, [r7]
.Ltmp520:
	.loc	5 3768 5 is_stmt 1              @ ../Drivers/STM32H7xx_HAL_Driver/Src/stm32h7xx_hal_rcc_ex.c:3768:5
	ldr	r0, [r7, #-44]
	orr	r0, r0, #67108864
	str	r0, [r7, #-44]
	.loc	5 3771 17                       @ ../Drivers/STM32H7xx_HAL_Driver/Src/stm32h7xx_hal_rcc_ex.c:3771:17
	bl	HAL_GetTick
.Ltmp521:
	mov	r4, r0
.Ltmp522:
	@DEBUG_VALUE: RCCEx_PLL2_Config:tickstart <- $r4
	.p2align	2
.LBB1_6:                                @ =>This Inner Loop Header: Depth=1
	@DEBUG_VALUE: RCCEx_PLL2_Config:tickstart <- $r4
	@DEBUG_VALUE: RCCEx_PLL2_Config:pll2 <- $r5
	@DEBUG_VALUE: RCCEx_PLL2_Config:status <- 0
	.loc	5 3774 12                       @ ../Drivers/STM32H7xx_HAL_Driver/Src/stm32h7xx_hal_rcc_ex.c:3774:12
	ldr	r0, [r7, #-44]
	.loc	5 3774 5 is_stmt 0              @ ../Drivers/STM32H7xx_HAL_Driver/Src/stm32h7xx_hal_rcc_ex.c:3774:5
	lsls	r0, r0, #4
	bmi	.LBB1_9
.Ltmp523:
@ %bb.7:                                @   in Loop: Header=BB1_6 Depth=1
	@DEBUG_VALUE: RCCEx_PLL2_Config:tickstart <- $r4
	@DEBUG_VALUE: RCCEx_PLL2_Config:pll2 <- $r5
	@DEBUG_VALUE: RCCEx_PLL2_Config:status <- 0
	.loc	5 3776 12 is_stmt 1             @ ../Drivers/STM32H7xx_HAL_Driver/Src/stm32h7xx_hal_rcc_ex.c:3776:12
	bl	HAL_GetTick
.Ltmp524:
	.loc	5 3776 26 is_stmt 0             @ ../Drivers/STM32H7xx_HAL_Driver/Src/stm32h7xx_hal_rcc_ex.c:3776:26
	subs	r0, r0, r4
.Ltmp525:
	.loc	5 3776 11                       @ ../Drivers/STM32H7xx_HAL_Driver/Src/stm32h7xx_hal_rcc_ex.c:3776:11
	cmp	r0, #3
	blo	.LBB1_6
.Ltmp526:
.LBB1_8:
	@DEBUG_VALUE: RCCEx_PLL2_Config:pll2 <- $r5
	@DEBUG_VALUE: RCCEx_PLL2_Config:status <- 0
	.loc	5 0 11                          @ ../Drivers/STM32H7xx_HAL_Driver/Src/stm32h7xx_hal_rcc_ex.c:0:11
	movs	r0, #3
	.loc	5 3786 1 is_stmt 1              @ ../Drivers/STM32H7xx_HAL_Driver/Src/stm32h7xx_hal_rcc_ex.c:3786:1
	add	sp, #4
	pop	{r4, r5, r6, r7, pc}
.Ltmp527:
	.p2align	2
.LBB1_9:
	@DEBUG_VALUE: RCCEx_PLL2_Config:tickstart <- $r4
	@DEBUG_VALUE: RCCEx_PLL2_Config:pll2 <- $r5
	@DEBUG_VALUE: RCCEx_PLL2_Config:status <- 0
	.loc	5 0 1 is_stmt 0                 @ ../Drivers/STM32H7xx_HAL_Driver/Src/stm32h7xx_hal_rcc_ex.c:0:1
	movs	r0, #0
	.loc	5 3786 1                        @ ../Drivers/STM32H7xx_HAL_Driver/Src/stm32h7xx_hal_rcc_ex.c:3786:1
	add	sp, #4
	pop	{r4, r5, r6, r7, pc}
.Ltmp528:
.Lfunc_end1:
	.size	RCCEx_PLL2_Config, .Lfunc_end1-RCCEx_PLL2_Config
	.cfi_endproc
	.cantunwind
	.fnend
                                        @ -- End function
	.p2align	3                               @ -- Begin function RCCEx_PLL3_Config
	.type	RCCEx_PLL3_Config,%function
	.code	16                              @ @RCCEx_PLL3_Config
	.thumb_func
RCCEx_PLL3_Config:
.Lfunc_begin2:
	.loc	5 3799 0 is_stmt 1              @ ../Drivers/STM32H7xx_HAL_Driver/Src/stm32h7xx_hal_rcc_ex.c:3799:0
	.fnstart
	.cfi_startproc
@ %bb.0:
	@DEBUG_VALUE: RCCEx_PLL3_Config:pll3 <- $r0
	@DEBUG_VALUE: RCCEx_PLL3_Config:Divider <- $r1
	.save	{r4, r5, r6, r7, lr}
	push	{r4, r5, r6, r7, lr}
	.cfi_def_cfa_offset 20
	.cfi_offset lr, -4
	.cfi_offset r7, -8
	.cfi_offset r6, -12
	.cfi_offset r5, -16
	.cfi_offset r4, -20
	.pad	#4
	sub	sp, #4
	.cfi_def_cfa_offset 24
	movw	r7, #17452
	movt	r7, #22530
.Ltmp529:
	@DEBUG_VALUE: RCCEx_PLL3_Config:status <- 0
	.loc	5 3812 7 prologue_end           @ ../Drivers/STM32H7xx_HAL_Driver/Src/stm32h7xx_hal_rcc_ex.c:3812:7
	ldr	r2, [r7, #-4]
	and	r2, r2, #3
.Ltmp530:
	.loc	5 3812 7 is_stmt 0              @ ../Drivers/STM32H7xx_HAL_Driver/Src/stm32h7xx_hal_rcc_ex.c:3812:7
	cmp	r2, #3
	@DEBUG_VALUE: RCCEx_PLL3_Config:Divider <- $r1
	@DEBUG_VALUE: RCCEx_PLL3_Config:pll3 <- $r0
	bne	.LBB2_2
.Ltmp531:
@ %bb.1:
	@DEBUG_VALUE: RCCEx_PLL3_Config:status <- 0
	@DEBUG_VALUE: RCCEx_PLL3_Config:Divider <- $r1
	@DEBUG_VALUE: RCCEx_PLL3_Config:pll3 <- $r0
	.loc	5 0 7                           @ ../Drivers/STM32H7xx_HAL_Driver/Src/stm32h7xx_hal_rcc_ex.c:0:7
	movs	r0, #1
.Ltmp532:
	.loc	5 3889 1 is_stmt 1              @ ../Drivers/STM32H7xx_HAL_Driver/Src/stm32h7xx_hal_rcc_ex.c:3889:1
	add	sp, #4
	pop	{r4, r5, r6, r7, pc}
.Ltmp533:
	.p2align	2
.LBB2_2:
	@DEBUG_VALUE: RCCEx_PLL3_Config:status <- 0
	@DEBUG_VALUE: RCCEx_PLL3_Config:Divider <- $r1
	@DEBUG_VALUE: RCCEx_PLL3_Config:pll3 <- $r0
	.loc	5 0 1 is_stmt 0                 @ ../Drivers/STM32H7xx_HAL_Driver/Src/stm32h7xx_hal_rcc_ex.c:0:1
	mov	r5, r0
.Ltmp534:
	@DEBUG_VALUE: RCCEx_PLL3_Config:pll3 <- $r5
	@DEBUG_VALUE: RCCEx_PLL3_Config:pll3 <- $r5
	.loc	5 3821 5 is_stmt 1              @ ../Drivers/STM32H7xx_HAL_Driver/Src/stm32h7xx_hal_rcc_ex.c:3821:5
	ldr	r0, [r7, #-44]
	mov	r4, r1
.Ltmp535:
	@DEBUG_VALUE: RCCEx_PLL3_Config:Divider <- $r4
	@DEBUG_VALUE: RCCEx_PLL3_Config:Divider <- $r4
	bic	r0, r0, #268435456
	str	r0, [r7, #-44]
	.loc	5 3824 17                       @ ../Drivers/STM32H7xx_HAL_Driver/Src/stm32h7xx_hal_rcc_ex.c:3824:17
	bl	HAL_GetTick
.Ltmp536:
	mov	r6, r0
.Ltmp537:
	@DEBUG_VALUE: RCCEx_PLL3_Config:tickstart <- $r6
	.p2align	2
.LBB2_3:                                @ =>This Inner Loop Header: Depth=1
	@DEBUG_VALUE: RCCEx_PLL3_Config:tickstart <- $r6
	@DEBUG_VALUE: RCCEx_PLL3_Config:Divider <- $r4
	@DEBUG_VALUE: RCCEx_PLL3_Config:pll3 <- $r5
	@DEBUG_VALUE: RCCEx_PLL3_Config:status <- 0
	.loc	5 3826 12                       @ ../Drivers/STM32H7xx_HAL_Driver/Src/stm32h7xx_hal_rcc_ex.c:3826:12
	ldr	r0, [r7, #-44]
	.loc	5 3826 5 is_stmt 0              @ ../Drivers/STM32H7xx_HAL_Driver/Src/stm32h7xx_hal_rcc_ex.c:3826:5
	lsls	r0, r0, #2
	bpl	.LBB2_5
.Ltmp538:
@ %bb.4:                                @   in Loop: Header=BB2_3 Depth=1
	@DEBUG_VALUE: RCCEx_PLL3_Config:tickstart <- $r6
	@DEBUG_VALUE: RCCEx_PLL3_Config:Divider <- $r4
	@DEBUG_VALUE: RCCEx_PLL3_Config:pll3 <- $r5
	@DEBUG_VALUE: RCCEx_PLL3_Config:status <- 0
	.loc	5 3828 12 is_stmt 1             @ ../Drivers/STM32H7xx_HAL_Driver/Src/stm32h7xx_hal_rcc_ex.c:3828:12
	bl	HAL_GetTick
.Ltmp539:
	.loc	5 3828 26 is_stmt 0             @ ../Drivers/STM32H7xx_HAL_Driver/Src/stm32h7xx_hal_rcc_ex.c:3828:26
	subs	r0, r0, r6
.Ltmp540:
	.loc	5 3828 11                       @ ../Drivers/STM32H7xx_HAL_Driver/Src/stm32h7xx_hal_rcc_ex.c:3828:11
	cmp	r0, #2
	bls	.LBB2_3
	b	.LBB2_8
.Ltmp541:
	.p2align	2
.LBB2_5:
	@DEBUG_VALUE: RCCEx_PLL3_Config:tickstart <- $r6
	@DEBUG_VALUE: RCCEx_PLL3_Config:Divider <- $r4
	@DEBUG_VALUE: RCCEx_PLL3_Config:pll3 <- $r5
	@DEBUG_VALUE: RCCEx_PLL3_Config:status <- 0
	.loc	5 3835 5 is_stmt 1              @ ../Drivers/STM32H7xx_HAL_Driver/Src/stm32h7xx_hal_rcc_ex.c:3835:5
	ldr	r0, [r7, #-4]
	ldr	r6, [r5, #12]
.Ltmp542:
	ldm.w	r5, {r1, r2, r3}
	bic	r0, r0, #66060288
.Ltmp543:
	.loc	5 3857 9                        @ ../Drivers/STM32H7xx_HAL_Driver/Src/stm32h7xx_hal_rcc_ex.c:3857:9
	cmp	r4, #1
.Ltmp544:
	.loc	5 3835 5                        @ ../Drivers/STM32H7xx_HAL_Driver/Src/stm32h7xx_hal_rcc_ex.c:3835:5
	orr.w	r0, r0, r1, lsl #20
	sub.w	r1, r2, #1
	bfc	r1, #9, #23
	mov.w	r2, #65024
	add.w	r2, r2, r3, lsl #9
	str	r0, [r7, #-4]
	uxth	r2, r2
	mov.w	r3, #2130706432
	add.w	r0, r2, r1
	mov.w	r1, #8323072
	ldr	r2, [r5, #16]
	add.w	r1, r1, r6, lsl #16
	and	r1, r1, #8323072
	add.w	r2, r3, r2, lsl #24
	add	r0, r1
	and	r1, r2, #2130706432
	add	r0, r1
	str	r0, [r7, #20]
.Ltmp545:
	.loc	5 3842 5                        @ ../Drivers/STM32H7xx_HAL_Driver/Src/stm32h7xx_hal_rcc_ex.c:3842:5
	ldr	r0, [r7]
	ldr	r1, [r5, #20]
	bic	r0, r0, #3072
	orr.w	r0, r0, r1
	str	r0, [r7]
	.loc	5 3845 5                        @ ../Drivers/STM32H7xx_HAL_Driver/Src/stm32h7xx_hal_rcc_ex.c:3845:5
	ldr	r0, [r7]
	ldr	r1, [r5, #24]
	bic	r0, r0, #512
	orr.w	r0, r0, r1
	str	r0, [r7]
	.loc	5 3848 5                        @ ../Drivers/STM32H7xx_HAL_Driver/Src/stm32h7xx_hal_rcc_ex.c:3848:5
	ldr	r0, [r7]
	movw	r1, #65528
	bic	r0, r0, #256
	str	r0, [r7]
	.loc	5 3851 5                        @ ../Drivers/STM32H7xx_HAL_Driver/Src/stm32h7xx_hal_rcc_ex.c:3851:5
	ldr	r0, [r7, #24]
	ldr	r2, [r5, #28]
	bic.w	r0, r0, r1
	mov.w	r1, #16777216
	orr.w	r0, r0, r2, lsl #3
	str	r0, [r7, #24]
	.loc	5 3854 5                        @ ../Drivers/STM32H7xx_HAL_Driver/Src/stm32h7xx_hal_rcc_ex.c:3854:5
	ldr	r0, [r7]
	.loc	5 3857 9                        @ ../Drivers/STM32H7xx_HAL_Driver/Src/stm32h7xx_hal_rcc_ex.c:3857:9
	it	eq
	moveq.w	r1, #8388608
	.loc	5 3854 5                        @ ../Drivers/STM32H7xx_HAL_Driver/Src/stm32h7xx_hal_rcc_ex.c:3854:5
	orr	r0, r0, #256
	.loc	5 3857 9                        @ ../Drivers/STM32H7xx_HAL_Driver/Src/stm32h7xx_hal_rcc_ex.c:3857:9
	cmp	r4, #0
	.loc	5 3854 5                        @ ../Drivers/STM32H7xx_HAL_Driver/Src/stm32h7xx_hal_rcc_ex.c:3854:5
	str	r0, [r7]
	.loc	5 3857 9                        @ ../Drivers/STM32H7xx_HAL_Driver/Src/stm32h7xx_hal_rcc_ex.c:3857:9
	it	eq
	moveq.w	r1, #4194304
.Ltmp546:
	.loc	5 0 0 is_stmt 0                 @ ../Drivers/STM32H7xx_HAL_Driver/Src/stm32h7xx_hal_rcc_ex.c:0:0
	ldr	r0, [r7]
	orrs	r0, r1
	str	r0, [r7]
.Ltmp547:
	.loc	5 3871 5 is_stmt 1              @ ../Drivers/STM32H7xx_HAL_Driver/Src/stm32h7xx_hal_rcc_ex.c:3871:5
	ldr	r0, [r7, #-44]
	orr	r0, r0, #268435456
	str	r0, [r7, #-44]
	.loc	5 3874 17                       @ ../Drivers/STM32H7xx_HAL_Driver/Src/stm32h7xx_hal_rcc_ex.c:3874:17
	bl	HAL_GetTick
.Ltmp548:
	mov	r4, r0
.Ltmp549:
	@DEBUG_VALUE: RCCEx_PLL3_Config:tickstart <- $r4
	.p2align	2
.LBB2_6:                                @ =>This Inner Loop Header: Depth=1
	@DEBUG_VALUE: RCCEx_PLL3_Config:tickstart <- $r4
	@DEBUG_VALUE: RCCEx_PLL3_Config:pll3 <- $r5
	@DEBUG_VALUE: RCCEx_PLL3_Config:status <- 0
	.loc	5 3877 12                       @ ../Drivers/STM32H7xx_HAL_Driver/Src/stm32h7xx_hal_rcc_ex.c:3877:12
	ldr	r0, [r7, #-44]
	.loc	5 3877 5 is_stmt 0              @ ../Drivers/STM32H7xx_HAL_Driver/Src/stm32h7xx_hal_rcc_ex.c:3877:5
	lsls	r0, r0, #2
	bmi	.LBB2_9
.Ltmp550:
@ %bb.7:                                @   in Loop: Header=BB2_6 Depth=1
	@DEBUG_VALUE: RCCEx_PLL3_Config:tickstart <- $r4
	@DEBUG_VALUE: RCCEx_PLL3_Config:pll3 <- $r5
	@DEBUG_VALUE: RCCEx_PLL3_Config:status <- 0
	.loc	5 3879 12 is_stmt 1             @ ../Drivers/STM32H7xx_HAL_Driver/Src/stm32h7xx_hal_rcc_ex.c:3879:12
	bl	HAL_GetTick
.Ltmp551:
	.loc	5 3879 26 is_stmt 0             @ ../Drivers/STM32H7xx_HAL_Driver/Src/stm32h7xx_hal_rcc_ex.c:3879:26
	subs	r0, r0, r4
.Ltmp552:
	.loc	5 3879 11                       @ ../Drivers/STM32H7xx_HAL_Driver/Src/stm32h7xx_hal_rcc_ex.c:3879:11
	cmp	r0, #3
	blo	.LBB2_6
.Ltmp553:
.LBB2_8:
	@DEBUG_VALUE: RCCEx_PLL3_Config:pll3 <- $r5
	@DEBUG_VALUE: RCCEx_PLL3_Config:status <- 0
	.loc	5 0 11                          @ ../Drivers/STM32H7xx_HAL_Driver/Src/stm32h7xx_hal_rcc_ex.c:0:11
	movs	r0, #3
	.loc	5 3889 1 is_stmt 1              @ ../Drivers/STM32H7xx_HAL_Driver/Src/stm32h7xx_hal_rcc_ex.c:3889:1
	add	sp, #4
	pop	{r4, r5, r6, r7, pc}
.Ltmp554:
	.p2align	2
.LBB2_9:
	@DEBUG_VALUE: RCCEx_PLL3_Config:tickstart <- $r4
	@DEBUG_VALUE: RCCEx_PLL3_Config:pll3 <- $r5
	@DEBUG_VALUE: RCCEx_PLL3_Config:status <- 0
	.loc	5 0 1 is_stmt 0                 @ ../Drivers/STM32H7xx_HAL_Driver/Src/stm32h7xx_hal_rcc_ex.c:0:1
	movs	r0, #0
	.loc	5 3889 1                        @ ../Drivers/STM32H7xx_HAL_Driver/Src/stm32h7xx_hal_rcc_ex.c:3889:1
	add	sp, #4
	pop	{r4, r5, r6, r7, pc}
.Ltmp555:
.Lfunc_end2:
	.size	RCCEx_PLL3_Config, .Lfunc_end2-RCCEx_PLL3_Config
	.cfi_endproc
	.cantunwind
	.fnend
                                        @ -- End function
	.hidden	HAL_RCCEx_GetPeriphCLKConfig    @ -- Begin function HAL_RCCEx_GetPeriphCLKConfig
	.globl	HAL_RCCEx_GetPeriphCLKConfig
	.p2align	3
	.type	HAL_RCCEx_GetPeriphCLKConfig,%function
	.code	16                              @ @HAL_RCCEx_GetPeriphCLKConfig
	.thumb_func
HAL_RCCEx_GetPeriphCLKConfig:
.Lfunc_begin3:
	.loc	5 1693 0 is_stmt 1              @ ../Drivers/STM32H7xx_HAL_Driver/Src/stm32h7xx_hal_rcc_ex.c:1693:0
	.fnstart
	.cfi_startproc
@ %bb.0:
	@DEBUG_VALUE: HAL_RCCEx_GetPeriphCLKConfig:PeriphClkInit <- $r0
	movs	r1, #0
.Ltmp556:
	.loc	5 1735 39 prologue_end          @ ../Drivers/STM32H7xx_HAL_Driver/Src/stm32h7xx_hal_rcc_ex.c:1735:39
	str	r1, [r0, #4]
	mvn	r1, #67108864
	str	r1, [r0]
	movw	r1, #17488
	movt	r1, #22530
	.loc	5 1742 48                       @ ../Drivers/STM32H7xx_HAL_Driver/Src/stm32h7xx_hal_rcc_ex.c:1742:48
	ldr	r2, [r1, #-40]
	.loc	5 1742 81 is_stmt 0             @ ../Drivers/STM32H7xx_HAL_Driver/Src/stm32h7xx_hal_rcc_ex.c:1742:81
	ubfx	r2, r2, #20, #6
	.loc	5 1742 29                       @ ../Drivers/STM32H7xx_HAL_Driver/Src/stm32h7xx_hal_rcc_ex.c:1742:29
	str	r2, [r0, #40]
	.loc	5 1743 48 is_stmt 1             @ ../Drivers/STM32H7xx_HAL_Driver/Src/stm32h7xx_hal_rcc_ex.c:1743:48
	ldr	r2, [r1, #-16]
	.loc	5 1743 57 is_stmt 0             @ ../Drivers/STM32H7xx_HAL_Driver/Src/stm32h7xx_hal_rcc_ex.c:1743:57
	bfc	r2, #9, #23
	.loc	5 1743 100                      @ ../Drivers/STM32H7xx_HAL_Driver/Src/stm32h7xx_hal_rcc_ex.c:1743:100
	adds	r2, #1
	.loc	5 1743 29                       @ ../Drivers/STM32H7xx_HAL_Driver/Src/stm32h7xx_hal_rcc_ex.c:1743:29
	str	r2, [r0, #44]
	.loc	5 1744 48 is_stmt 1             @ ../Drivers/STM32H7xx_HAL_Driver/Src/stm32h7xx_hal_rcc_ex.c:1744:48
	ldr	r2, [r1, #-16]
	.loc	5 1744 76 is_stmt 0             @ ../Drivers/STM32H7xx_HAL_Driver/Src/stm32h7xx_hal_rcc_ex.c:1744:76
	ubfx	r2, r2, #24, #7
	.loc	5 1744 100                      @ ../Drivers/STM32H7xx_HAL_Driver/Src/stm32h7xx_hal_rcc_ex.c:1744:100
	adds	r2, #1
	.loc	5 1744 29                       @ ../Drivers/STM32H7xx_HAL_Driver/Src/stm32h7xx_hal_rcc_ex.c:1744:29
	str	r2, [r0, #56]
	.loc	5 1745 48 is_stmt 1             @ ../Drivers/STM32H7xx_HAL_Driver/Src/stm32h7xx_hal_rcc_ex.c:1745:48
	ldr	r2, [r1, #-16]
	.loc	5 1745 76 is_stmt 0             @ ../Drivers/STM32H7xx_HAL_Driver/Src/stm32h7xx_hal_rcc_ex.c:1745:76
	ubfx	r2, r2, #9, #7
	.loc	5 1745 100                      @ ../Drivers/STM32H7xx_HAL_Driver/Src/stm32h7xx_hal_rcc_ex.c:1745:100
	adds	r2, #1
	.loc	5 1745 29                       @ ../Drivers/STM32H7xx_HAL_Driver/Src/stm32h7xx_hal_rcc_ex.c:1745:29
	str	r2, [r0, #48]
	.loc	5 1746 48 is_stmt 1             @ ../Drivers/STM32H7xx_HAL_Driver/Src/stm32h7xx_hal_rcc_ex.c:1746:48
	ldr	r2, [r1, #-16]
	.loc	5 1746 76 is_stmt 0             @ ../Drivers/STM32H7xx_HAL_Driver/Src/stm32h7xx_hal_rcc_ex.c:1746:76
	ubfx	r2, r2, #16, #7
	.loc	5 1746 100                      @ ../Drivers/STM32H7xx_HAL_Driver/Src/stm32h7xx_hal_rcc_ex.c:1746:100
	adds	r2, #1
	.loc	5 1746 29                       @ ../Drivers/STM32H7xx_HAL_Driver/Src/stm32h7xx_hal_rcc_ex.c:1746:29
	str	r2, [r0, #52]
	.loc	5 1747 50 is_stmt 1             @ ../Drivers/STM32H7xx_HAL_Driver/Src/stm32h7xx_hal_rcc_ex.c:1747:50
	ldr	r2, [r1, #-36]
	.loc	5 1747 81 is_stmt 0             @ ../Drivers/STM32H7xx_HAL_Driver/Src/stm32h7xx_hal_rcc_ex.c:1747:81
	ubfx	r2, r2, #10, #2
	.loc	5 1747 31                       @ ../Drivers/STM32H7xx_HAL_Driver/Src/stm32h7xx_hal_rcc_ex.c:1747:31
	str	r2, [r0, #60]
	.loc	5 1748 53 is_stmt 1             @ ../Drivers/STM32H7xx_HAL_Driver/Src/stm32h7xx_hal_rcc_ex.c:1748:53
	ldr	r2, [r1, #-36]
	.loc	5 1748 87 is_stmt 0             @ ../Drivers/STM32H7xx_HAL_Driver/Src/stm32h7xx_hal_rcc_ex.c:1748:87
	ubfx	r2, r2, #9, #1
	.loc	5 1748 34                       @ ../Drivers/STM32H7xx_HAL_Driver/Src/stm32h7xx_hal_rcc_ex.c:1748:34
	str	r2, [r0, #64]
	.loc	5 1751 48 is_stmt 1             @ ../Drivers/STM32H7xx_HAL_Driver/Src/stm32h7xx_hal_rcc_ex.c:1751:48
	ldr	r2, [r1, #-40]
	.loc	5 1751 81 is_stmt 0             @ ../Drivers/STM32H7xx_HAL_Driver/Src/stm32h7xx_hal_rcc_ex.c:1751:81
	ubfx	r2, r2, #12, #6
	.loc	5 1751 29                       @ ../Drivers/STM32H7xx_HAL_Driver/Src/stm32h7xx_hal_rcc_ex.c:1751:29
	str	r2, [r0, #8]
	.loc	5 1752 48 is_stmt 1             @ ../Drivers/STM32H7xx_HAL_Driver/Src/stm32h7xx_hal_rcc_ex.c:1752:48
	ldr	r2, [r1, #-24]
	.loc	5 1752 57 is_stmt 0             @ ../Drivers/STM32H7xx_HAL_Driver/Src/stm32h7xx_hal_rcc_ex.c:1752:57
	bfc	r2, #9, #23
	.loc	5 1752 100                      @ ../Drivers/STM32H7xx_HAL_Driver/Src/stm32h7xx_hal_rcc_ex.c:1752:100
	adds	r2, #1
	.loc	5 1752 29                       @ ../Drivers/STM32H7xx_HAL_Driver/Src/stm32h7xx_hal_rcc_ex.c:1752:29
	str	r2, [r0, #12]
	.loc	5 1753 48 is_stmt 1             @ ../Drivers/STM32H7xx_HAL_Driver/Src/stm32h7xx_hal_rcc_ex.c:1753:48
	ldr	r2, [r1, #-24]
	.loc	5 1753 76 is_stmt 0             @ ../Drivers/STM32H7xx_HAL_Driver/Src/stm32h7xx_hal_rcc_ex.c:1753:76
	ubfx	r2, r2, #24, #7
	.loc	5 1753 100                      @ ../Drivers/STM32H7xx_HAL_Driver/Src/stm32h7xx_hal_rcc_ex.c:1753:100
	adds	r2, #1
	.loc	5 1753 29                       @ ../Drivers/STM32H7xx_HAL_Driver/Src/stm32h7xx_hal_rcc_ex.c:1753:29
	str	r2, [r0, #24]
	.loc	5 1754 48 is_stmt 1             @ ../Drivers/STM32H7xx_HAL_Driver/Src/stm32h7xx_hal_rcc_ex.c:1754:48
	ldr	r2, [r1, #-24]
	.loc	5 1754 76 is_stmt 0             @ ../Drivers/STM32H7xx_HAL_Driver/Src/stm32h7xx_hal_rcc_ex.c:1754:76
	ubfx	r2, r2, #9, #7
	.loc	5 1754 100                      @ ../Drivers/STM32H7xx_HAL_Driver/Src/stm32h7xx_hal_rcc_ex.c:1754:100
	adds	r2, #1
	.loc	5 1754 29                       @ ../Drivers/STM32H7xx_HAL_Driver/Src/stm32h7xx_hal_rcc_ex.c:1754:29
	str	r2, [r0, #16]
	.loc	5 1755 48 is_stmt 1             @ ../Drivers/STM32H7xx_HAL_Driver/Src/stm32h7xx_hal_rcc_ex.c:1755:48
	ldr	r2, [r1, #-24]
	.loc	5 1755 76 is_stmt 0             @ ../Drivers/STM32H7xx_HAL_Driver/Src/stm32h7xx_hal_rcc_ex.c:1755:76
	ubfx	r2, r2, #16, #7
	.loc	5 1755 100                      @ ../Drivers/STM32H7xx_HAL_Driver/Src/stm32h7xx_hal_rcc_ex.c:1755:100
	adds	r2, #1
	.loc	5 1755 29                       @ ../Drivers/STM32H7xx_HAL_Driver/Src/stm32h7xx_hal_rcc_ex.c:1755:29
	str	r2, [r0, #20]
	.loc	5 1756 50 is_stmt 1             @ ../Drivers/STM32H7xx_HAL_Driver/Src/stm32h7xx_hal_rcc_ex.c:1756:50
	ldr	r2, [r1, #-36]
	.loc	5 1756 81 is_stmt 0             @ ../Drivers/STM32H7xx_HAL_Driver/Src/stm32h7xx_hal_rcc_ex.c:1756:81
	ubfx	r2, r2, #6, #2
	.loc	5 1756 31                       @ ../Drivers/STM32H7xx_HAL_Driver/Src/stm32h7xx_hal_rcc_ex.c:1756:31
	str	r2, [r0, #28]
	.loc	5 1757 53 is_stmt 1             @ ../Drivers/STM32H7xx_HAL_Driver/Src/stm32h7xx_hal_rcc_ex.c:1757:53
	ldr	r2, [r1, #-36]
	.loc	5 1757 87 is_stmt 0             @ ../Drivers/STM32H7xx_HAL_Driver/Src/stm32h7xx_hal_rcc_ex.c:1757:87
	ubfx	r2, r2, #5, #1
	.loc	5 1757 34                       @ ../Drivers/STM32H7xx_HAL_Driver/Src/stm32h7xx_hal_rcc_ex.c:1757:34
	str	r2, [r0, #32]
	.loc	5 1760 47 is_stmt 1             @ ../Drivers/STM32H7xx_HAL_Driver/Src/stm32h7xx_hal_rcc_ex.c:1760:47
	ldr	r2, [r1, #4]
	and	r2, r2, #56
	.loc	5 1760 45 is_stmt 0             @ ../Drivers/STM32H7xx_HAL_Driver/Src/stm32h7xx_hal_rcc_ex.c:1760:45
	str	r2, [r0, #124]
	.loc	5 1762 47 is_stmt 1             @ ../Drivers/STM32H7xx_HAL_Driver/Src/stm32h7xx_hal_rcc_ex.c:1762:47
	ldr	r2, [r1, #4]
	and	r2, r2, #7
	.loc	5 1762 45 is_stmt 0             @ ../Drivers/STM32H7xx_HAL_Driver/Src/stm32h7xx_hal_rcc_ex.c:1762:45
	str	r2, [r0, #120]
	.loc	5 1764 47 is_stmt 1             @ ../Drivers/STM32H7xx_HAL_Driver/Src/stm32h7xx_hal_rcc_ex.c:1764:47
	ldr	r2, [r1, #8]
	and	r2, r2, #7
	.loc	5 1764 45 is_stmt 0             @ ../Drivers/STM32H7xx_HAL_Driver/Src/stm32h7xx_hal_rcc_ex.c:1764:45
	str.w	r2, [r0, #148]
	.loc	5 1770 47 is_stmt 1             @ ../Drivers/STM32H7xx_HAL_Driver/Src/stm32h7xx_hal_rcc_ex.c:1770:47
	ldr	r2, [r1, #4]
	and	r2, r2, #12288
	.loc	5 1770 45 is_stmt 0             @ ../Drivers/STM32H7xx_HAL_Driver/Src/stm32h7xx_hal_rcc_ex.c:1770:45
	str.w	r2, [r0, #132]
	.loc	5 1773 47 is_stmt 1             @ ../Drivers/STM32H7xx_HAL_Driver/Src/stm32h7xx_hal_rcc_ex.c:1773:47
	ldr	r2, [r1, #4]
	and	r2, r2, #1879048192
	.loc	5 1773 45 is_stmt 0             @ ../Drivers/STM32H7xx_HAL_Driver/Src/stm32h7xx_hal_rcc_ex.c:1773:45
	str.w	r2, [r0, #144]
	.loc	5 1775 47 is_stmt 1             @ ../Drivers/STM32H7xx_HAL_Driver/Src/stm32h7xx_hal_rcc_ex.c:1775:47
	ldr	r2, [r1, #8]
	and	r2, r2, #7168
	.loc	5 1775 45 is_stmt 0             @ ../Drivers/STM32H7xx_HAL_Driver/Src/stm32h7xx_hal_rcc_ex.c:1775:45
	str.w	r2, [r0, #156]
	.loc	5 1777 47 is_stmt 1             @ ../Drivers/STM32H7xx_HAL_Driver/Src/stm32h7xx_hal_rcc_ex.c:1777:47
	ldr	r2, [r1, #8]
	and	r2, r2, #57344
	.loc	5 1777 45 is_stmt 0             @ ../Drivers/STM32H7xx_HAL_Driver/Src/stm32h7xx_hal_rcc_ex.c:1777:45
	str.w	r2, [r0, #160]
	.loc	5 1779 47 is_stmt 1             @ ../Drivers/STM32H7xx_HAL_Driver/Src/stm32h7xx_hal_rcc_ex.c:1779:47
	ldr	r2, [r1]
	and	r2, r2, #7
	.loc	5 1779 45 is_stmt 0             @ ../Drivers/STM32H7xx_HAL_Driver/Src/stm32h7xx_hal_rcc_ex.c:1779:45
	str	r2, [r0, #88]
	.loc	5 1782 47 is_stmt 1             @ ../Drivers/STM32H7xx_HAL_Driver/Src/stm32h7xx_hal_rcc_ex.c:1782:47
	ldr	r2, [r1]
	and	r2, r2, #448
	.loc	5 1782 45 is_stmt 0             @ ../Drivers/STM32H7xx_HAL_Driver/Src/stm32h7xx_hal_rcc_ex.c:1782:45
	str	r2, [r0, #92]
	.loc	5 1794 47 is_stmt 1             @ ../Drivers/STM32H7xx_HAL_Driver/Src/stm32h7xx_hal_rcc_ex.c:1794:47
	ldr	r2, [r1, #8]
	and	r2, r2, #14680064
	.loc	5 1794 45 is_stmt 0             @ ../Drivers/STM32H7xx_HAL_Driver/Src/stm32h7xx_hal_rcc_ex.c:1794:45
	str.w	r2, [r0, #168]
	.loc	5 1796 47 is_stmt 1             @ ../Drivers/STM32H7xx_HAL_Driver/Src/stm32h7xx_hal_rcc_ex.c:1796:47
	ldr	r2, [r1, #8]
	and	r2, r2, #117440512
	.loc	5 1796 45 is_stmt 0             @ ../Drivers/STM32H7xx_HAL_Driver/Src/stm32h7xx_hal_rcc_ex.c:1796:45
	str.w	r2, [r0, #172]
	.loc	5 1799 47 is_stmt 1             @ ../Drivers/STM32H7xx_HAL_Driver/Src/stm32h7xx_hal_rcc_ex.c:1799:47
	ldr	r2, [r1, #32]
	and	r2, r2, #768
	.loc	5 1799 45 is_stmt 0             @ ../Drivers/STM32H7xx_HAL_Driver/Src/stm32h7xx_hal_rcc_ex.c:1799:45
	str.w	r2, [r0, #180]
	.loc	5 1801 47 is_stmt 1             @ ../Drivers/STM32H7xx_HAL_Driver/Src/stm32h7xx_hal_rcc_ex.c:1801:47
	ldr	r2, [r1, #4]
	and	r2, r2, #3145728
	.loc	5 1801 45 is_stmt 0             @ ../Drivers/STM32H7xx_HAL_Driver/Src/stm32h7xx_hal_rcc_ex.c:1801:45
	str.w	r2, [r0, #136]
	.loc	5 1803 47 is_stmt 1             @ ../Drivers/STM32H7xx_HAL_Driver/Src/stm32h7xx_hal_rcc_ex.c:1803:47
	ldr	r2, [r1, #-4]
	and	r2, r2, #65536
	.loc	5 1803 45 is_stmt 0             @ ../Drivers/STM32H7xx_HAL_Driver/Src/stm32h7xx_hal_rcc_ex.c:1803:45
	str	r2, [r0, #80]
	.loc	5 1805 47 is_stmt 1             @ ../Drivers/STM32H7xx_HAL_Driver/Src/stm32h7xx_hal_rcc_ex.c:1805:47
	ldr	r2, [r1, #4]
	and	r2, r2, #768
	.loc	5 1805 45 is_stmt 0             @ ../Drivers/STM32H7xx_HAL_Driver/Src/stm32h7xx_hal_rcc_ex.c:1805:45
	str.w	r2, [r0, #128]
	.loc	5 1808 47 is_stmt 1             @ ../Drivers/STM32H7xx_HAL_Driver/Src/stm32h7xx_hal_rcc_ex.c:1808:47
	ldr	r2, [r1, #-64]
	and	r2, r2, #16384
	.loc	5 1808 45 is_stmt 0             @ ../Drivers/STM32H7xx_HAL_Driver/Src/stm32h7xx_hal_rcc_ex.c:1808:45
	str.w	r2, [r0, #184]
	.loc	5 1811 47 is_stmt 1             @ ../Drivers/STM32H7xx_HAL_Driver/Src/stm32h7xx_hal_rcc_ex.c:1811:47
	ldr	r2, [r1, #8]
	and	r2, r2, #196608
	.loc	5 1811 45 is_stmt 0             @ ../Drivers/STM32H7xx_HAL_Driver/Src/stm32h7xx_hal_rcc_ex.c:1811:45
	str.w	r2, [r0, #164]
	.loc	5 1813 47 is_stmt 1             @ ../Drivers/STM32H7xx_HAL_Driver/Src/stm32h7xx_hal_rcc_ex.c:1813:47
	ldr	r2, [r1]
	and	r2, r2, #-2147483648
	.loc	5 1813 45 is_stmt 0             @ ../Drivers/STM32H7xx_HAL_Driver/Src/stm32h7xx_hal_rcc_ex.c:1813:45
	str	r2, [r0, #116]
	.loc	5 1815 47 is_stmt 1             @ ../Drivers/STM32H7xx_HAL_Driver/Src/stm32h7xx_hal_rcc_ex.c:1815:47
	ldr	r2, [r1]
	and	r2, r2, #16777216
	.loc	5 1815 45 is_stmt 0             @ ../Drivers/STM32H7xx_HAL_Driver/Src/stm32h7xx_hal_rcc_ex.c:1815:45
	str	r2, [r0, #108]
	.loc	5 1821 47 is_stmt 1             @ ../Drivers/STM32H7xx_HAL_Driver/Src/stm32h7xx_hal_rcc_ex.c:1821:47
	ldr	r2, [r1]
	and	r2, r2, #3145728
	.loc	5 1821 45 is_stmt 0             @ ../Drivers/STM32H7xx_HAL_Driver/Src/stm32h7xx_hal_rcc_ex.c:1821:45
	str	r2, [r0, #104]
	.loc	5 1823 47 is_stmt 1             @ ../Drivers/STM32H7xx_HAL_Driver/Src/stm32h7xx_hal_rcc_ex.c:1823:47
	ldr	r2, [r1]
	and	r2, r2, #28672
	.loc	5 1823 45 is_stmt 0             @ ../Drivers/STM32H7xx_HAL_Driver/Src/stm32h7xx_hal_rcc_ex.c:1823:45
	str	r2, [r0, #96]
	.loc	5 1825 47 is_stmt 1             @ ../Drivers/STM32H7xx_HAL_Driver/Src/stm32h7xx_hal_rcc_ex.c:1825:47
	ldr	r2, [r1]
	and	r2, r2, #458752
	.loc	5 1825 45 is_stmt 0             @ ../Drivers/STM32H7xx_HAL_Driver/Src/stm32h7xx_hal_rcc_ex.c:1825:45
	str	r2, [r0, #100]
	.loc	5 1827 47 is_stmt 1             @ ../Drivers/STM32H7xx_HAL_Driver/Src/stm32h7xx_hal_rcc_ex.c:1827:47
	ldr	r2, [r1, #8]
	and	r2, r2, #1879048192
	.loc	5 1827 45 is_stmt 0             @ ../Drivers/STM32H7xx_HAL_Driver/Src/stm32h7xx_hal_rcc_ex.c:1827:45
	str.w	r2, [r0, #176]
	.loc	5 1829 47 is_stmt 1             @ ../Drivers/STM32H7xx_HAL_Driver/Src/stm32h7xx_hal_rcc_ex.c:1829:47
	ldr	r2, [r1]
	and	r2, r2, #805306368
	.loc	5 1829 45 is_stmt 0             @ ../Drivers/STM32H7xx_HAL_Driver/Src/stm32h7xx_hal_rcc_ex.c:1829:45
	str	r2, [r0, #112]
	.loc	5 1831 47 is_stmt 1             @ ../Drivers/STM32H7xx_HAL_Driver/Src/stm32h7xx_hal_rcc_ex.c:1831:47
	ldr	r2, [r1, #4]
	and	r2, r2, #12582912
	.loc	5 1831 45 is_stmt 0             @ ../Drivers/STM32H7xx_HAL_Driver/Src/stm32h7xx_hal_rcc_ex.c:1831:45
	str.w	r2, [r0, #140]
	.loc	5 1833 47 is_stmt 1             @ ../Drivers/STM32H7xx_HAL_Driver/Src/stm32h7xx_hal_rcc_ex.c:1833:47
	ldr	r2, [r1, #-4]
	and	r2, r2, #3
	.loc	5 1833 45 is_stmt 0             @ ../Drivers/STM32H7xx_HAL_Driver/Src/stm32h7xx_hal_rcc_ex.c:1833:45
	str	r2, [r0, #72]
	.loc	5 1836 47 is_stmt 1             @ ../Drivers/STM32H7xx_HAL_Driver/Src/stm32h7xx_hal_rcc_ex.c:1836:47
	ldr	r2, [r1, #-4]
	and	r2, r2, #48
	.loc	5 1836 45 is_stmt 0             @ ../Drivers/STM32H7xx_HAL_Driver/Src/stm32h7xx_hal_rcc_ex.c:1836:45
	str	r2, [r0, #76]
	.loc	5 1849 47 is_stmt 1             @ ../Drivers/STM32H7xx_HAL_Driver/Src/stm32h7xx_hal_rcc_ex.c:1849:47
	ldr	r2, [r1, #-4]
	and	r2, r2, #805306368
	.loc	5 1849 45 is_stmt 0             @ ../Drivers/STM32H7xx_HAL_Driver/Src/stm32h7xx_hal_rcc_ex.c:1849:45
	str	r2, [r0, #84]
.Ltmp557:
	.loc	5 1852 13 is_stmt 1             @ ../Drivers/STM32H7xx_HAL_Driver/Src/stm32h7xx_hal_rcc_ex.c:1852:13
	ldr	r1, [r1, #-64]
	.loc	5 1852 18 is_stmt 0             @ ../Drivers/STM32H7xx_HAL_Driver/Src/stm32h7xx_hal_rcc_ex.c:1852:18
	and	r1, r1, #32768
	.loc	5 0 0                           @ ../Drivers/STM32H7xx_HAL_Driver/Src/stm32h7xx_hal_rcc_ex.c:0:0
	str.w	r1, [r0, #188]
.Ltmp558:
	.loc	5 1860 1 is_stmt 1              @ ../Drivers/STM32H7xx_HAL_Driver/Src/stm32h7xx_hal_rcc_ex.c:1860:1
	bx	lr
.Ltmp559:
.Lfunc_end3:
	.size	HAL_RCCEx_GetPeriphCLKConfig, .Lfunc_end3-HAL_RCCEx_GetPeriphCLKConfig
	.cfi_endproc
	.cantunwind
	.fnend
                                        @ -- End function
	.hidden	HAL_RCCEx_GetPeriphCLKFreq      @ -- Begin function HAL_RCCEx_GetPeriphCLKFreq
	.globl	HAL_RCCEx_GetPeriphCLKFreq
	.p2align	3
	.type	HAL_RCCEx_GetPeriphCLKFreq,%function
	.code	16                              @ @HAL_RCCEx_GetPeriphCLKFreq
	.thumb_func
HAL_RCCEx_GetPeriphCLKFreq:
.Lfunc_begin4:
	.loc	5 1882 0                        @ ../Drivers/STM32H7xx_HAL_Driver/Src/stm32h7xx_hal_rcc_ex.c:1882:0
	.fnstart
	.cfi_startproc
@ %bb.0:
	.save	{r4, lr}
	push	{r4, lr}
	.cfi_def_cfa_offset 8
	.cfi_offset lr, -4
	.cfi_offset r4, -8
	.pad	#16
	sub	sp, #16
	.cfi_def_cfa_offset 24
	mov	r2, r0
.Ltmp560:
	@DEBUG_VALUE: HAL_RCCEx_GetPeriphCLKFreq:PeriphClk <- [DW_OP_LLVM_fragment 0 32] $r2
	@DEBUG_VALUE: HAL_RCCEx_GetPeriphCLKFreq:PeriphClk <- [DW_OP_LLVM_fragment 32 32] undef
	movw	r3, #8191
	movs	r0, #0
.Ltmp561:
	.loc	5 1894 7 prologue_end           @ ../Drivers/STM32H7xx_HAL_Driver/Src/stm32h7xx_hal_rcc_ex.c:1894:7
	subs	r3, r3, r2
	sbcs.w	r3, r0, r1
	blt	.LBB4_12
.Ltmp562:
@ %bb.1:
	@DEBUG_VALUE: HAL_RCCEx_GetPeriphCLKFreq:PeriphClk <- [DW_OP_LLVM_fragment 0 32] $r2
	.loc	5 0 7 is_stmt 0                 @ ../Drivers/STM32H7xx_HAL_Driver/Src/stm32h7xx_hal_rcc_ex.c:0:7
	movw	r3, #1023
	.loc	5 1894 7                        @ ../Drivers/STM32H7xx_HAL_Driver/Src/stm32h7xx_hal_rcc_ex.c:1894:7
	subs	r3, r3, r2
	sbcs.w	r3, r0, r1
	bge	.LBB4_20
.Ltmp563:
@ %bb.2:
	@DEBUG_VALUE: HAL_RCCEx_GetPeriphCLKFreq:PeriphClk <- [DW_OP_LLVM_fragment 0 32] $r2
	eor	r3, r2, #1024
	orrs	r3, r1
	beq.w	.LBB4_46
.Ltmp564:
@ %bb.3:
	@DEBUG_VALUE: HAL_RCCEx_GetPeriphCLKFreq:PeriphClk <- [DW_OP_LLVM_fragment 0 32] $r2
	eor	r3, r2, #2048
	orrs	r3, r1
	beq.w	.LBB4_53
.Ltmp565:
@ %bb.4:
	@DEBUG_VALUE: HAL_RCCEx_GetPeriphCLKFreq:PeriphClk <- [DW_OP_LLVM_fragment 0 32] $r2
	eor	r2, r2, #4096
.Ltmp566:
	orrs	r1, r2
	bne.w	.LBB4_79
@ %bb.5:
	.loc	5 0 7                           @ ../Drivers/STM32H7xx_HAL_Driver/Src/stm32h7xx_hal_rcc_ex.c:0:7
	movw	r1, #17408
	movt	r1, #22530
.Ltmp567:
	.loc	5 2466 14 is_stmt 1             @ ../Drivers/STM32H7xx_HAL_Driver/Src/stm32h7xx_hal_rcc_ex.c:2466:14
	ldr	r0, [r1, #80]
.Ltmp568:
	@DEBUG_VALUE: HAL_RCCEx_GetPeriphCLKFreq:srcclk <- [DW_OP_constu 28672, DW_OP_and, DW_OP_stack_value] $r0
	.loc	5 2468 5                        @ ../Drivers/STM32H7xx_HAL_Driver/Src/stm32h7xx_hal_rcc_ex.c:2468:5
	ubfx	r2, r0, #12, #3
	cmp	r2, #4
	bhi.w	.LBB4_70
.Ltmp569:
@ %bb.6:
	@DEBUG_VALUE: HAL_RCCEx_GetPeriphCLKFreq:srcclk <- [DW_OP_constu 28672, DW_OP_and, DW_OP_stack_value] $r0
	.loc	5 0 5 is_stmt 0                 @ ../Drivers/STM32H7xx_HAL_Driver/Src/stm32h7xx_hal_rcc_ex.c:0:5
	movw	r0, #32768
.Ltmp570:
	movt	r0, #187
.LCPI4_0:
	tbh	[pc, r2, lsl #1]
@ %bb.7:
.LJTI4_2:
	.short	(.LBB4_56-(.LCPI4_0+4))/2
	.short	(.LBB4_64-(.LCPI4_0+4))/2
	.short	(.LBB4_66-(.LCPI4_0+4))/2
	.short	(.LBB4_79-(.LCPI4_0+4))/2
	.short	(.LBB4_8-(.LCPI4_0+4))/2
	.p2align	1
	.p2align	2
.LBB4_8:
.Ltmp571:
	.loc	5 2514 26 is_stmt 1             @ ../Drivers/STM32H7xx_HAL_Driver/Src/stm32h7xx_hal_rcc_ex.c:2514:26
	ldr	r0, [r1, #76]
.Ltmp572:
	.loc	5 2516 14                       @ ../Drivers/STM32H7xx_HAL_Driver/Src/stm32h7xx_hal_rcc_ex.c:2516:14
	ldr	r2, [r1]
	.loc	5 2516 54 is_stmt 0             @ ../Drivers/STM32H7xx_HAL_Driver/Src/stm32h7xx_hal_rcc_ex.c:2516:54
	lsls	r2, r2, #29
.Ltmp573:
	.loc	5 2514 26 is_stmt 1             @ ../Drivers/STM32H7xx_HAL_Driver/Src/stm32h7xx_hal_rcc_ex.c:2514:26
	and	r2, r0, #805306368
.Ltmp574:
	@DEBUG_VALUE: HAL_RCCEx_GetPeriphCLKFreq:ckpclocksource <- $r2
	.loc	5 0 0 is_stmt 0                 @ ../Drivers/STM32H7xx_HAL_Driver/Src/stm32h7xx_hal_rcc_ex.c:0:0
	ldr	r0, [r1]
	.loc	5 2516 54 is_stmt 1             @ ../Drivers/STM32H7xx_HAL_Driver/Src/stm32h7xx_hal_rcc_ex.c:2516:54
	bpl	.LBB4_10
.Ltmp575:
@ %bb.9:
	@DEBUG_VALUE: HAL_RCCEx_GetPeriphCLKFreq:ckpclocksource <- $r2
	cmp	r2, #0
	beq.w	.LBB4_100
.Ltmp576:
.LBB4_10:
	@DEBUG_VALUE: HAL_RCCEx_GetPeriphCLKFreq:ckpclocksource <- $r2
	.loc	5 2522 59                       @ ../Drivers/STM32H7xx_HAL_Driver/Src/stm32h7xx_hal_rcc_ex.c:2522:59
	lsls	r0, r0, #23
	bpl.w	.LBB4_84
.Ltmp577:
@ %bb.11:
	@DEBUG_VALUE: HAL_RCCEx_GetPeriphCLKFreq:ckpclocksource <- $r2
	cmp.w	r2, #268435456
	beq.w	.LBB4_106
	b	.LBB4_84
.Ltmp578:
	.p2align	2
.LBB4_12:
	@DEBUG_VALUE: HAL_RCCEx_GetPeriphCLKFreq:PeriphClk <- [DW_OP_LLVM_fragment 0 32] $r2
	.loc	5 0 59 is_stmt 0                @ ../Drivers/STM32H7xx_HAL_Driver/Src/stm32h7xx_hal_rcc_ex.c:0:59
	movw	r3, #32767
	.loc	5 1894 7 is_stmt 1              @ ../Drivers/STM32H7xx_HAL_Driver/Src/stm32h7xx_hal_rcc_ex.c:1894:7
	subs	r3, r3, r2
	sbcs.w	r3, r0, r1
	bge	.LBB4_29
.Ltmp579:
@ %bb.13:
	@DEBUG_VALUE: HAL_RCCEx_GetPeriphCLKFreq:PeriphClk <- [DW_OP_LLVM_fragment 0 32] $r2
	eor	r3, r2, #32768
	orrs	r3, r1
	beq.w	.LBB4_57
.Ltmp580:
@ %bb.14:
	@DEBUG_VALUE: HAL_RCCEx_GetPeriphCLKFreq:PeriphClk <- [DW_OP_LLVM_fragment 0 32] $r2
	eor	r3, r2, #65536
	orrs	r3, r1
	beq.w	.LBB4_61
.Ltmp581:
@ %bb.15:
	@DEBUG_VALUE: HAL_RCCEx_GetPeriphCLKFreq:PeriphClk <- [DW_OP_LLVM_fragment 0 32] $r2
	eor	r2, r2, #524288
.Ltmp582:
	orrs	r1, r2
	bne.w	.LBB4_79
@ %bb.16:
	.loc	5 0 7 is_stmt 0                 @ ../Drivers/STM32H7xx_HAL_Driver/Src/stm32h7xx_hal_rcc_ex.c:0:7
	movw	r0, #17408
	movt	r0, #22530
.Ltmp583:
	.loc	5 2638 14 is_stmt 1             @ ../Drivers/STM32H7xx_HAL_Driver/Src/stm32h7xx_hal_rcc_ex.c:2638:14
	ldr	r1, [r0, #88]
	and	r1, r1, #196608
.Ltmp584:
	@DEBUG_VALUE: HAL_RCCEx_GetPeriphCLKFreq:srcclk <- $r1
	.loc	5 2640 5                        @ ../Drivers/STM32H7xx_HAL_Driver/Src/stm32h7xx_hal_rcc_ex.c:2640:5
	cmp.w	r1, #131072
	beq.w	.LBB4_72
.Ltmp585:
@ %bb.17:
	@DEBUG_VALUE: HAL_RCCEx_GetPeriphCLKFreq:srcclk <- $r1
	cmp.w	r1, #65536
	beq.w	.LBB4_75
.Ltmp586:
@ %bb.18:
	@DEBUG_VALUE: HAL_RCCEx_GetPeriphCLKFreq:srcclk <- $r1
	cmp	r1, #0
	bne.w	.LBB4_70
.Ltmp587:
@ %bb.19:
	@DEBUG_VALUE: HAL_RCCEx_GetPeriphCLKFreq:srcclk <- $r1
	.loc	5 2644 13                       @ ../Drivers/STM32H7xx_HAL_Driver/Src/stm32h7xx_hal_rcc_ex.c:2644:13
	ldr	r0, [r0]
.Ltmp588:
	.loc	5 0 0 is_stmt 0                 @ ../Drivers/STM32H7xx_HAL_Driver/Src/stm32h7xx_hal_rcc_ex.c:0:0
	lsls	r0, r0, #4
	bpl.w	.LBB4_70
	b	.LBB4_65
.Ltmp589:
	.p2align	2
.LBB4_20:
	@DEBUG_VALUE: HAL_RCCEx_GetPeriphCLKFreq:PeriphClk <- [DW_OP_LLVM_fragment 0 32] $r2
	.loc	5 1894 7 is_stmt 1              @ ../Drivers/STM32H7xx_HAL_Driver/Src/stm32h7xx_hal_rcc_ex.c:1894:7
	eor	r3, r2, #256
	orrs	r3, r1
	beq	.LBB4_35
.Ltmp590:
@ %bb.21:
	@DEBUG_VALUE: HAL_RCCEx_GetPeriphCLKFreq:PeriphClk <- [DW_OP_LLVM_fragment 0 32] $r2
	eor	r2, r2, #512
.Ltmp591:
	orrs	r1, r2
	bne.w	.LBB4_79
@ %bb.22:
	.loc	5 0 7 is_stmt 0                 @ ../Drivers/STM32H7xx_HAL_Driver/Src/stm32h7xx_hal_rcc_ex.c:0:7
	movw	r1, #17408
	movt	r1, #22530
.Ltmp592:
	.loc	5 1991 22 is_stmt 1             @ ../Drivers/STM32H7xx_HAL_Driver/Src/stm32h7xx_hal_rcc_ex.c:1991:22
	ldr	r0, [r1, #80]
.Ltmp593:
	@DEBUG_VALUE: HAL_RCCEx_GetPeriphCLKFreq:saiclocksource <- [DW_OP_constu 448, DW_OP_and, DW_OP_stack_value] $r0
	.loc	5 1993 5                        @ ../Drivers/STM32H7xx_HAL_Driver/Src/stm32h7xx_hal_rcc_ex.c:1993:5
	ubfx	r2, r0, #6, #3
	cmp	r2, #4
	bhi.w	.LBB4_70
.Ltmp594:
@ %bb.23:
	@DEBUG_VALUE: HAL_RCCEx_GetPeriphCLKFreq:saiclocksource <- [DW_OP_constu 448, DW_OP_and, DW_OP_stack_value] $r0
	.loc	5 0 5 is_stmt 0                 @ ../Drivers/STM32H7xx_HAL_Driver/Src/stm32h7xx_hal_rcc_ex.c:0:5
	movw	r0, #32768
.Ltmp595:
	movt	r0, #187
.LCPI4_1:
	tbh	[pc, r2, lsl #1]
@ %bb.24:
.LJTI4_5:
	.short	(.LBB4_56-(.LCPI4_1+4))/2
	.short	(.LBB4_64-(.LCPI4_1+4))/2
	.short	(.LBB4_66-(.LCPI4_1+4))/2
	.short	(.LBB4_79-(.LCPI4_1+4))/2
	.short	(.LBB4_25-(.LCPI4_1+4))/2
	.p2align	1
	.p2align	2
.LBB4_25:
.Ltmp596:
	.loc	5 2039 26 is_stmt 1             @ ../Drivers/STM32H7xx_HAL_Driver/Src/stm32h7xx_hal_rcc_ex.c:2039:26
	ldr	r0, [r1, #76]
.Ltmp597:
	.loc	5 2041 14                       @ ../Drivers/STM32H7xx_HAL_Driver/Src/stm32h7xx_hal_rcc_ex.c:2041:14
	ldr	r2, [r1]
	.loc	5 2041 54 is_stmt 0             @ ../Drivers/STM32H7xx_HAL_Driver/Src/stm32h7xx_hal_rcc_ex.c:2041:54
	lsls	r2, r2, #29
.Ltmp598:
	.loc	5 2039 26 is_stmt 1             @ ../Drivers/STM32H7xx_HAL_Driver/Src/stm32h7xx_hal_rcc_ex.c:2039:26
	and	r2, r0, #805306368
.Ltmp599:
	@DEBUG_VALUE: HAL_RCCEx_GetPeriphCLKFreq:ckpclocksource <- $r2
	.loc	5 0 0 is_stmt 0                 @ ../Drivers/STM32H7xx_HAL_Driver/Src/stm32h7xx_hal_rcc_ex.c:0:0
	ldr	r0, [r1]
	.loc	5 2041 54 is_stmt 1             @ ../Drivers/STM32H7xx_HAL_Driver/Src/stm32h7xx_hal_rcc_ex.c:2041:54
	bpl	.LBB4_27
.Ltmp600:
@ %bb.26:
	@DEBUG_VALUE: HAL_RCCEx_GetPeriphCLKFreq:ckpclocksource <- $r2
	cmp	r2, #0
	beq.w	.LBB4_100
.Ltmp601:
.LBB4_27:
	@DEBUG_VALUE: HAL_RCCEx_GetPeriphCLKFreq:ckpclocksource <- $r2
	.loc	5 2047 59                       @ ../Drivers/STM32H7xx_HAL_Driver/Src/stm32h7xx_hal_rcc_ex.c:2047:59
	lsls	r0, r0, #23
	bpl.w	.LBB4_84
.Ltmp602:
@ %bb.28:
	@DEBUG_VALUE: HAL_RCCEx_GetPeriphCLKFreq:ckpclocksource <- $r2
	cmp.w	r2, #268435456
	beq.w	.LBB4_106
	b	.LBB4_84
.Ltmp603:
	.p2align	2
.LBB4_29:
	@DEBUG_VALUE: HAL_RCCEx_GetPeriphCLKFreq:PeriphClk <- [DW_OP_LLVM_fragment 0 32] $r2
	.loc	5 1894 7                        @ ../Drivers/STM32H7xx_HAL_Driver/Src/stm32h7xx_hal_rcc_ex.c:1894:7
	eor	r3, r2, #8192
	orrs	r3, r1
	beq	.LBB4_42
.Ltmp604:
@ %bb.30:
	@DEBUG_VALUE: HAL_RCCEx_GetPeriphCLKFreq:PeriphClk <- [DW_OP_LLVM_fragment 0 32] $r2
	eor	r2, r2, #16384
.Ltmp605:
	orrs	r1, r2
	bne.w	.LBB4_79
@ %bb.31:
	.loc	5 0 7 is_stmt 0                 @ ../Drivers/STM32H7xx_HAL_Driver/Src/stm32h7xx_hal_rcc_ex.c:0:7
	movw	r4, #17408
	movt	r4, #22530
.Ltmp606:
	.loc	5 2752 14 is_stmt 1             @ ../Drivers/STM32H7xx_HAL_Driver/Src/stm32h7xx_hal_rcc_ex.c:2752:14
	ldr	r0, [r4, #88]
.Ltmp607:
	@DEBUG_VALUE: HAL_RCCEx_GetPeriphCLKFreq:srcclk <- [DW_OP_constu 1879048192, DW_OP_and, DW_OP_stack_value] $r0
	.loc	5 2754 5                        @ ../Drivers/STM32H7xx_HAL_Driver/Src/stm32h7xx_hal_rcc_ex.c:2754:5
	ubfx	r0, r0, #28, #3
.Ltmp608:
	cmp	r0, #5
	bhi.w	.LBB4_70
@ %bb.32:
	.loc	5 0 5 is_stmt 0                 @ ../Drivers/STM32H7xx_HAL_Driver/Src/stm32h7xx_hal_rcc_ex.c:0:5
.LCPI4_2:
	tbh	[pc, r0, lsl #1]
@ %bb.33:
.LJTI4_0:
	.short	(.LBB4_34-(.LCPI4_2+4))/2
	.short	(.LBB4_85-(.LCPI4_2+4))/2
	.short	(.LBB4_86-(.LCPI4_2+4))/2
	.short	(.LBB4_87-(.LCPI4_2+4))/2
	.short	(.LBB4_89-(.LCPI4_2+4))/2
	.short	(.LBB4_90-(.LCPI4_2+4))/2
	.p2align	1
	.p2align	2
.LBB4_34:
.Ltmp609:
	.loc	5 2925 11 is_stmt 1             @ ../Drivers/STM32H7xx_HAL_Driver/Src/stm32h7xx_hal_rcc_ex.c:2925:11
	bl	HAL_RCC_GetHCLKFreq
.Ltmp610:
	.loc	5 2925 60 is_stmt 0             @ ../Drivers/STM32H7xx_HAL_Driver/Src/stm32h7xx_hal_rcc_ex.c:2925:60
	ldr	r1, [r4, #32]
	.loc	5 2925 37                       @ ../Drivers/STM32H7xx_HAL_Driver/Src/stm32h7xx_hal_rcc_ex.c:2925:37
	movw	r2, :lower16:(D1CorePrescTable-(.LPC4_0+4))
	movt	r2, :upper16:(D1CorePrescTable-(.LPC4_0+4))
	.loc	5 2925 88                       @ ../Drivers/STM32H7xx_HAL_Driver/Src/stm32h7xx_hal_rcc_ex.c:2925:88
	ubfx	r1, r1, #4, #3
	.loc	5 2925 37                       @ ../Drivers/STM32H7xx_HAL_Driver/Src/stm32h7xx_hal_rcc_ex.c:2925:37
.LPC4_0:
	add	r2, pc
	ldrb	r1, [r2, r1]
	.loc	5 2925 114                      @ ../Drivers/STM32H7xx_HAL_Driver/Src/stm32h7xx_hal_rcc_ex.c:2925:114
	and	r1, r1, #31
	.loc	5 2925 33                       @ ../Drivers/STM32H7xx_HAL_Driver/Src/stm32h7xx_hal_rcc_ex.c:2925:33
	lsrs	r0, r1
.Ltmp611:
	@DEBUG_VALUE: HAL_RCCEx_GetPeriphCLKFreq:frequency <- $r0
	@DEBUG_VALUE: HAL_RCCEx_GetPeriphCLKFreq:frequency <- $r0
	.loc	5 2894 3 is_stmt 1              @ ../Drivers/STM32H7xx_HAL_Driver/Src/stm32h7xx_hal_rcc_ex.c:2894:3
	add	sp, #16
	pop	{r4, pc}
.Ltmp612:
	.p2align	2
.LBB4_35:
	@DEBUG_VALUE: HAL_RCCEx_GetPeriphCLKFreq:PeriphClk <- [DW_OP_LLVM_fragment 0 32] $r2
	.loc	5 0 3 is_stmt 0                 @ ../Drivers/STM32H7xx_HAL_Driver/Src/stm32h7xx_hal_rcc_ex.c:0:3
	movw	r1, #17408
	movt	r1, #22530
.Ltmp613:
	.loc	5 1897 22 is_stmt 1             @ ../Drivers/STM32H7xx_HAL_Driver/Src/stm32h7xx_hal_rcc_ex.c:1897:22
	ldr	r0, [r1, #80]
	and	r2, r0, #7
.Ltmp614:
	@DEBUG_VALUE: HAL_RCCEx_GetPeriphCLKFreq:saiclocksource <- $r2
	.loc	5 1899 5                        @ ../Drivers/STM32H7xx_HAL_Driver/Src/stm32h7xx_hal_rcc_ex.c:1899:5
	cmp	r2, #4
	bhi.w	.LBB4_70
.Ltmp615:
@ %bb.36:
	@DEBUG_VALUE: HAL_RCCEx_GetPeriphCLKFreq:saiclocksource <- $r2
	.loc	5 0 5 is_stmt 0                 @ ../Drivers/STM32H7xx_HAL_Driver/Src/stm32h7xx_hal_rcc_ex.c:0:5
	movw	r0, #32768
	movt	r0, #187
.LCPI4_3:
	tbb	[pc, r2]
.Ltmp616:
@ %bb.37:
.LJTI4_6:
	.byte	(.LBB4_56-(.LCPI4_3+4))/2
	.byte	(.LBB4_64-(.LCPI4_3+4))/2
	.byte	(.LBB4_66-(.LCPI4_3+4))/2
	.byte	(.LBB4_79-(.LCPI4_3+4))/2
	.byte	(.LBB4_38-(.LCPI4_3+4))/2
	.p2align	1
	.p2align	2
.LBB4_38:
.Ltmp617:
	@DEBUG_VALUE: HAL_RCCEx_GetPeriphCLKFreq:saiclocksource <- $r2
	.loc	5 1945 26 is_stmt 1             @ ../Drivers/STM32H7xx_HAL_Driver/Src/stm32h7xx_hal_rcc_ex.c:1945:26
	ldr	r0, [r1, #76]
.Ltmp618:
	.loc	5 1947 14                       @ ../Drivers/STM32H7xx_HAL_Driver/Src/stm32h7xx_hal_rcc_ex.c:1947:14
	ldr	r2, [r1]
.Ltmp619:
	.loc	5 1947 54 is_stmt 0             @ ../Drivers/STM32H7xx_HAL_Driver/Src/stm32h7xx_hal_rcc_ex.c:1947:54
	lsls	r2, r2, #29
.Ltmp620:
	.loc	5 1945 26 is_stmt 1             @ ../Drivers/STM32H7xx_HAL_Driver/Src/stm32h7xx_hal_rcc_ex.c:1945:26
	and	r2, r0, #805306368
.Ltmp621:
	@DEBUG_VALUE: HAL_RCCEx_GetPeriphCLKFreq:ckpclocksource <- $r2
	.loc	5 0 0 is_stmt 0                 @ ../Drivers/STM32H7xx_HAL_Driver/Src/stm32h7xx_hal_rcc_ex.c:0:0
	ldr	r0, [r1]
	.loc	5 1947 54 is_stmt 1             @ ../Drivers/STM32H7xx_HAL_Driver/Src/stm32h7xx_hal_rcc_ex.c:1947:54
	bpl	.LBB4_40
.Ltmp622:
@ %bb.39:
	@DEBUG_VALUE: HAL_RCCEx_GetPeriphCLKFreq:ckpclocksource <- $r2
	cmp	r2, #0
	beq.w	.LBB4_100
.Ltmp623:
.LBB4_40:
	@DEBUG_VALUE: HAL_RCCEx_GetPeriphCLKFreq:ckpclocksource <- $r2
	.loc	5 1953 59                       @ ../Drivers/STM32H7xx_HAL_Driver/Src/stm32h7xx_hal_rcc_ex.c:1953:59
	lsls	r0, r0, #23
	bpl.w	.LBB4_84
.Ltmp624:
@ %bb.41:
	@DEBUG_VALUE: HAL_RCCEx_GetPeriphCLKFreq:ckpclocksource <- $r2
	cmp.w	r2, #268435456
	beq.w	.LBB4_106
	b	.LBB4_84
.Ltmp625:
	.p2align	2
.LBB4_42:
	@DEBUG_VALUE: HAL_RCCEx_GetPeriphCLKFreq:PeriphClk <- [DW_OP_LLVM_fragment 0 32] $r2
	.loc	5 0 59 is_stmt 0                @ ../Drivers/STM32H7xx_HAL_Driver/Src/stm32h7xx_hal_rcc_ex.c:0:59
	movw	r0, #17408
	movt	r0, #22530
.Ltmp626:
	.loc	5 2558 14 is_stmt 1             @ ../Drivers/STM32H7xx_HAL_Driver/Src/stm32h7xx_hal_rcc_ex.c:2558:14
	ldr	r1, [r0, #80]
.Ltmp627:
	@DEBUG_VALUE: HAL_RCCEx_GetPeriphCLKFreq:srcclk <- [DW_OP_constu 458752, DW_OP_and, DW_OP_stack_value] $r1
	.loc	5 2559 5                        @ ../Drivers/STM32H7xx_HAL_Driver/Src/stm32h7xx_hal_rcc_ex.c:2559:5
	ubfx	r1, r1, #16, #3
.Ltmp628:
	cmp	r1, #5
	bhi.w	.LBB4_70
.Ltmp629:
@ %bb.43:
	@DEBUG_VALUE: HAL_RCCEx_GetPeriphCLKFreq:PeriphClk <- [DW_OP_LLVM_fragment 0 32] $r2
	.loc	5 0 5 is_stmt 0                 @ ../Drivers/STM32H7xx_HAL_Driver/Src/stm32h7xx_hal_rcc_ex.c:0:5
.LCPI4_4:
	tbh	[pc, r1, lsl #1]
.Ltmp630:
@ %bb.44:
.LJTI4_1:
	.short	(.LBB4_45-(.LCPI4_4+4))/2
	.short	(.LBB4_92-(.LCPI4_4+4))/2
	.short	(.LBB4_95-(.LCPI4_4+4))/2
	.short	(.LBB4_98-(.LCPI4_4+4))/2
	.short	(.LBB4_102-(.LCPI4_4+4))/2
	.short	(.LBB4_60-(.LCPI4_4+4))/2
	.p2align	1
	.p2align	2
.LBB4_45:
.Ltmp631:
	.loc	5 2563 21 is_stmt 1             @ ../Drivers/STM32H7xx_HAL_Driver/Src/stm32h7xx_hal_rcc_ex.c:2563:21
	add	sp, #16
	pop.w	{r4, lr}
.Ltmp632:
	b	HAL_RCC_GetPCLK1Freq
.Ltmp633:
	.p2align	2
.LBB4_46:
	@DEBUG_VALUE: HAL_RCCEx_GetPeriphCLKFreq:PeriphClk <- [DW_OP_LLVM_fragment 0 32] $r2
	.loc	5 0 21 is_stmt 0                @ ../Drivers/STM32H7xx_HAL_Driver/Src/stm32h7xx_hal_rcc_ex.c:0:21
	movw	r1, #17408
	movt	r1, #22530
.Ltmp634:
	.loc	5 2278 22 is_stmt 1             @ ../Drivers/STM32H7xx_HAL_Driver/Src/stm32h7xx_hal_rcc_ex.c:2278:22
	ldr	r0, [r1, #88]
.Ltmp635:
	@DEBUG_VALUE: HAL_RCCEx_GetPeriphCLKFreq:saiclocksource <- [DW_OP_constu 14680064, DW_OP_and, DW_OP_stack_value] $r0
	.loc	5 2280 5                        @ ../Drivers/STM32H7xx_HAL_Driver/Src/stm32h7xx_hal_rcc_ex.c:2280:5
	ubfx	r2, r0, #21, #3
.Ltmp636:
	cmp	r2, #4
	bhi.w	.LBB4_70
.Ltmp637:
@ %bb.47:
	@DEBUG_VALUE: HAL_RCCEx_GetPeriphCLKFreq:saiclocksource <- [DW_OP_constu 14680064, DW_OP_and, DW_OP_stack_value] $r0
	.loc	5 0 5 is_stmt 0                 @ ../Drivers/STM32H7xx_HAL_Driver/Src/stm32h7xx_hal_rcc_ex.c:0:5
	movw	r0, #32768
.Ltmp638:
	movt	r0, #187
.LCPI4_5:
	tbb	[pc, r2]
@ %bb.48:
.LJTI4_4:
	.byte	(.LBB4_56-(.LCPI4_5+4))/2
	.byte	(.LBB4_64-(.LCPI4_5+4))/2
	.byte	(.LBB4_66-(.LCPI4_5+4))/2
	.byte	(.LBB4_79-(.LCPI4_5+4))/2
	.byte	(.LBB4_49-(.LCPI4_5+4))/2
	.p2align	1
	.p2align	2
.LBB4_49:
.Ltmp639:
	.loc	5 2326 26 is_stmt 1             @ ../Drivers/STM32H7xx_HAL_Driver/Src/stm32h7xx_hal_rcc_ex.c:2326:26
	ldr	r0, [r1, #76]
.Ltmp640:
	.loc	5 2328 14                       @ ../Drivers/STM32H7xx_HAL_Driver/Src/stm32h7xx_hal_rcc_ex.c:2328:14
	ldr	r2, [r1]
	.loc	5 2328 54 is_stmt 0             @ ../Drivers/STM32H7xx_HAL_Driver/Src/stm32h7xx_hal_rcc_ex.c:2328:54
	lsls	r2, r2, #29
.Ltmp641:
	.loc	5 2326 26 is_stmt 1             @ ../Drivers/STM32H7xx_HAL_Driver/Src/stm32h7xx_hal_rcc_ex.c:2326:26
	and	r2, r0, #805306368
.Ltmp642:
	@DEBUG_VALUE: HAL_RCCEx_GetPeriphCLKFreq:ckpclocksource <- $r2
	.loc	5 0 0 is_stmt 0                 @ ../Drivers/STM32H7xx_HAL_Driver/Src/stm32h7xx_hal_rcc_ex.c:0:0
	ldr	r0, [r1]
	.loc	5 2328 54 is_stmt 1             @ ../Drivers/STM32H7xx_HAL_Driver/Src/stm32h7xx_hal_rcc_ex.c:2328:54
	bpl	.LBB4_51
.Ltmp643:
@ %bb.50:
	@DEBUG_VALUE: HAL_RCCEx_GetPeriphCLKFreq:ckpclocksource <- $r2
	cmp	r2, #0
	beq.w	.LBB4_100
.Ltmp644:
.LBB4_51:
	@DEBUG_VALUE: HAL_RCCEx_GetPeriphCLKFreq:ckpclocksource <- $r2
	.loc	5 2334 59                       @ ../Drivers/STM32H7xx_HAL_Driver/Src/stm32h7xx_hal_rcc_ex.c:2334:59
	lsls	r0, r0, #23
	bpl.w	.LBB4_84
.Ltmp645:
@ %bb.52:
	@DEBUG_VALUE: HAL_RCCEx_GetPeriphCLKFreq:ckpclocksource <- $r2
	cmp.w	r2, #268435456
	beq.w	.LBB4_106
	b	.LBB4_84
.Ltmp646:
	.p2align	2
.LBB4_53:
	@DEBUG_VALUE: HAL_RCCEx_GetPeriphCLKFreq:PeriphClk <- [DW_OP_LLVM_fragment 0 32] $r2
	.loc	5 0 59 is_stmt 0                @ ../Drivers/STM32H7xx_HAL_Driver/Src/stm32h7xx_hal_rcc_ex.c:0:59
	movw	r1, #17408
	movt	r1, #22530
.Ltmp647:
	.loc	5 2372 22 is_stmt 1             @ ../Drivers/STM32H7xx_HAL_Driver/Src/stm32h7xx_hal_rcc_ex.c:2372:22
	ldr	r0, [r1, #88]
.Ltmp648:
	@DEBUG_VALUE: HAL_RCCEx_GetPeriphCLKFreq:saiclocksource <- [DW_OP_constu 117440512, DW_OP_and, DW_OP_stack_value] $r0
	.loc	5 2374 5                        @ ../Drivers/STM32H7xx_HAL_Driver/Src/stm32h7xx_hal_rcc_ex.c:2374:5
	ubfx	r2, r0, #24, #3
.Ltmp649:
	cmp	r2, #4
	bhi	.LBB4_70
.Ltmp650:
@ %bb.54:
	@DEBUG_VALUE: HAL_RCCEx_GetPeriphCLKFreq:saiclocksource <- [DW_OP_constu 117440512, DW_OP_and, DW_OP_stack_value] $r0
	.loc	5 0 5 is_stmt 0                 @ ../Drivers/STM32H7xx_HAL_Driver/Src/stm32h7xx_hal_rcc_ex.c:0:5
	movw	r0, #32768
.Ltmp651:
	movt	r0, #187
.LCPI4_6:
	tbb	[pc, r2]
@ %bb.55:
.LJTI4_3:
	.byte	(.LBB4_56-(.LCPI4_6+4))/2
	.byte	(.LBB4_64-(.LCPI4_6+4))/2
	.byte	(.LBB4_66-(.LCPI4_6+4))/2
	.byte	(.LBB4_79-(.LCPI4_6+4))/2
	.byte	(.LBB4_80-(.LCPI4_6+4))/2
	.p2align	1
	.p2align	2
.LBB4_56:
	ldr	r0, [r1]
	b	.LBB4_69
	.p2align	2
.LBB4_57:
.Ltmp652:
	@DEBUG_VALUE: HAL_RCCEx_GetPeriphCLKFreq:PeriphClk <- [DW_OP_LLVM_fragment 0 32] $r2
	movw	r0, #17408
	movt	r0, #22530
.Ltmp653:
	.loc	5 2840 14 is_stmt 1             @ ../Drivers/STM32H7xx_HAL_Driver/Src/stm32h7xx_hal_rcc_ex.c:2840:14
	ldr	r1, [r0, #80]
	and	r1, r1, #805306368
.Ltmp654:
	@DEBUG_VALUE: HAL_RCCEx_GetPeriphCLKFreq:srcclk <- $r1
	.loc	5 2842 5                        @ ../Drivers/STM32H7xx_HAL_Driver/Src/stm32h7xx_hal_rcc_ex.c:2842:5
	cmp.w	r1, #536870912
	beq	.LBB4_77
.Ltmp655:
@ %bb.58:
	@DEBUG_VALUE: HAL_RCCEx_GetPeriphCLKFreq:srcclk <- $r1
	@DEBUG_VALUE: HAL_RCCEx_GetPeriphCLKFreq:PeriphClk <- [DW_OP_LLVM_fragment 0 32] $r2
	cmp.w	r1, #268435456
	beq	.LBB4_68
.Ltmp656:
@ %bb.59:
	@DEBUG_VALUE: HAL_RCCEx_GetPeriphCLKFreq:srcclk <- $r1
	@DEBUG_VALUE: HAL_RCCEx_GetPeriphCLKFreq:PeriphClk <- [DW_OP_LLVM_fragment 0 32] $r2
	cbnz	r1, .LBB4_70
.Ltmp657:
.LBB4_60:
	.loc	5 0 0 is_stmt 0                 @ ../Drivers/STM32H7xx_HAL_Driver/Src/stm32h7xx_hal_rcc_ex.c:0:0
	ldr	r0, [r0]
	b	.LBB4_91
	.p2align	2
.LBB4_61:
.Ltmp658:
	@DEBUG_VALUE: HAL_RCCEx_GetPeriphCLKFreq:PeriphClk <- [DW_OP_LLVM_fragment 0 32] $r2
	movw	r0, #17408
	movt	r0, #22530
.Ltmp659:
	.loc	5 2711 14 is_stmt 1             @ ../Drivers/STM32H7xx_HAL_Driver/Src/stm32h7xx_hal_rcc_ex.c:2711:14
	ldr	r1, [r0, #76]
.Ltmp660:
	.loc	5 0 0 is_stmt 0                 @ ../Drivers/STM32H7xx_HAL_Driver/Src/stm32h7xx_hal_rcc_ex.c:0:0
	ldr	r0, [r0]
.Ltmp661:
	.loc	5 2713 5 is_stmt 1              @ ../Drivers/STM32H7xx_HAL_Driver/Src/stm32h7xx_hal_rcc_ex.c:2713:5
	lsls	r1, r1, #15
.Ltmp662:
	@DEBUG_VALUE: HAL_RCCEx_GetPeriphCLKFreq:srcclk <- $r1
	bpl	.LBB4_69
.Ltmp663:
@ %bb.62:
	@DEBUG_VALUE: HAL_RCCEx_GetPeriphCLKFreq:srcclk <- $r1
	@DEBUG_VALUE: HAL_RCCEx_GetPeriphCLKFreq:PeriphClk <- [DW_OP_LLVM_fragment 0 32] $r2
	.loc	5 2730 13                       @ ../Drivers/STM32H7xx_HAL_Driver/Src/stm32h7xx_hal_rcc_ex.c:2730:13
	lsls	r0, r0, #4
	bpl	.LBB4_70
.Ltmp664:
@ %bb.63:
	@DEBUG_VALUE: HAL_RCCEx_GetPeriphCLKFreq:srcclk <- $r1
	@DEBUG_VALUE: HAL_RCCEx_GetPeriphCLKFreq:PeriphClk <- [DW_OP_LLVM_fragment 0 32] $r2
	.loc	5 0 13 is_stmt 0                @ ../Drivers/STM32H7xx_HAL_Driver/Src/stm32h7xx_hal_rcc_ex.c:0:13
	add	r0, sp, #4
.Ltmp665:
	.loc	5 2732 11 is_stmt 1             @ ../Drivers/STM32H7xx_HAL_Driver/Src/stm32h7xx_hal_rcc_ex.c:2732:11
	bl	HAL_RCCEx_GetPLL2ClockFreq
.Ltmp666:
	.loc	5 0 0 is_stmt 0                 @ ../Drivers/STM32H7xx_HAL_Driver/Src/stm32h7xx_hal_rcc_ex.c:0:0
	ldr	r0, [sp, #12]
.Ltmp667:
	@DEBUG_VALUE: HAL_RCCEx_GetPeriphCLKFreq:frequency <- $r0
	@DEBUG_VALUE: HAL_RCCEx_GetPeriphCLKFreq:frequency <- $r0
	.loc	5 2894 3 is_stmt 1              @ ../Drivers/STM32H7xx_HAL_Driver/Src/stm32h7xx_hal_rcc_ex.c:2894:3
	add	sp, #16
	pop	{r4, pc}
.Ltmp668:
	.p2align	2
.LBB4_64:
	.loc	5 0 0 is_stmt 0                 @ ../Drivers/STM32H7xx_HAL_Driver/Src/stm32h7xx_hal_rcc_ex.c:0:0
	ldr	r0, [r1]
	lsls	r0, r0, #4
	bpl	.LBB4_70
.LBB4_65:
	add	r0, sp, #4
	bl	HAL_RCCEx_GetPLL2ClockFreq
.Ltmp669:
	ldr	r0, [sp, #4]
.Ltmp670:
	@DEBUG_VALUE: HAL_RCCEx_GetPeriphCLKFreq:frequency <- $r0
	@DEBUG_VALUE: HAL_RCCEx_GetPeriphCLKFreq:frequency <- $r0
	.loc	5 2894 3                        @ ../Drivers/STM32H7xx_HAL_Driver/Src/stm32h7xx_hal_rcc_ex.c:2894:3
	add	sp, #16
	pop	{r4, pc}
.Ltmp671:
	.p2align	2
.LBB4_66:
	.loc	5 0 0                           @ ../Drivers/STM32H7xx_HAL_Driver/Src/stm32h7xx_hal_rcc_ex.c:0:0
	ldr	r0, [r1]
	lsls	r0, r0, #2
	bpl	.LBB4_70
@ %bb.67:
	add	r0, sp, #4
	bl	HAL_RCCEx_GetPLL3ClockFreq
.Ltmp672:
	ldr	r0, [sp, #4]
.Ltmp673:
	@DEBUG_VALUE: HAL_RCCEx_GetPeriphCLKFreq:frequency <- $r0
	@DEBUG_VALUE: HAL_RCCEx_GetPeriphCLKFreq:frequency <- $r0
	.loc	5 2894 3                        @ ../Drivers/STM32H7xx_HAL_Driver/Src/stm32h7xx_hal_rcc_ex.c:2894:3
	add	sp, #16
	pop	{r4, pc}
.Ltmp674:
	.p2align	2
.LBB4_68:
	@DEBUG_VALUE: HAL_RCCEx_GetPeriphCLKFreq:srcclk <- $r1
	@DEBUG_VALUE: HAL_RCCEx_GetPeriphCLKFreq:PeriphClk <- [DW_OP_LLVM_fragment 0 32] $r2
	.loc	5 2858 13 is_stmt 1             @ ../Drivers/STM32H7xx_HAL_Driver/Src/stm32h7xx_hal_rcc_ex.c:2858:13
	ldr	r0, [r0]
.Ltmp675:
.LBB4_69:
	.loc	5 0 0 is_stmt 0                 @ ../Drivers/STM32H7xx_HAL_Driver/Src/stm32h7xx_hal_rcc_ex.c:0:0
	lsls	r0, r0, #6
	bmi	.LBB4_71
.Ltmp676:
.LBB4_70:
	movs	r0, #0
.Ltmp677:
	@DEBUG_VALUE: HAL_RCCEx_GetPeriphCLKFreq:frequency <- $r0
	.loc	5 2894 3 is_stmt 1              @ ../Drivers/STM32H7xx_HAL_Driver/Src/stm32h7xx_hal_rcc_ex.c:2894:3
	add	sp, #16
	pop	{r4, pc}
.Ltmp678:
	.p2align	2
.LBB4_71:
	.loc	5 0 3 is_stmt 0                 @ ../Drivers/STM32H7xx_HAL_Driver/Src/stm32h7xx_hal_rcc_ex.c:0:3
	add	r0, sp, #4
.Ltmp679:
	bl	HAL_RCCEx_GetPLL1ClockFreq
.Ltmp680:
	ldr	r0, [sp, #8]
.Ltmp681:
	@DEBUG_VALUE: HAL_RCCEx_GetPeriphCLKFreq:frequency <- $r0
	@DEBUG_VALUE: HAL_RCCEx_GetPeriphCLKFreq:frequency <- $r0
	.loc	5 2894 3                        @ ../Drivers/STM32H7xx_HAL_Driver/Src/stm32h7xx_hal_rcc_ex.c:2894:3
	add	sp, #16
	pop	{r4, pc}
.Ltmp682:
	.p2align	2
.LBB4_72:
	@DEBUG_VALUE: HAL_RCCEx_GetPeriphCLKFreq:srcclk <- $r1
	.loc	5 2672 26 is_stmt 1             @ ../Drivers/STM32H7xx_HAL_Driver/Src/stm32h7xx_hal_rcc_ex.c:2672:26
	ldr	r1, [r0, #76]
.Ltmp683:
	.loc	5 2674 14                       @ ../Drivers/STM32H7xx_HAL_Driver/Src/stm32h7xx_hal_rcc_ex.c:2674:14
	ldr	r2, [r0]
	.loc	5 2674 54 is_stmt 0             @ ../Drivers/STM32H7xx_HAL_Driver/Src/stm32h7xx_hal_rcc_ex.c:2674:54
	lsls	r2, r2, #29
.Ltmp684:
	.loc	5 2672 26 is_stmt 1             @ ../Drivers/STM32H7xx_HAL_Driver/Src/stm32h7xx_hal_rcc_ex.c:2672:26
	and	r1, r1, #805306368
.Ltmp685:
	@DEBUG_VALUE: HAL_RCCEx_GetPeriphCLKFreq:ckpclocksource <- $r1
	.loc	5 0 0 is_stmt 0                 @ ../Drivers/STM32H7xx_HAL_Driver/Src/stm32h7xx_hal_rcc_ex.c:0:0
	ldr	r2, [r0]
	.loc	5 2674 54 is_stmt 1             @ ../Drivers/STM32H7xx_HAL_Driver/Src/stm32h7xx_hal_rcc_ex.c:2674:54
	bpl.w	.LBB4_104
.Ltmp686:
@ %bb.73:
	@DEBUG_VALUE: HAL_RCCEx_GetPeriphCLKFreq:ckpclocksource <- $r1
	cmp	r1, #0
	bne.w	.LBB4_104
.Ltmp687:
@ %bb.74:
	@DEBUG_VALUE: HAL_RCCEx_GetPeriphCLKFreq:ckpclocksource <- $r1
	.loc	5 2677 66                       @ ../Drivers/STM32H7xx_HAL_Driver/Src/stm32h7xx_hal_rcc_ex.c:2677:66
	ubfx	r0, r2, #3, #2
	b	.LBB4_101
.Ltmp688:
	.p2align	2
.LBB4_75:
	@DEBUG_VALUE: HAL_RCCEx_GetPeriphCLKFreq:srcclk <- $r1
	.loc	5 2657 13                       @ ../Drivers/STM32H7xx_HAL_Driver/Src/stm32h7xx_hal_rcc_ex.c:2657:13
	ldr	r0, [r0]
.Ltmp689:
	.loc	5 2657 13 is_stmt 0             @ ../Drivers/STM32H7xx_HAL_Driver/Src/stm32h7xx_hal_rcc_ex.c:2657:13
	lsls	r0, r0, #2
	bpl	.LBB4_70
.Ltmp690:
@ %bb.76:
	@DEBUG_VALUE: HAL_RCCEx_GetPeriphCLKFreq:srcclk <- $r1
	.loc	5 0 13                          @ ../Drivers/STM32H7xx_HAL_Driver/Src/stm32h7xx_hal_rcc_ex.c:0:13
	add	r0, sp, #4
.Ltmp691:
	.loc	5 2659 11 is_stmt 1             @ ../Drivers/STM32H7xx_HAL_Driver/Src/stm32h7xx_hal_rcc_ex.c:2659:11
	bl	HAL_RCCEx_GetPLL3ClockFreq
.Ltmp692:
	.loc	5 0 0 is_stmt 0                 @ ../Drivers/STM32H7xx_HAL_Driver/Src/stm32h7xx_hal_rcc_ex.c:0:0
	ldr	r0, [sp, #12]
.Ltmp693:
	@DEBUG_VALUE: HAL_RCCEx_GetPeriphCLKFreq:frequency <- $r0
	@DEBUG_VALUE: HAL_RCCEx_GetPeriphCLKFreq:frequency <- $r0
	.loc	5 2894 3 is_stmt 1              @ ../Drivers/STM32H7xx_HAL_Driver/Src/stm32h7xx_hal_rcc_ex.c:2894:3
	add	sp, #16
	pop	{r4, pc}
.Ltmp694:
	.p2align	2
.LBB4_77:
	@DEBUG_VALUE: HAL_RCCEx_GetPeriphCLKFreq:srcclk <- $r1
	@DEBUG_VALUE: HAL_RCCEx_GetPeriphCLKFreq:PeriphClk <- [DW_OP_LLVM_fragment 0 32] $r2
	.loc	5 2871 13                       @ ../Drivers/STM32H7xx_HAL_Driver/Src/stm32h7xx_hal_rcc_ex.c:2871:13
	ldr	r0, [r0]
.Ltmp695:
	.loc	5 2871 13 is_stmt 0             @ ../Drivers/STM32H7xx_HAL_Driver/Src/stm32h7xx_hal_rcc_ex.c:2871:13
	lsls	r0, r0, #4
	bpl	.LBB4_70
.Ltmp696:
@ %bb.78:
	@DEBUG_VALUE: HAL_RCCEx_GetPeriphCLKFreq:srcclk <- $r1
	@DEBUG_VALUE: HAL_RCCEx_GetPeriphCLKFreq:PeriphClk <- [DW_OP_LLVM_fragment 0 32] $r2
	.loc	5 0 13                          @ ../Drivers/STM32H7xx_HAL_Driver/Src/stm32h7xx_hal_rcc_ex.c:0:13
	add	r0, sp, #4
.Ltmp697:
	.loc	5 2873 11 is_stmt 1             @ ../Drivers/STM32H7xx_HAL_Driver/Src/stm32h7xx_hal_rcc_ex.c:2873:11
	bl	HAL_RCCEx_GetPLL2ClockFreq
.Ltmp698:
	.loc	5 2874 35                       @ ../Drivers/STM32H7xx_HAL_Driver/Src/stm32h7xx_hal_rcc_ex.c:2874:35
	ldr	r0, [sp, #8]
.Ltmp699:
	@DEBUG_VALUE: HAL_RCCEx_GetPeriphCLKFreq:frequency <- $r0
.LBB4_79:
	@DEBUG_VALUE: HAL_RCCEx_GetPeriphCLKFreq:frequency <- $r0
	.loc	5 2894 3                        @ ../Drivers/STM32H7xx_HAL_Driver/Src/stm32h7xx_hal_rcc_ex.c:2894:3
	add	sp, #16
	pop	{r4, pc}
.Ltmp700:
	.p2align	2
.LBB4_80:
	.loc	5 2420 26                       @ ../Drivers/STM32H7xx_HAL_Driver/Src/stm32h7xx_hal_rcc_ex.c:2420:26
	ldr	r0, [r1, #76]
.Ltmp701:
	.loc	5 2422 14                       @ ../Drivers/STM32H7xx_HAL_Driver/Src/stm32h7xx_hal_rcc_ex.c:2422:14
	ldr	r2, [r1]
	.loc	5 2422 54 is_stmt 0             @ ../Drivers/STM32H7xx_HAL_Driver/Src/stm32h7xx_hal_rcc_ex.c:2422:54
	lsls	r2, r2, #29
.Ltmp702:
	.loc	5 2420 26 is_stmt 1             @ ../Drivers/STM32H7xx_HAL_Driver/Src/stm32h7xx_hal_rcc_ex.c:2420:26
	and	r2, r0, #805306368
.Ltmp703:
	@DEBUG_VALUE: HAL_RCCEx_GetPeriphCLKFreq:ckpclocksource <- $r2
	.loc	5 0 0 is_stmt 0                 @ ../Drivers/STM32H7xx_HAL_Driver/Src/stm32h7xx_hal_rcc_ex.c:0:0
	ldr	r0, [r1]
	.loc	5 2422 54 is_stmt 1             @ ../Drivers/STM32H7xx_HAL_Driver/Src/stm32h7xx_hal_rcc_ex.c:2422:54
	bpl	.LBB4_82
.Ltmp704:
@ %bb.81:
	@DEBUG_VALUE: HAL_RCCEx_GetPeriphCLKFreq:ckpclocksource <- $r2
	cmp	r2, #0
	beq	.LBB4_100
.Ltmp705:
.LBB4_82:
	@DEBUG_VALUE: HAL_RCCEx_GetPeriphCLKFreq:ckpclocksource <- $r2
	.loc	5 2428 59                       @ ../Drivers/STM32H7xx_HAL_Driver/Src/stm32h7xx_hal_rcc_ex.c:2428:59
	lsls	r0, r0, #23
	bpl	.LBB4_84
.Ltmp706:
@ %bb.83:
	@DEBUG_VALUE: HAL_RCCEx_GetPeriphCLKFreq:ckpclocksource <- $r2
	cmp.w	r2, #268435456
	beq	.LBB4_106
.Ltmp707:
.LBB4_84:
	@DEBUG_VALUE: HAL_RCCEx_GetPeriphCLKFreq:ckpclocksource <- $r2
	.loc	5 0 0 is_stmt 0                 @ ../Drivers/STM32H7xx_HAL_Driver/Src/stm32h7xx_hal_rcc_ex.c:0:0
	ldr	r0, [r1]
	cmp.w	r2, #536870912
	and	r1, r0, #131072
	mov.w	r0, #0
	itt	eq
	movweq	r0, #30784
	movteq	r0, #381
	cmp	r1, #0
	it	eq
	moveq	r0, r1
.Ltmp708:
	@DEBUG_VALUE: HAL_RCCEx_GetPeriphCLKFreq:frequency <- $r0
	.loc	5 2894 3 is_stmt 1              @ ../Drivers/STM32H7xx_HAL_Driver/Src/stm32h7xx_hal_rcc_ex.c:2894:3
	add	sp, #16
	pop	{r4, pc}
.Ltmp709:
	.p2align	2
.LBB4_85:
	.loc	5 2763 13                       @ ../Drivers/STM32H7xx_HAL_Driver/Src/stm32h7xx_hal_rcc_ex.c:2763:13
	ldr	r0, [r4]
	b	.LBB4_93
.Ltmp710:
	.p2align	2
.LBB4_86:
	.loc	5 2776 13                       @ ../Drivers/STM32H7xx_HAL_Driver/Src/stm32h7xx_hal_rcc_ex.c:2776:13
	ldr	r0, [r4]
	b	.LBB4_96
.Ltmp711:
	.p2align	2
.LBB4_87:
	.loc	5 2789 13                       @ ../Drivers/STM32H7xx_HAL_Driver/Src/stm32h7xx_hal_rcc_ex.c:2789:13
	ldr	r0, [r4]
.Ltmp712:
	.loc	5 2789 13 is_stmt 0             @ ../Drivers/STM32H7xx_HAL_Driver/Src/stm32h7xx_hal_rcc_ex.c:2789:13
	lsls	r0, r0, #29
	bpl	.LBB4_70
@ %bb.88:
.Ltmp713:
	.loc	5 2791 38 is_stmt 1             @ ../Drivers/STM32H7xx_HAL_Driver/Src/stm32h7xx_hal_rcc_ex.c:2791:38
	ldr	r0, [r4]
	b	.LBB4_100
.Ltmp714:
	.p2align	2
.LBB4_89:
	.loc	5 2801 13                       @ ../Drivers/STM32H7xx_HAL_Driver/Src/stm32h7xx_hal_rcc_ex.c:2801:13
	ldr	r0, [r4]
	b	.LBB4_103
.Ltmp715:
	.p2align	2
.LBB4_90:
	.loc	5 2813 13                       @ ../Drivers/STM32H7xx_HAL_Driver/Src/stm32h7xx_hal_rcc_ex.c:2813:13
	ldr	r0, [r4]
.Ltmp716:
.LBB4_91:
	.loc	5 0 13 is_stmt 0                @ ../Drivers/STM32H7xx_HAL_Driver/Src/stm32h7xx_hal_rcc_ex.c:0:13
	movw	r1, #30784
	lsls	r0, r0, #14
	movt	r1, #381
	and.w	r0, r1, r0, asr #31
.Ltmp717:
	@DEBUG_VALUE: HAL_RCCEx_GetPeriphCLKFreq:frequency <- $r0
	.loc	5 2894 3 is_stmt 1              @ ../Drivers/STM32H7xx_HAL_Driver/Src/stm32h7xx_hal_rcc_ex.c:2894:3
	add	sp, #16
	pop	{r4, pc}
.Ltmp718:
	.p2align	2
.LBB4_92:
	.loc	5 2568 13                       @ ../Drivers/STM32H7xx_HAL_Driver/Src/stm32h7xx_hal_rcc_ex.c:2568:13
	ldr	r0, [r0]
.Ltmp719:
.LBB4_93:
	.loc	5 0 0 is_stmt 0                 @ ../Drivers/STM32H7xx_HAL_Driver/Src/stm32h7xx_hal_rcc_ex.c:0:0
	lsls	r0, r0, #4
	bpl	.LBB4_70
@ %bb.94:
	add	r0, sp, #4
	bl	HAL_RCCEx_GetPLL2ClockFreq
.Ltmp720:
	ldr	r0, [sp, #8]
.Ltmp721:
	@DEBUG_VALUE: HAL_RCCEx_GetPeriphCLKFreq:frequency <- $r0
	@DEBUG_VALUE: HAL_RCCEx_GetPeriphCLKFreq:frequency <- $r0
	.loc	5 2894 3 is_stmt 1              @ ../Drivers/STM32H7xx_HAL_Driver/Src/stm32h7xx_hal_rcc_ex.c:2894:3
	add	sp, #16
	pop	{r4, pc}
.Ltmp722:
	.p2align	2
.LBB4_95:
	.loc	5 2581 13                       @ ../Drivers/STM32H7xx_HAL_Driver/Src/stm32h7xx_hal_rcc_ex.c:2581:13
	ldr	r0, [r0]
.Ltmp723:
.LBB4_96:
	.loc	5 0 0 is_stmt 0                 @ ../Drivers/STM32H7xx_HAL_Driver/Src/stm32h7xx_hal_rcc_ex.c:0:0
	lsls	r0, r0, #2
	bpl.w	.LBB4_70
@ %bb.97:
	add	r0, sp, #4
	bl	HAL_RCCEx_GetPLL3ClockFreq
.Ltmp724:
	ldr	r0, [sp, #8]
.Ltmp725:
	@DEBUG_VALUE: HAL_RCCEx_GetPeriphCLKFreq:frequency <- $r0
	@DEBUG_VALUE: HAL_RCCEx_GetPeriphCLKFreq:frequency <- $r0
	.loc	5 2894 3 is_stmt 1              @ ../Drivers/STM32H7xx_HAL_Driver/Src/stm32h7xx_hal_rcc_ex.c:2894:3
	add	sp, #16
	pop	{r4, pc}
.Ltmp726:
	.p2align	2
.LBB4_98:
	.loc	5 2594 13                       @ ../Drivers/STM32H7xx_HAL_Driver/Src/stm32h7xx_hal_rcc_ex.c:2594:13
	ldr	r1, [r0]
.Ltmp727:
	.loc	5 2594 13 is_stmt 0             @ ../Drivers/STM32H7xx_HAL_Driver/Src/stm32h7xx_hal_rcc_ex.c:2594:13
	lsls	r1, r1, #29
	bpl.w	.LBB4_70
@ %bb.99:
.Ltmp728:
	.loc	5 2596 38 is_stmt 1             @ ../Drivers/STM32H7xx_HAL_Driver/Src/stm32h7xx_hal_rcc_ex.c:2596:38
	ldr	r0, [r0]
.Ltmp729:
.LBB4_100:
	.loc	5 0 0 is_stmt 0                 @ ../Drivers/STM32H7xx_HAL_Driver/Src/stm32h7xx_hal_rcc_ex.c:0:0
	ubfx	r0, r0, #3, #2
.LBB4_101:
	movw	r1, #36864
	movt	r1, #976
	lsr.w	r0, r1, r0
.Ltmp730:
	@DEBUG_VALUE: HAL_RCCEx_GetPeriphCLKFreq:frequency <- $r0
	@DEBUG_VALUE: HAL_RCCEx_GetPeriphCLKFreq:frequency <- $r0
	.loc	5 2894 3 is_stmt 1              @ ../Drivers/STM32H7xx_HAL_Driver/Src/stm32h7xx_hal_rcc_ex.c:2894:3
	add	sp, #16
	pop	{r4, pc}
.Ltmp731:
	.p2align	2
.LBB4_102:
	.loc	5 2606 13                       @ ../Drivers/STM32H7xx_HAL_Driver/Src/stm32h7xx_hal_rcc_ex.c:2606:13
	ldr	r0, [r0]
.Ltmp732:
.LBB4_103:
	.loc	5 0 13 is_stmt 0                @ ../Drivers/STM32H7xx_HAL_Driver/Src/stm32h7xx_hal_rcc_ex.c:0:13
	movw	r1, #2304
	lsls	r0, r0, #23
	movt	r1, #61
	and.w	r0, r1, r0, asr #31
.Ltmp733:
	@DEBUG_VALUE: HAL_RCCEx_GetPeriphCLKFreq:frequency <- $r0
	.loc	5 2894 3 is_stmt 1              @ ../Drivers/STM32H7xx_HAL_Driver/Src/stm32h7xx_hal_rcc_ex.c:2894:3
	add	sp, #16
	pop	{r4, pc}
.Ltmp734:
	.p2align	2
.LBB4_104:
	@DEBUG_VALUE: HAL_RCCEx_GetPeriphCLKFreq:ckpclocksource <- $r1
	.loc	5 2680 59                       @ ../Drivers/STM32H7xx_HAL_Driver/Src/stm32h7xx_hal_rcc_ex.c:2680:59
	lsls	r2, r2, #23
	bpl	.LBB4_107
.Ltmp735:
@ %bb.105:
	@DEBUG_VALUE: HAL_RCCEx_GetPeriphCLKFreq:ckpclocksource <- $r1
	cmp.w	r1, #268435456
	bne	.LBB4_107
.Ltmp736:
.LBB4_106:
	.loc	5 0 59 is_stmt 0                @ ../Drivers/STM32H7xx_HAL_Driver/Src/stm32h7xx_hal_rcc_ex.c:0:59
	movw	r0, #2304
	movt	r0, #61
.Ltmp737:
	@DEBUG_VALUE: HAL_RCCEx_GetPeriphCLKFreq:frequency <- $r0
	.loc	5 2894 3 is_stmt 1              @ ../Drivers/STM32H7xx_HAL_Driver/Src/stm32h7xx_hal_rcc_ex.c:2894:3
	add	sp, #16
	pop	{r4, pc}
.Ltmp738:
	.p2align	2
.LBB4_107:
	@DEBUG_VALUE: HAL_RCCEx_GetPeriphCLKFreq:ckpclocksource <- $r1
	.loc	5 2686 19                       @ ../Drivers/STM32H7xx_HAL_Driver/Src/stm32h7xx_hal_rcc_ex.c:2686:19
	ldr	r0, [r0]
	cmp.w	r1, #536870912
	and	r2, r0, #131072
	mov.w	r0, #0
	itt	eq
	movweq	r0, #30784
	movteq	r0, #381
	cmp	r2, #0
	it	eq
	moveq	r0, r2
.Ltmp739:
	@DEBUG_VALUE: HAL_RCCEx_GetPeriphCLKFreq:frequency <- $r0
	.loc	5 2894 3                        @ ../Drivers/STM32H7xx_HAL_Driver/Src/stm32h7xx_hal_rcc_ex.c:2894:3
	add	sp, #16
	pop	{r4, pc}
.Ltmp740:
.Lfunc_end4:
	.size	HAL_RCCEx_GetPeriphCLKFreq, .Lfunc_end4-HAL_RCCEx_GetPeriphCLKFreq
	.cfi_endproc
	.file	6 "F:\\3.git\\1.Github\\ExFlash_Algorithm\\embedfire\\Algorithm_QSPI\\STLDR\\MDK-ARM" "../Drivers/STM32H7xx_HAL_Driver/Inc\\stm32h7xx_hal_rcc.h"
	.cantunwind
	.fnend
                                        @ -- End function
	.hidden	HAL_RCCEx_GetPLL1ClockFreq      @ -- Begin function HAL_RCCEx_GetPLL1ClockFreq
	.globl	HAL_RCCEx_GetPLL1ClockFreq
	.p2align	3
	.type	HAL_RCCEx_GetPLL1ClockFreq,%function
	.code	16                              @ @HAL_RCCEx_GetPLL1ClockFreq
	.thumb_func
HAL_RCCEx_GetPLL1ClockFreq:
.Lfunc_begin5:
	.loc	5 3083 0                        @ ../Drivers/STM32H7xx_HAL_Driver/Src/stm32h7xx_hal_rcc_ex.c:3083:0
	.fnstart
	.cfi_startproc
@ %bb.0:
	@DEBUG_VALUE: HAL_RCCEx_GetPLL1ClockFreq:PLL1_Clocks <- $r0
	.save	{r7, lr}
	push	{r7, lr}
	.cfi_def_cfa_offset 8
	.cfi_offset lr, -4
	.cfi_offset r7, -8
	movw	lr, #17456
	movt	lr, #22530
.Ltmp741:
	.loc	5 3087 21 prologue_end          @ ../Drivers/STM32H7xx_HAL_Driver/Src/stm32h7xx_hal_rcc_ex.c:3087:21
	ldr	r3, [lr, #-8]
.Ltmp742:
	@DEBUG_VALUE: HAL_RCCEx_GetPLL1ClockFreq:pllsource <- [DW_OP_constu 3, DW_OP_and, DW_OP_stack_value] $r3
	.loc	5 3088 18                       @ ../Drivers/STM32H7xx_HAL_Driver/Src/stm32h7xx_hal_rcc_ex.c:3088:18
	ldr	r1, [lr, #-8]
	.loc	5 3088 51 is_stmt 0             @ ../Drivers/STM32H7xx_HAL_Driver/Src/stm32h7xx_hal_rcc_ex.c:3088:51
	ubfx	r12, r1, #4, #6
.Ltmp743:
	@DEBUG_VALUE: HAL_RCCEx_GetPLL1ClockFreq:pll1m <- $r12
	.loc	5 3089 21 is_stmt 1             @ ../Drivers/STM32H7xx_HAL_Driver/Src/stm32h7xx_hal_rcc_ex.c:3089:21
	ldr	r1, [lr, #-4]
.Ltmp744:
	@DEBUG_VALUE: HAL_RCCEx_GetPLL1ClockFreq:pll1fracen <- [DW_OP_constu 1, DW_OP_and, DW_OP_stack_value] $r1
	.loc	5 3092 7                        @ ../Drivers/STM32H7xx_HAL_Driver/Src/stm32h7xx_hal_rcc_ex.c:3092:7
	cmp.w	r12, #0
	.loc	5 3090 52                       @ ../Drivers/STM32H7xx_HAL_Driver/Src/stm32h7xx_hal_rcc_ex.c:3090:52
	ldr.w	r2, [lr, #4]
.Ltmp745:
	@DEBUG_VALUE: HAL_RCCEx_GetPLL1ClockFreq:fracn1 <- undef
	.loc	5 3092 7                        @ ../Drivers/STM32H7xx_HAL_Driver/Src/stm32h7xx_hal_rcc_ex.c:3092:7
	beq	.LBB5_6
.Ltmp746:
@ %bb.1:
	@DEBUG_VALUE: HAL_RCCEx_GetPLL1ClockFreq:pll1fracen <- [DW_OP_constu 1, DW_OP_and, DW_OP_stack_value] $r1
	@DEBUG_VALUE: HAL_RCCEx_GetPLL1ClockFreq:pll1m <- $r12
	@DEBUG_VALUE: HAL_RCCEx_GetPLL1ClockFreq:pllsource <- [DW_OP_constu 3, DW_OP_and, DW_OP_stack_value] $r3
	@DEBUG_VALUE: HAL_RCCEx_GetPLL1ClockFreq:PLL1_Clocks <- $r0
	.loc	5 0 0 is_stmt 0                 @ ../Drivers/STM32H7xx_HAL_Driver/Src/stm32h7xx_hal_rcc_ex.c:0:0
	and	r1, r1, #1
.Ltmp747:
	.loc	5 3087 31 is_stmt 1             @ ../Drivers/STM32H7xx_HAL_Driver/Src/stm32h7xx_hal_rcc_ex.c:3087:31
	and	r3, r3, #3
.Ltmp748:
	@DEBUG_VALUE: HAL_RCCEx_GetPLL1ClockFreq:pllsource <- $r3
	.loc	5 0 0 is_stmt 0                 @ ../Drivers/STM32H7xx_HAL_Driver/Src/stm32h7xx_hal_rcc_ex.c:0:0
	rsbs	r1, r1, #0
.Ltmp749:
	.loc	5 3094 5 is_stmt 1              @ ../Drivers/STM32H7xx_HAL_Driver/Src/stm32h7xx_hal_rcc_ex.c:3094:5
	cmp	r3, #2
.Ltmp750:
	.loc	5 0 0 is_stmt 0                 @ ../Drivers/STM32H7xx_HAL_Driver/Src/stm32h7xx_hal_rcc_ex.c:0:0
	and.w	r1, r1, r2, lsr #3
	bfc	r1, #13, #19
	vmov	s0, r1
	vcvt.f32.u32	s0, s0
.Ltmp751:
	@DEBUG_VALUE: HAL_RCCEx_GetPLL1ClockFreq:fracn1 <- $s0
	.loc	5 3094 5                        @ ../Drivers/STM32H7xx_HAL_Driver/Src/stm32h7xx_hal_rcc_ex.c:3094:5
	beq	.LBB5_7
.Ltmp752:
@ %bb.2:
	@DEBUG_VALUE: HAL_RCCEx_GetPLL1ClockFreq:fracn1 <- $s0
	@DEBUG_VALUE: HAL_RCCEx_GetPLL1ClockFreq:pllsource <- $r3
	@DEBUG_VALUE: HAL_RCCEx_GetPLL1ClockFreq:pll1m <- $r12
	@DEBUG_VALUE: HAL_RCCEx_GetPLL1ClockFreq:PLL1_Clocks <- $r0
	cmp	r3, #1
	beq	.LBB5_8
.Ltmp753:
@ %bb.3:
	@DEBUG_VALUE: HAL_RCCEx_GetPLL1ClockFreq:fracn1 <- $s0
	@DEBUG_VALUE: HAL_RCCEx_GetPLL1ClockFreq:pllsource <- $r3
	@DEBUG_VALUE: HAL_RCCEx_GetPLL1ClockFreq:pll1m <- $r12
	@DEBUG_VALUE: HAL_RCCEx_GetPLL1ClockFreq:PLL1_Clocks <- $r0
	cbnz	r3, .LBB5_5
.Ltmp754:
@ %bb.4:
	@DEBUG_VALUE: HAL_RCCEx_GetPLL1ClockFreq:fracn1 <- $s0
	@DEBUG_VALUE: HAL_RCCEx_GetPLL1ClockFreq:pllsource <- $r3
	@DEBUG_VALUE: HAL_RCCEx_GetPLL1ClockFreq:pll1m <- $r12
	@DEBUG_VALUE: HAL_RCCEx_GetPLL1ClockFreq:PLL1_Clocks <- $r0
	.loc	5 3099 13 is_stmt 1             @ ../Drivers/STM32H7xx_HAL_Driver/Src/stm32h7xx_hal_rcc_ex.c:3099:13
	ldr	r1, [lr, #-48]
.Ltmp755:
	.loc	5 3099 13 is_stmt 0             @ ../Drivers/STM32H7xx_HAL_Driver/Src/stm32h7xx_hal_rcc_ex.c:3099:13
	lsls	r1, r1, #26
	bmi	.LBB5_9
.Ltmp756:
.LBB5_5:
	@DEBUG_VALUE: HAL_RCCEx_GetPLL1ClockFreq:fracn1 <- $s0
	@DEBUG_VALUE: HAL_RCCEx_GetPLL1ClockFreq:pllsource <- $r3
	@DEBUG_VALUE: HAL_RCCEx_GetPLL1ClockFreq:pll1m <- $r12
	@DEBUG_VALUE: HAL_RCCEx_GetPLL1ClockFreq:PLL1_Clocks <- $r0
	.loc	5 0 13                          @ ../Drivers/STM32H7xx_HAL_Driver/Src/stm32h7xx_hal_rcc_ex.c:0:13
	vldr	s2, .LCPI5_2
.Ltmp757:
	@DEBUG_VALUE: HAL_RCCEx_GetPLL1ClockFreq:pll1vco <- undef
	b	.LBB5_10
.Ltmp758:
	.p2align	2
.LBB5_6:
	@DEBUG_VALUE: HAL_RCCEx_GetPLL1ClockFreq:pll1fracen <- [DW_OP_constu 1, DW_OP_and, DW_OP_stack_value] $r1
	@DEBUG_VALUE: HAL_RCCEx_GetPLL1ClockFreq:pll1m <- $r12
	@DEBUG_VALUE: HAL_RCCEx_GetPLL1ClockFreq:pllsource <- [DW_OP_constu 3, DW_OP_and, DW_OP_stack_value] $r3
	@DEBUG_VALUE: HAL_RCCEx_GetPLL1ClockFreq:PLL1_Clocks <- $r0
	movs	r1, #0
.Ltmp759:
	str	r1, [r0, #8]
.Ltmp760:
	.loc	5 3128 35 is_stmt 1             @ ../Drivers/STM32H7xx_HAL_Driver/Src/stm32h7xx_hal_rcc_ex.c:3128:35
	strd	r1, r1, [r0]
.Ltmp761:
	.loc	5 3133 1                        @ ../Drivers/STM32H7xx_HAL_Driver/Src/stm32h7xx_hal_rcc_ex.c:3133:1
	pop	{r7, pc}
.Ltmp762:
	.p2align	2
.LBB5_7:
	@DEBUG_VALUE: HAL_RCCEx_GetPLL1ClockFreq:fracn1 <- $s0
	@DEBUG_VALUE: HAL_RCCEx_GetPLL1ClockFreq:pllsource <- $r3
	@DEBUG_VALUE: HAL_RCCEx_GetPLL1ClockFreq:pll1m <- $r12
	@DEBUG_VALUE: HAL_RCCEx_GetPLL1ClockFreq:PLL1_Clocks <- $r0
	@DEBUG_VALUE: HAL_RCCEx_GetPLL1ClockFreq:pll1vco <- undef
	.loc	5 0 1 is_stmt 0                 @ ../Drivers/STM32H7xx_HAL_Driver/Src/stm32h7xx_hal_rcc_ex.c:0:1
	vldr	s2, .LCPI5_1
	b	.LBB5_10
.Ltmp763:
	.p2align	2
.LBB5_8:
	@DEBUG_VALUE: HAL_RCCEx_GetPLL1ClockFreq:fracn1 <- $s0
	@DEBUG_VALUE: HAL_RCCEx_GetPLL1ClockFreq:pllsource <- $r3
	@DEBUG_VALUE: HAL_RCCEx_GetPLL1ClockFreq:pll1m <- $r12
	@DEBUG_VALUE: HAL_RCCEx_GetPLL1ClockFreq:PLL1_Clocks <- $r0
	vldr	s2, .LCPI5_0
	b	.LBB5_10
.Ltmp764:
	.p2align	2
.LBB5_9:
	@DEBUG_VALUE: HAL_RCCEx_GetPLL1ClockFreq:fracn1 <- $s0
	@DEBUG_VALUE: HAL_RCCEx_GetPLL1ClockFreq:pllsource <- $r3
	@DEBUG_VALUE: HAL_RCCEx_GetPLL1ClockFreq:pll1m <- $r12
	@DEBUG_VALUE: HAL_RCCEx_GetPLL1ClockFreq:PLL1_Clocks <- $r0
	.loc	5 3101 37 is_stmt 1             @ ../Drivers/STM32H7xx_HAL_Driver/Src/stm32h7xx_hal_rcc_ex.c:3101:37
	ldr	r1, [lr, #-48]
	movw	r2, #36864
	movt	r2, #976
	.loc	5 3101 65 is_stmt 0             @ ../Drivers/STM32H7xx_HAL_Driver/Src/stm32h7xx_hal_rcc_ex.c:3101:65
	ubfx	r1, r1, #3, #2
	.loc	5 3101 33                       @ ../Drivers/STM32H7xx_HAL_Driver/Src/stm32h7xx_hal_rcc_ex.c:3101:33
	lsr.w	r1, r2, r1
.Ltmp765:
	@DEBUG_VALUE: HAL_RCCEx_GetPLL1ClockFreq:hsivalue <- $r1
	.loc	5 3102 22 is_stmt 1             @ ../Drivers/STM32H7xx_HAL_Driver/Src/stm32h7xx_hal_rcc_ex.c:3102:22
	vmov	s2, r1
.Ltmp766:
	@DEBUG_VALUE: HAL_RCCEx_GetPLL1ClockFreq:hsivalue <- $s2
	vcvt.f32.u32	s2, s2
.Ltmp767:
.LBB5_10:
	@DEBUG_VALUE: HAL_RCCEx_GetPLL1ClockFreq:fracn1 <- $s0
	@DEBUG_VALUE: HAL_RCCEx_GetPLL1ClockFreq:pllsource <- $r3
	@DEBUG_VALUE: HAL_RCCEx_GetPLL1ClockFreq:pll1m <- $r12
	@DEBUG_VALUE: HAL_RCCEx_GetPLL1ClockFreq:PLL1_Clocks <- $r0
	.loc	5 0 0 is_stmt 0                 @ ../Drivers/STM32H7xx_HAL_Driver/Src/stm32h7xx_hal_rcc_ex.c:0:0
	ldr.w	r1, [lr]
	vldr	s6, .LCPI5_3
	bfc	r1, #9, #23
	vmov	s4, r1
.Ltmp768:
	.loc	5 3122 94 is_stmt 1             @ ../Drivers/STM32H7xx_HAL_Driver/Src/stm32h7xx_hal_rcc_ex.c:3122:94
	ldr.w	r1, [lr]
	.loc	5 3122 122 is_stmt 0            @ ../Drivers/STM32H7xx_HAL_Driver/Src/stm32h7xx_hal_rcc_ex.c:3122:122
	ubfx	r1, r1, #9, #7
.Ltmp769:
	.loc	5 0 0                           @ ../Drivers/STM32H7xx_HAL_Driver/Src/stm32h7xx_hal_rcc_ex.c:0:0
	vcvt.f32.u32	s4, s4
	vmla.f32	s4, s0, s6
	vmov	s0, r12
.Ltmp770:
	vmov.f32	s6, #1.000000e+00
	vcvt.f32.u32	s0, s0
	vdiv.f32	s0, s2, s0
	vadd.f32	s2, s4, s6
.Ltmp771:
	.loc	5 3122 68                       @ ../Drivers/STM32H7xx_HAL_Driver/Src/stm32h7xx_hal_rcc_ex.c:3122:68
	vmov	s4, r1
	vcvt.f32.u32	s4, s4
.Ltmp772:
	.loc	5 0 0                           @ ../Drivers/STM32H7xx_HAL_Driver/Src/stm32h7xx_hal_rcc_ex.c:0:0
	vmul.f32	s0, s0, s2
.Ltmp773:
	@DEBUG_VALUE: HAL_RCCEx_GetPLL1ClockFreq:pll1vco <- $s0
	.loc	5 3122 129                      @ ../Drivers/STM32H7xx_HAL_Driver/Src/stm32h7xx_hal_rcc_ex.c:3122:129
	vadd.f32	s2, s4, s6
	.loc	5 3122 65                       @ ../Drivers/STM32H7xx_HAL_Driver/Src/stm32h7xx_hal_rcc_ex.c:3122:65
	vdiv.f32	s2, s0, s2
	.loc	5 3122 35                       @ ../Drivers/STM32H7xx_HAL_Driver/Src/stm32h7xx_hal_rcc_ex.c:3122:35
	vcvt.u32.f32	s2, s2
	vstr	s2, [r0]
	.loc	5 3123 94 is_stmt 1             @ ../Drivers/STM32H7xx_HAL_Driver/Src/stm32h7xx_hal_rcc_ex.c:3123:94
	ldr.w	r1, [lr]
	.loc	5 3123 122 is_stmt 0            @ ../Drivers/STM32H7xx_HAL_Driver/Src/stm32h7xx_hal_rcc_ex.c:3123:122
	ubfx	r1, r1, #16, #7
	.loc	5 3123 68                       @ ../Drivers/STM32H7xx_HAL_Driver/Src/stm32h7xx_hal_rcc_ex.c:3123:68
	vmov	s2, r1
	vcvt.f32.u32	s2, s2
	.loc	5 3123 129                      @ ../Drivers/STM32H7xx_HAL_Driver/Src/stm32h7xx_hal_rcc_ex.c:3123:129
	vadd.f32	s2, s2, s6
	.loc	5 3123 65                       @ ../Drivers/STM32H7xx_HAL_Driver/Src/stm32h7xx_hal_rcc_ex.c:3123:65
	vdiv.f32	s2, s0, s2
	.loc	5 3123 35                       @ ../Drivers/STM32H7xx_HAL_Driver/Src/stm32h7xx_hal_rcc_ex.c:3123:35
	vcvt.u32.f32	s2, s2
	vstr	s2, [r0, #4]
	.loc	5 3124 94 is_stmt 1             @ ../Drivers/STM32H7xx_HAL_Driver/Src/stm32h7xx_hal_rcc_ex.c:3124:94
	ldr.w	r1, [lr]
	.loc	5 3124 122 is_stmt 0            @ ../Drivers/STM32H7xx_HAL_Driver/Src/stm32h7xx_hal_rcc_ex.c:3124:122
	ubfx	r1, r1, #24, #7
	.loc	5 3124 68                       @ ../Drivers/STM32H7xx_HAL_Driver/Src/stm32h7xx_hal_rcc_ex.c:3124:68
	vmov	s2, r1
	vcvt.f32.u32	s2, s2
	.loc	5 3124 129                      @ ../Drivers/STM32H7xx_HAL_Driver/Src/stm32h7xx_hal_rcc_ex.c:3124:129
	vadd.f32	s2, s2, s6
	.loc	5 3124 65                       @ ../Drivers/STM32H7xx_HAL_Driver/Src/stm32h7xx_hal_rcc_ex.c:3124:65
	vdiv.f32	s0, s0, s2
.Ltmp774:
	.loc	5 3124 37                       @ ../Drivers/STM32H7xx_HAL_Driver/Src/stm32h7xx_hal_rcc_ex.c:3124:37
	vcvt.u32.f32	s0, s0
	vmov	r1, s0
.Ltmp775:
	.loc	5 0 0                           @ ../Drivers/STM32H7xx_HAL_Driver/Src/stm32h7xx_hal_rcc_ex.c:0:0
	str	r1, [r0, #8]
.Ltmp776:
	.loc	5 3133 1 is_stmt 1              @ ../Drivers/STM32H7xx_HAL_Driver/Src/stm32h7xx_hal_rcc_ex.c:3133:1
	pop	{r7, pc}
.Ltmp777:
	.p2align	2
@ %bb.11:
	.loc	5 0 1 is_stmt 0                 @ ../Drivers/STM32H7xx_HAL_Driver/Src/stm32h7xx_hal_rcc_ex.c:0:1
.LCPI5_0:
	.long	0x4a742400                      @ float 4.0E+6
.LCPI5_1:
	.long	0x4bbebc20                      @ float 2.5E+7
.LCPI5_2:
	.long	0x4c742400                      @ float 6.4E+7
.LCPI5_3:
	.long	0x39000000                      @ float 1.22070313E-4
.Lfunc_end5:
	.size	HAL_RCCEx_GetPLL1ClockFreq, .Lfunc_end5-HAL_RCCEx_GetPLL1ClockFreq
	.cfi_endproc
	.cantunwind
	.fnend
                                        @ -- End function
	.hidden	HAL_RCCEx_GetPLL2ClockFreq      @ -- Begin function HAL_RCCEx_GetPLL2ClockFreq
	.globl	HAL_RCCEx_GetPLL2ClockFreq
	.p2align	3
	.type	HAL_RCCEx_GetPLL2ClockFreq,%function
	.code	16                              @ @HAL_RCCEx_GetPLL2ClockFreq
	.thumb_func
HAL_RCCEx_GetPLL2ClockFreq:
.Lfunc_begin6:
	.loc	5 2946 0 is_stmt 1              @ ../Drivers/STM32H7xx_HAL_Driver/Src/stm32h7xx_hal_rcc_ex.c:2946:0
	.fnstart
	.cfi_startproc
@ %bb.0:
	@DEBUG_VALUE: HAL_RCCEx_GetPLL2ClockFreq:PLL2_Clocks <- $r0
	.save	{r7, lr}
	push	{r7, lr}
	.cfi_def_cfa_offset 8
	.cfi_offset lr, -4
	.cfi_offset r7, -8
	movw	lr, #17464
	movt	lr, #22530
.Ltmp778:
	.loc	5 2953 21 prologue_end          @ ../Drivers/STM32H7xx_HAL_Driver/Src/stm32h7xx_hal_rcc_ex.c:2953:21
	ldr	r3, [lr, #-16]
.Ltmp779:
	@DEBUG_VALUE: HAL_RCCEx_GetPLL2ClockFreq:pllsource <- [DW_OP_constu 3, DW_OP_and, DW_OP_stack_value] $r3
	.loc	5 2954 18                       @ ../Drivers/STM32H7xx_HAL_Driver/Src/stm32h7xx_hal_rcc_ex.c:2954:18
	ldr	r1, [lr, #-16]
	.loc	5 2955 22                       @ ../Drivers/STM32H7xx_HAL_Driver/Src/stm32h7xx_hal_rcc_ex.c:2955:22
	ldr	r2, [lr, #-12]
.Ltmp780:
	@DEBUG_VALUE: HAL_RCCEx_GetPLL2ClockFreq:pll2fracen <- [DW_OP_constu 4, DW_OP_shr, DW_OP_constu 1, DW_OP_and, DW_OP_stack_value] $r2
	.loc	5 2954 51                       @ ../Drivers/STM32H7xx_HAL_Driver/Src/stm32h7xx_hal_rcc_ex.c:2954:51
	ubfx	r12, r1, #12, #6
.Ltmp781:
	@DEBUG_VALUE: HAL_RCCEx_GetPLL2ClockFreq:pll2m <- $r12
	.loc	5 2956 52                       @ ../Drivers/STM32H7xx_HAL_Driver/Src/stm32h7xx_hal_rcc_ex.c:2956:52
	ldr.w	r1, [lr, #4]
.Ltmp782:
	@DEBUG_VALUE: HAL_RCCEx_GetPLL2ClockFreq:fracn2 <- undef
	.loc	5 2958 7                        @ ../Drivers/STM32H7xx_HAL_Driver/Src/stm32h7xx_hal_rcc_ex.c:2958:7
	cmp.w	r12, #0
	beq	.LBB6_5
.Ltmp783:
@ %bb.1:
	@DEBUG_VALUE: HAL_RCCEx_GetPLL2ClockFreq:pll2m <- $r12
	@DEBUG_VALUE: HAL_RCCEx_GetPLL2ClockFreq:pll2fracen <- [DW_OP_constu 4, DW_OP_shr, DW_OP_constu 1, DW_OP_and, DW_OP_stack_value] $r2
	@DEBUG_VALUE: HAL_RCCEx_GetPLL2ClockFreq:pllsource <- [DW_OP_constu 3, DW_OP_and, DW_OP_stack_value] $r3
	@DEBUG_VALUE: HAL_RCCEx_GetPLL2ClockFreq:PLL2_Clocks <- $r0
	.loc	5 0 0 is_stmt 0                 @ ../Drivers/STM32H7xx_HAL_Driver/Src/stm32h7xx_hal_rcc_ex.c:0:0
	lsrs	r1, r1, #3
	lsls	r2, r2, #27
.Ltmp784:
	and.w	r1, r1, r2, asr #31
	bfc	r1, #13, #19
	vmov	s0, r1
	.loc	5 2953 31 is_stmt 1             @ ../Drivers/STM32H7xx_HAL_Driver/Src/stm32h7xx_hal_rcc_ex.c:2953:31
	and	r1, r3, #3
.Ltmp785:
	@DEBUG_VALUE: HAL_RCCEx_GetPLL2ClockFreq:pllsource <- $r1
	.loc	5 2960 5                        @ ../Drivers/STM32H7xx_HAL_Driver/Src/stm32h7xx_hal_rcc_ex.c:2960:5
	cmp	r1, #2
.Ltmp786:
	.loc	5 0 0 is_stmt 0                 @ ../Drivers/STM32H7xx_HAL_Driver/Src/stm32h7xx_hal_rcc_ex.c:0:0
	vcvt.f32.u32	s0, s0
.Ltmp787:
	@DEBUG_VALUE: HAL_RCCEx_GetPLL2ClockFreq:fracn2 <- $s0
	.loc	5 2960 5                        @ ../Drivers/STM32H7xx_HAL_Driver/Src/stm32h7xx_hal_rcc_ex.c:2960:5
	beq	.LBB6_6
.Ltmp788:
@ %bb.2:
	@DEBUG_VALUE: HAL_RCCEx_GetPLL2ClockFreq:fracn2 <- $s0
	@DEBUG_VALUE: HAL_RCCEx_GetPLL2ClockFreq:pllsource <- $r1
	@DEBUG_VALUE: HAL_RCCEx_GetPLL2ClockFreq:pll2m <- $r12
	@DEBUG_VALUE: HAL_RCCEx_GetPLL2ClockFreq:PLL2_Clocks <- $r0
	cbnz	r1, .LBB6_7
.Ltmp789:
@ %bb.3:
	@DEBUG_VALUE: HAL_RCCEx_GetPLL2ClockFreq:fracn2 <- $s0
	@DEBUG_VALUE: HAL_RCCEx_GetPLL2ClockFreq:pllsource <- $r1
	@DEBUG_VALUE: HAL_RCCEx_GetPLL2ClockFreq:pll2m <- $r12
	@DEBUG_VALUE: HAL_RCCEx_GetPLL2ClockFreq:PLL2_Clocks <- $r0
	.loc	5 2965 13 is_stmt 1             @ ../Drivers/STM32H7xx_HAL_Driver/Src/stm32h7xx_hal_rcc_ex.c:2965:13
	ldr	r1, [lr, #-56]
.Ltmp790:
	.loc	5 2965 13 is_stmt 0             @ ../Drivers/STM32H7xx_HAL_Driver/Src/stm32h7xx_hal_rcc_ex.c:2965:13
	lsls	r1, r1, #26
	bmi	.LBB6_8
.Ltmp791:
@ %bb.4:
	@DEBUG_VALUE: HAL_RCCEx_GetPLL2ClockFreq:fracn2 <- $s0
	@DEBUG_VALUE: HAL_RCCEx_GetPLL2ClockFreq:pll2m <- $r12
	@DEBUG_VALUE: HAL_RCCEx_GetPLL2ClockFreq:PLL2_Clocks <- $r0
	.loc	5 0 13                          @ ../Drivers/STM32H7xx_HAL_Driver/Src/stm32h7xx_hal_rcc_ex.c:0:13
	vldr	s2, .LCPI6_2
	b	.LBB6_9
.Ltmp792:
	.p2align	2
.LBB6_5:
	@DEBUG_VALUE: HAL_RCCEx_GetPLL2ClockFreq:pll2m <- $r12
	@DEBUG_VALUE: HAL_RCCEx_GetPLL2ClockFreq:pll2fracen <- [DW_OP_constu 4, DW_OP_shr, DW_OP_constu 1, DW_OP_and, DW_OP_stack_value] $r2
	@DEBUG_VALUE: HAL_RCCEx_GetPLL2ClockFreq:pllsource <- [DW_OP_constu 3, DW_OP_and, DW_OP_stack_value] $r3
	@DEBUG_VALUE: HAL_RCCEx_GetPLL2ClockFreq:PLL2_Clocks <- $r0
	movs	r1, #0
	str	r1, [r0, #8]
.Ltmp793:
	.loc	5 2994 35 is_stmt 1             @ ../Drivers/STM32H7xx_HAL_Driver/Src/stm32h7xx_hal_rcc_ex.c:2994:35
	strd	r1, r1, [r0]
.Ltmp794:
	.loc	5 2998 1                        @ ../Drivers/STM32H7xx_HAL_Driver/Src/stm32h7xx_hal_rcc_ex.c:2998:1
	pop	{r7, pc}
.Ltmp795:
	.p2align	2
.LBB6_6:
	@DEBUG_VALUE: HAL_RCCEx_GetPLL2ClockFreq:fracn2 <- $s0
	@DEBUG_VALUE: HAL_RCCEx_GetPLL2ClockFreq:pllsource <- $r1
	@DEBUG_VALUE: HAL_RCCEx_GetPLL2ClockFreq:pll2m <- $r12
	@DEBUG_VALUE: HAL_RCCEx_GetPLL2ClockFreq:PLL2_Clocks <- $r0
	.loc	5 0 1 is_stmt 0                 @ ../Drivers/STM32H7xx_HAL_Driver/Src/stm32h7xx_hal_rcc_ex.c:0:1
	vldr	s2, .LCPI6_1
.Ltmp796:
	@DEBUG_VALUE: HAL_RCCEx_GetPLL2ClockFreq:pll2vco <- undef
	b	.LBB6_9
.Ltmp797:
	.p2align	2
.LBB6_7:
	@DEBUG_VALUE: HAL_RCCEx_GetPLL2ClockFreq:fracn2 <- $s0
	@DEBUG_VALUE: HAL_RCCEx_GetPLL2ClockFreq:pllsource <- $r1
	@DEBUG_VALUE: HAL_RCCEx_GetPLL2ClockFreq:pll2m <- $r12
	@DEBUG_VALUE: HAL_RCCEx_GetPLL2ClockFreq:PLL2_Clocks <- $r0
	vldr	s2, .LCPI6_0
	b	.LBB6_9
.Ltmp798:
	.p2align	2
.LBB6_8:
	@DEBUG_VALUE: HAL_RCCEx_GetPLL2ClockFreq:fracn2 <- $s0
	@DEBUG_VALUE: HAL_RCCEx_GetPLL2ClockFreq:pll2m <- $r12
	@DEBUG_VALUE: HAL_RCCEx_GetPLL2ClockFreq:PLL2_Clocks <- $r0
	.loc	5 2967 37 is_stmt 1             @ ../Drivers/STM32H7xx_HAL_Driver/Src/stm32h7xx_hal_rcc_ex.c:2967:37
	ldr	r1, [lr, #-56]
	movw	r2, #36864
	movt	r2, #976
	.loc	5 2967 65 is_stmt 0             @ ../Drivers/STM32H7xx_HAL_Driver/Src/stm32h7xx_hal_rcc_ex.c:2967:65
	ubfx	r1, r1, #3, #2
	.loc	5 2967 33                       @ ../Drivers/STM32H7xx_HAL_Driver/Src/stm32h7xx_hal_rcc_ex.c:2967:33
	lsr.w	r1, r2, r1
.Ltmp799:
	@DEBUG_VALUE: HAL_RCCEx_GetPLL2ClockFreq:hsivalue <- $r1
	.loc	5 2968 22 is_stmt 1             @ ../Drivers/STM32H7xx_HAL_Driver/Src/stm32h7xx_hal_rcc_ex.c:2968:22
	vmov	s2, r1
.Ltmp800:
	@DEBUG_VALUE: HAL_RCCEx_GetPLL2ClockFreq:hsivalue <- $s2
	vcvt.f32.u32	s2, s2
.Ltmp801:
.LBB6_9:
	@DEBUG_VALUE: HAL_RCCEx_GetPLL2ClockFreq:fracn2 <- $s0
	@DEBUG_VALUE: HAL_RCCEx_GetPLL2ClockFreq:pll2m <- $r12
	@DEBUG_VALUE: HAL_RCCEx_GetPLL2ClockFreq:PLL2_Clocks <- $r0
	.loc	5 0 0 is_stmt 0                 @ ../Drivers/STM32H7xx_HAL_Driver/Src/stm32h7xx_hal_rcc_ex.c:0:0
	ldr.w	r1, [lr]
	vldr	s6, .LCPI6_3
	bfc	r1, #9, #23
	vmov	s4, r1
.Ltmp802:
	.loc	5 2988 94 is_stmt 1             @ ../Drivers/STM32H7xx_HAL_Driver/Src/stm32h7xx_hal_rcc_ex.c:2988:94
	ldr.w	r1, [lr]
	.loc	5 2988 122 is_stmt 0            @ ../Drivers/STM32H7xx_HAL_Driver/Src/stm32h7xx_hal_rcc_ex.c:2988:122
	ubfx	r1, r1, #9, #7
.Ltmp803:
	.loc	5 0 0                           @ ../Drivers/STM32H7xx_HAL_Driver/Src/stm32h7xx_hal_rcc_ex.c:0:0
	vcvt.f32.u32	s4, s4
	vmla.f32	s4, s0, s6
	vmov	s0, r12
.Ltmp804:
	vmov.f32	s6, #1.000000e+00
	vcvt.f32.u32	s0, s0
	vdiv.f32	s0, s2, s0
	vadd.f32	s2, s4, s6
.Ltmp805:
	.loc	5 2988 68                       @ ../Drivers/STM32H7xx_HAL_Driver/Src/stm32h7xx_hal_rcc_ex.c:2988:68
	vmov	s4, r1
	vcvt.f32.u32	s4, s4
.Ltmp806:
	.loc	5 0 0                           @ ../Drivers/STM32H7xx_HAL_Driver/Src/stm32h7xx_hal_rcc_ex.c:0:0
	vmul.f32	s0, s0, s2
.Ltmp807:
	@DEBUG_VALUE: HAL_RCCEx_GetPLL2ClockFreq:pll2vco <- $s0
	.loc	5 2988 129                      @ ../Drivers/STM32H7xx_HAL_Driver/Src/stm32h7xx_hal_rcc_ex.c:2988:129
	vadd.f32	s2, s4, s6
	.loc	5 2988 65                       @ ../Drivers/STM32H7xx_HAL_Driver/Src/stm32h7xx_hal_rcc_ex.c:2988:65
	vdiv.f32	s2, s0, s2
	.loc	5 2988 35                       @ ../Drivers/STM32H7xx_HAL_Driver/Src/stm32h7xx_hal_rcc_ex.c:2988:35
	vcvt.u32.f32	s2, s2
	vstr	s2, [r0]
	.loc	5 2989 94 is_stmt 1             @ ../Drivers/STM32H7xx_HAL_Driver/Src/stm32h7xx_hal_rcc_ex.c:2989:94
	ldr.w	r1, [lr]
	.loc	5 2989 122 is_stmt 0            @ ../Drivers/STM32H7xx_HAL_Driver/Src/stm32h7xx_hal_rcc_ex.c:2989:122
	ubfx	r1, r1, #16, #7
	.loc	5 2989 68                       @ ../Drivers/STM32H7xx_HAL_Driver/Src/stm32h7xx_hal_rcc_ex.c:2989:68
	vmov	s2, r1
	vcvt.f32.u32	s2, s2
	.loc	5 2989 129                      @ ../Drivers/STM32H7xx_HAL_Driver/Src/stm32h7xx_hal_rcc_ex.c:2989:129
	vadd.f32	s2, s2, s6
	.loc	5 2989 65                       @ ../Drivers/STM32H7xx_HAL_Driver/Src/stm32h7xx_hal_rcc_ex.c:2989:65
	vdiv.f32	s2, s0, s2
	.loc	5 2989 35                       @ ../Drivers/STM32H7xx_HAL_Driver/Src/stm32h7xx_hal_rcc_ex.c:2989:35
	vcvt.u32.f32	s2, s2
	vstr	s2, [r0, #4]
	.loc	5 2990 94 is_stmt 1             @ ../Drivers/STM32H7xx_HAL_Driver/Src/stm32h7xx_hal_rcc_ex.c:2990:94
	ldr.w	r1, [lr]
	.loc	5 2990 122 is_stmt 0            @ ../Drivers/STM32H7xx_HAL_Driver/Src/stm32h7xx_hal_rcc_ex.c:2990:122
	ubfx	r1, r1, #24, #7
	.loc	5 2990 68                       @ ../Drivers/STM32H7xx_HAL_Driver/Src/stm32h7xx_hal_rcc_ex.c:2990:68
	vmov	s2, r1
	vcvt.f32.u32	s2, s2
	.loc	5 2990 129                      @ ../Drivers/STM32H7xx_HAL_Driver/Src/stm32h7xx_hal_rcc_ex.c:2990:129
	vadd.f32	s2, s2, s6
	.loc	5 2990 65                       @ ../Drivers/STM32H7xx_HAL_Driver/Src/stm32h7xx_hal_rcc_ex.c:2990:65
	vdiv.f32	s0, s0, s2
.Ltmp808:
	.loc	5 2990 37                       @ ../Drivers/STM32H7xx_HAL_Driver/Src/stm32h7xx_hal_rcc_ex.c:2990:37
	vcvt.u32.f32	s0, s0
	vmov	r1, s0
.Ltmp809:
	.loc	5 0 0                           @ ../Drivers/STM32H7xx_HAL_Driver/Src/stm32h7xx_hal_rcc_ex.c:0:0
	str	r1, [r0, #8]
.Ltmp810:
	.loc	5 2998 1 is_stmt 1              @ ../Drivers/STM32H7xx_HAL_Driver/Src/stm32h7xx_hal_rcc_ex.c:2998:1
	pop	{r7, pc}
.Ltmp811:
	.p2align	2
@ %bb.10:
	.loc	5 0 1 is_stmt 0                 @ ../Drivers/STM32H7xx_HAL_Driver/Src/stm32h7xx_hal_rcc_ex.c:0:1
.LCPI6_0:
	.long	0x4a742400                      @ float 4.0E+6
.LCPI6_1:
	.long	0x4bbebc20                      @ float 2.5E+7
.LCPI6_2:
	.long	0x4c742400                      @ float 6.4E+7
.LCPI6_3:
	.long	0x39000000                      @ float 1.22070313E-4
.Lfunc_end6:
	.size	HAL_RCCEx_GetPLL2ClockFreq, .Lfunc_end6-HAL_RCCEx_GetPLL2ClockFreq
	.cfi_endproc
	.cantunwind
	.fnend
                                        @ -- End function
	.hidden	HAL_RCCEx_GetPLL3ClockFreq      @ -- Begin function HAL_RCCEx_GetPLL3ClockFreq
	.globl	HAL_RCCEx_GetPLL3ClockFreq
	.p2align	3
	.type	HAL_RCCEx_GetPLL3ClockFreq,%function
	.code	16                              @ @HAL_RCCEx_GetPLL3ClockFreq
	.thumb_func
HAL_RCCEx_GetPLL3ClockFreq:
.Lfunc_begin7:
	.loc	5 3015 0 is_stmt 1              @ ../Drivers/STM32H7xx_HAL_Driver/Src/stm32h7xx_hal_rcc_ex.c:3015:0
	.fnstart
	.cfi_startproc
@ %bb.0:
	@DEBUG_VALUE: HAL_RCCEx_GetPLL3ClockFreq:PLL3_Clocks <- $r0
	.save	{r7, lr}
	push	{r7, lr}
	.cfi_def_cfa_offset 8
	.cfi_offset lr, -4
	.cfi_offset r7, -8
	movw	lr, #17472
	movt	lr, #22530
.Ltmp812:
	.loc	5 3022 21 prologue_end          @ ../Drivers/STM32H7xx_HAL_Driver/Src/stm32h7xx_hal_rcc_ex.c:3022:21
	ldr	r3, [lr, #-24]
.Ltmp813:
	@DEBUG_VALUE: HAL_RCCEx_GetPLL3ClockFreq:pllsource <- [DW_OP_constu 3, DW_OP_and, DW_OP_stack_value] $r3
	.loc	5 3023 18                       @ ../Drivers/STM32H7xx_HAL_Driver/Src/stm32h7xx_hal_rcc_ex.c:3023:18
	ldr	r1, [lr, #-24]
	.loc	5 3024 22                       @ ../Drivers/STM32H7xx_HAL_Driver/Src/stm32h7xx_hal_rcc_ex.c:3024:22
	ldr	r2, [lr, #-20]
.Ltmp814:
	@DEBUG_VALUE: HAL_RCCEx_GetPLL3ClockFreq:pll3fracen <- [DW_OP_constu 8, DW_OP_shr, DW_OP_constu 1, DW_OP_and, DW_OP_stack_value] $r2
	.loc	5 3023 51                       @ ../Drivers/STM32H7xx_HAL_Driver/Src/stm32h7xx_hal_rcc_ex.c:3023:51
	ubfx	r12, r1, #20, #6
.Ltmp815:
	@DEBUG_VALUE: HAL_RCCEx_GetPLL3ClockFreq:pll3m <- $r12
	.loc	5 3025 52                       @ ../Drivers/STM32H7xx_HAL_Driver/Src/stm32h7xx_hal_rcc_ex.c:3025:52
	ldr.w	r1, [lr, #4]
.Ltmp816:
	@DEBUG_VALUE: HAL_RCCEx_GetPLL3ClockFreq:fracn3 <- undef
	.loc	5 3027 7                        @ ../Drivers/STM32H7xx_HAL_Driver/Src/stm32h7xx_hal_rcc_ex.c:3027:7
	cmp.w	r12, #0
	beq	.LBB7_5
.Ltmp817:
@ %bb.1:
	@DEBUG_VALUE: HAL_RCCEx_GetPLL3ClockFreq:pll3m <- $r12
	@DEBUG_VALUE: HAL_RCCEx_GetPLL3ClockFreq:pll3fracen <- [DW_OP_constu 8, DW_OP_shr, DW_OP_constu 1, DW_OP_and, DW_OP_stack_value] $r2
	@DEBUG_VALUE: HAL_RCCEx_GetPLL3ClockFreq:pllsource <- [DW_OP_constu 3, DW_OP_and, DW_OP_stack_value] $r3
	@DEBUG_VALUE: HAL_RCCEx_GetPLL3ClockFreq:PLL3_Clocks <- $r0
	.loc	5 0 0 is_stmt 0                 @ ../Drivers/STM32H7xx_HAL_Driver/Src/stm32h7xx_hal_rcc_ex.c:0:0
	lsrs	r1, r1, #3
	lsls	r2, r2, #23
.Ltmp818:
	and.w	r1, r1, r2, asr #31
	bfc	r1, #13, #19
	vmov	s0, r1
	.loc	5 3022 31 is_stmt 1             @ ../Drivers/STM32H7xx_HAL_Driver/Src/stm32h7xx_hal_rcc_ex.c:3022:31
	and	r1, r3, #3
.Ltmp819:
	@DEBUG_VALUE: HAL_RCCEx_GetPLL3ClockFreq:pllsource <- $r1
	.loc	5 3029 5                        @ ../Drivers/STM32H7xx_HAL_Driver/Src/stm32h7xx_hal_rcc_ex.c:3029:5
	cmp	r1, #2
.Ltmp820:
	.loc	5 0 0 is_stmt 0                 @ ../Drivers/STM32H7xx_HAL_Driver/Src/stm32h7xx_hal_rcc_ex.c:0:0
	vcvt.f32.u32	s0, s0
.Ltmp821:
	@DEBUG_VALUE: HAL_RCCEx_GetPLL3ClockFreq:fracn3 <- $s0
	.loc	5 3029 5                        @ ../Drivers/STM32H7xx_HAL_Driver/Src/stm32h7xx_hal_rcc_ex.c:3029:5
	beq	.LBB7_6
.Ltmp822:
@ %bb.2:
	@DEBUG_VALUE: HAL_RCCEx_GetPLL3ClockFreq:fracn3 <- $s0
	@DEBUG_VALUE: HAL_RCCEx_GetPLL3ClockFreq:pllsource <- $r1
	@DEBUG_VALUE: HAL_RCCEx_GetPLL3ClockFreq:pll3m <- $r12
	@DEBUG_VALUE: HAL_RCCEx_GetPLL3ClockFreq:PLL3_Clocks <- $r0
	cbnz	r1, .LBB7_7
.Ltmp823:
@ %bb.3:
	@DEBUG_VALUE: HAL_RCCEx_GetPLL3ClockFreq:fracn3 <- $s0
	@DEBUG_VALUE: HAL_RCCEx_GetPLL3ClockFreq:pllsource <- $r1
	@DEBUG_VALUE: HAL_RCCEx_GetPLL3ClockFreq:pll3m <- $r12
	@DEBUG_VALUE: HAL_RCCEx_GetPLL3ClockFreq:PLL3_Clocks <- $r0
	.loc	5 3033 13 is_stmt 1             @ ../Drivers/STM32H7xx_HAL_Driver/Src/stm32h7xx_hal_rcc_ex.c:3033:13
	ldr	r1, [lr, #-64]
.Ltmp824:
	.loc	5 3033 13 is_stmt 0             @ ../Drivers/STM32H7xx_HAL_Driver/Src/stm32h7xx_hal_rcc_ex.c:3033:13
	lsls	r1, r1, #26
	bmi	.LBB7_8
.Ltmp825:
@ %bb.4:
	@DEBUG_VALUE: HAL_RCCEx_GetPLL3ClockFreq:fracn3 <- $s0
	@DEBUG_VALUE: HAL_RCCEx_GetPLL3ClockFreq:pll3m <- $r12
	@DEBUG_VALUE: HAL_RCCEx_GetPLL3ClockFreq:PLL3_Clocks <- $r0
	.loc	5 0 13                          @ ../Drivers/STM32H7xx_HAL_Driver/Src/stm32h7xx_hal_rcc_ex.c:0:13
	vldr	s2, .LCPI7_2
	b	.LBB7_9
.Ltmp826:
	.p2align	2
.LBB7_5:
	@DEBUG_VALUE: HAL_RCCEx_GetPLL3ClockFreq:pll3m <- $r12
	@DEBUG_VALUE: HAL_RCCEx_GetPLL3ClockFreq:pll3fracen <- [DW_OP_constu 8, DW_OP_shr, DW_OP_constu 1, DW_OP_and, DW_OP_stack_value] $r2
	@DEBUG_VALUE: HAL_RCCEx_GetPLL3ClockFreq:pllsource <- [DW_OP_constu 3, DW_OP_and, DW_OP_stack_value] $r3
	@DEBUG_VALUE: HAL_RCCEx_GetPLL3ClockFreq:PLL3_Clocks <- $r0
	movs	r1, #0
	str	r1, [r0, #8]
.Ltmp827:
	.loc	5 3061 35 is_stmt 1             @ ../Drivers/STM32H7xx_HAL_Driver/Src/stm32h7xx_hal_rcc_ex.c:3061:35
	strd	r1, r1, [r0]
.Ltmp828:
	.loc	5 3066 1                        @ ../Drivers/STM32H7xx_HAL_Driver/Src/stm32h7xx_hal_rcc_ex.c:3066:1
	pop	{r7, pc}
.Ltmp829:
	.p2align	2
.LBB7_6:
	@DEBUG_VALUE: HAL_RCCEx_GetPLL3ClockFreq:fracn3 <- $s0
	@DEBUG_VALUE: HAL_RCCEx_GetPLL3ClockFreq:pllsource <- $r1
	@DEBUG_VALUE: HAL_RCCEx_GetPLL3ClockFreq:pll3m <- $r12
	@DEBUG_VALUE: HAL_RCCEx_GetPLL3ClockFreq:PLL3_Clocks <- $r0
	.loc	5 0 1 is_stmt 0                 @ ../Drivers/STM32H7xx_HAL_Driver/Src/stm32h7xx_hal_rcc_ex.c:0:1
	vldr	s2, .LCPI7_1
.Ltmp830:
	@DEBUG_VALUE: HAL_RCCEx_GetPLL3ClockFreq:pll3vco <- undef
	b	.LBB7_9
.Ltmp831:
	.p2align	2
.LBB7_7:
	@DEBUG_VALUE: HAL_RCCEx_GetPLL3ClockFreq:fracn3 <- $s0
	@DEBUG_VALUE: HAL_RCCEx_GetPLL3ClockFreq:pllsource <- $r1
	@DEBUG_VALUE: HAL_RCCEx_GetPLL3ClockFreq:pll3m <- $r12
	@DEBUG_VALUE: HAL_RCCEx_GetPLL3ClockFreq:PLL3_Clocks <- $r0
	vldr	s2, .LCPI7_0
	b	.LBB7_9
.Ltmp832:
	.p2align	2
.LBB7_8:
	@DEBUG_VALUE: HAL_RCCEx_GetPLL3ClockFreq:fracn3 <- $s0
	@DEBUG_VALUE: HAL_RCCEx_GetPLL3ClockFreq:pll3m <- $r12
	@DEBUG_VALUE: HAL_RCCEx_GetPLL3ClockFreq:PLL3_Clocks <- $r0
	.loc	5 3035 37 is_stmt 1             @ ../Drivers/STM32H7xx_HAL_Driver/Src/stm32h7xx_hal_rcc_ex.c:3035:37
	ldr	r1, [lr, #-64]
	movw	r2, #36864
	movt	r2, #976
	.loc	5 3035 65 is_stmt 0             @ ../Drivers/STM32H7xx_HAL_Driver/Src/stm32h7xx_hal_rcc_ex.c:3035:65
	ubfx	r1, r1, #3, #2
	.loc	5 3035 33                       @ ../Drivers/STM32H7xx_HAL_Driver/Src/stm32h7xx_hal_rcc_ex.c:3035:33
	lsr.w	r1, r2, r1
.Ltmp833:
	@DEBUG_VALUE: HAL_RCCEx_GetPLL3ClockFreq:hsivalue <- $r1
	.loc	5 3036 22 is_stmt 1             @ ../Drivers/STM32H7xx_HAL_Driver/Src/stm32h7xx_hal_rcc_ex.c:3036:22
	vmov	s2, r1
.Ltmp834:
	@DEBUG_VALUE: HAL_RCCEx_GetPLL3ClockFreq:hsivalue <- $s2
	vcvt.f32.u32	s2, s2
.Ltmp835:
.LBB7_9:
	@DEBUG_VALUE: HAL_RCCEx_GetPLL3ClockFreq:fracn3 <- $s0
	@DEBUG_VALUE: HAL_RCCEx_GetPLL3ClockFreq:pll3m <- $r12
	@DEBUG_VALUE: HAL_RCCEx_GetPLL3ClockFreq:PLL3_Clocks <- $r0
	.loc	5 0 0 is_stmt 0                 @ ../Drivers/STM32H7xx_HAL_Driver/Src/stm32h7xx_hal_rcc_ex.c:0:0
	ldr.w	r1, [lr]
	vldr	s6, .LCPI7_3
	bfc	r1, #9, #23
	vmov	s4, r1
.Ltmp836:
	.loc	5 3055 94 is_stmt 1             @ ../Drivers/STM32H7xx_HAL_Driver/Src/stm32h7xx_hal_rcc_ex.c:3055:94
	ldr.w	r1, [lr]
	.loc	5 3055 122 is_stmt 0            @ ../Drivers/STM32H7xx_HAL_Driver/Src/stm32h7xx_hal_rcc_ex.c:3055:122
	ubfx	r1, r1, #9, #7
.Ltmp837:
	.loc	5 0 0                           @ ../Drivers/STM32H7xx_HAL_Driver/Src/stm32h7xx_hal_rcc_ex.c:0:0
	vcvt.f32.u32	s4, s4
	vmla.f32	s4, s0, s6
	vmov	s0, r12
.Ltmp838:
	vmov.f32	s6, #1.000000e+00
	vcvt.f32.u32	s0, s0
	vdiv.f32	s0, s2, s0
	vadd.f32	s2, s4, s6
.Ltmp839:
	.loc	5 3055 68                       @ ../Drivers/STM32H7xx_HAL_Driver/Src/stm32h7xx_hal_rcc_ex.c:3055:68
	vmov	s4, r1
	vcvt.f32.u32	s4, s4
.Ltmp840:
	.loc	5 0 0                           @ ../Drivers/STM32H7xx_HAL_Driver/Src/stm32h7xx_hal_rcc_ex.c:0:0
	vmul.f32	s0, s0, s2
.Ltmp841:
	@DEBUG_VALUE: HAL_RCCEx_GetPLL3ClockFreq:pll3vco <- $s0
	.loc	5 3055 129                      @ ../Drivers/STM32H7xx_HAL_Driver/Src/stm32h7xx_hal_rcc_ex.c:3055:129
	vadd.f32	s2, s4, s6
	.loc	5 3055 65                       @ ../Drivers/STM32H7xx_HAL_Driver/Src/stm32h7xx_hal_rcc_ex.c:3055:65
	vdiv.f32	s2, s0, s2
	.loc	5 3055 35                       @ ../Drivers/STM32H7xx_HAL_Driver/Src/stm32h7xx_hal_rcc_ex.c:3055:35
	vcvt.u32.f32	s2, s2
	vstr	s2, [r0]
	.loc	5 3056 94 is_stmt 1             @ ../Drivers/STM32H7xx_HAL_Driver/Src/stm32h7xx_hal_rcc_ex.c:3056:94
	ldr.w	r1, [lr]
	.loc	5 3056 122 is_stmt 0            @ ../Drivers/STM32H7xx_HAL_Driver/Src/stm32h7xx_hal_rcc_ex.c:3056:122
	ubfx	r1, r1, #16, #7
	.loc	5 3056 68                       @ ../Drivers/STM32H7xx_HAL_Driver/Src/stm32h7xx_hal_rcc_ex.c:3056:68
	vmov	s2, r1
	vcvt.f32.u32	s2, s2
	.loc	5 3056 129                      @ ../Drivers/STM32H7xx_HAL_Driver/Src/stm32h7xx_hal_rcc_ex.c:3056:129
	vadd.f32	s2, s2, s6
	.loc	5 3056 65                       @ ../Drivers/STM32H7xx_HAL_Driver/Src/stm32h7xx_hal_rcc_ex.c:3056:65
	vdiv.f32	s2, s0, s2
	.loc	5 3056 35                       @ ../Drivers/STM32H7xx_HAL_Driver/Src/stm32h7xx_hal_rcc_ex.c:3056:35
	vcvt.u32.f32	s2, s2
	vstr	s2, [r0, #4]
	.loc	5 3057 94 is_stmt 1             @ ../Drivers/STM32H7xx_HAL_Driver/Src/stm32h7xx_hal_rcc_ex.c:3057:94
	ldr.w	r1, [lr]
	.loc	5 3057 122 is_stmt 0            @ ../Drivers/STM32H7xx_HAL_Driver/Src/stm32h7xx_hal_rcc_ex.c:3057:122
	ubfx	r1, r1, #24, #7
	.loc	5 3057 68                       @ ../Drivers/STM32H7xx_HAL_Driver/Src/stm32h7xx_hal_rcc_ex.c:3057:68
	vmov	s2, r1
	vcvt.f32.u32	s2, s2
	.loc	5 3057 129                      @ ../Drivers/STM32H7xx_HAL_Driver/Src/stm32h7xx_hal_rcc_ex.c:3057:129
	vadd.f32	s2, s2, s6
	.loc	5 3057 65                       @ ../Drivers/STM32H7xx_HAL_Driver/Src/stm32h7xx_hal_rcc_ex.c:3057:65
	vdiv.f32	s0, s0, s2
.Ltmp842:
	.loc	5 3057 37                       @ ../Drivers/STM32H7xx_HAL_Driver/Src/stm32h7xx_hal_rcc_ex.c:3057:37
	vcvt.u32.f32	s0, s0
	vmov	r1, s0
.Ltmp843:
	.loc	5 0 0                           @ ../Drivers/STM32H7xx_HAL_Driver/Src/stm32h7xx_hal_rcc_ex.c:0:0
	str	r1, [r0, #8]
.Ltmp844:
	.loc	5 3066 1 is_stmt 1              @ ../Drivers/STM32H7xx_HAL_Driver/Src/stm32h7xx_hal_rcc_ex.c:3066:1
	pop	{r7, pc}
.Ltmp845:
	.p2align	2
@ %bb.10:
	.loc	5 0 1 is_stmt 0                 @ ../Drivers/STM32H7xx_HAL_Driver/Src/stm32h7xx_hal_rcc_ex.c:0:1
.LCPI7_0:
	.long	0x4a742400                      @ float 4.0E+6
.LCPI7_1:
	.long	0x4bbebc20                      @ float 2.5E+7
.LCPI7_2:
	.long	0x4c742400                      @ float 6.4E+7
.LCPI7_3:
	.long	0x39000000                      @ float 1.22070313E-4
.Lfunc_end7:
	.size	HAL_RCCEx_GetPLL3ClockFreq, .Lfunc_end7-HAL_RCCEx_GetPLL3ClockFreq
	.cfi_endproc
	.cantunwind
	.fnend
                                        @ -- End function
	.hidden	HAL_RCCEx_GetD3PCLK1Freq        @ -- Begin function HAL_RCCEx_GetD3PCLK1Freq
	.globl	HAL_RCCEx_GetD3PCLK1Freq
	.p2align	3
	.type	HAL_RCCEx_GetD3PCLK1Freq,%function
	.code	16                              @ @HAL_RCCEx_GetD3PCLK1Freq
	.thumb_func
HAL_RCCEx_GetD3PCLK1Freq:
.Lfunc_begin8:
	.loc	5 2922 0 is_stmt 1              @ ../Drivers/STM32H7xx_HAL_Driver/Src/stm32h7xx_hal_rcc_ex.c:2922:0
	.fnstart
	.cfi_startproc
@ %bb.0:
	.save	{r7, lr}
	push	{r7, lr}
	.cfi_def_cfa_offset 8
	.cfi_offset lr, -4
	.cfi_offset r7, -8
.Ltmp846:
	.loc	5 2925 11 prologue_end          @ ../Drivers/STM32H7xx_HAL_Driver/Src/stm32h7xx_hal_rcc_ex.c:2925:11
	bl	HAL_RCC_GetHCLKFreq
.Ltmp847:
	.loc	5 0 11 is_stmt 0                @ ../Drivers/STM32H7xx_HAL_Driver/Src/stm32h7xx_hal_rcc_ex.c:0:11
	movw	r1, #17440
	movt	r1, #22530
	.loc	5 2925 60                       @ ../Drivers/STM32H7xx_HAL_Driver/Src/stm32h7xx_hal_rcc_ex.c:2925:60
	ldr	r1, [r1]
	.loc	5 2925 37                       @ ../Drivers/STM32H7xx_HAL_Driver/Src/stm32h7xx_hal_rcc_ex.c:2925:37
	movw	r2, :lower16:(D1CorePrescTable-(.LPC8_0+4))
	movt	r2, :upper16:(D1CorePrescTable-(.LPC8_0+4))
	.loc	5 2925 88                       @ ../Drivers/STM32H7xx_HAL_Driver/Src/stm32h7xx_hal_rcc_ex.c:2925:88
	ubfx	r1, r1, #4, #3
	.loc	5 2925 37                       @ ../Drivers/STM32H7xx_HAL_Driver/Src/stm32h7xx_hal_rcc_ex.c:2925:37
.LPC8_0:
	add	r2, pc
	ldrb	r1, [r2, r1]
	.loc	5 2925 114                      @ ../Drivers/STM32H7xx_HAL_Driver/Src/stm32h7xx_hal_rcc_ex.c:2925:114
	and	r1, r1, #31
	.loc	5 2925 33                       @ ../Drivers/STM32H7xx_HAL_Driver/Src/stm32h7xx_hal_rcc_ex.c:2925:33
	lsrs	r0, r1
	.loc	5 2925 3                        @ ../Drivers/STM32H7xx_HAL_Driver/Src/stm32h7xx_hal_rcc_ex.c:2925:3
	pop	{r7, pc}
.Ltmp848:
.Lfunc_end8:
	.size	HAL_RCCEx_GetD3PCLK1Freq, .Lfunc_end8-HAL_RCCEx_GetD3PCLK1Freq
	.cfi_endproc
	.cantunwind
	.fnend
                                        @ -- End function
	.hidden	HAL_RCCEx_GetD1PCLK1Freq        @ -- Begin function HAL_RCCEx_GetD1PCLK1Freq
	.globl	HAL_RCCEx_GetD1PCLK1Freq
	.p2align	3
	.type	HAL_RCCEx_GetD1PCLK1Freq,%function
	.code	16                              @ @HAL_RCCEx_GetD1PCLK1Freq
	.thumb_func
HAL_RCCEx_GetD1PCLK1Freq:
.Lfunc_begin9:
	.loc	5 2905 0 is_stmt 1              @ ../Drivers/STM32H7xx_HAL_Driver/Src/stm32h7xx_hal_rcc_ex.c:2905:0
	.fnstart
	.cfi_startproc
@ %bb.0:
	.save	{r7, lr}
	push	{r7, lr}
	.cfi_def_cfa_offset 8
	.cfi_offset lr, -4
	.cfi_offset r7, -8
.Ltmp849:
	.loc	5 2908 11 prologue_end          @ ../Drivers/STM32H7xx_HAL_Driver/Src/stm32h7xx_hal_rcc_ex.c:2908:11
	bl	HAL_RCC_GetHCLKFreq
.Ltmp850:
	.loc	5 0 11 is_stmt 0                @ ../Drivers/STM32H7xx_HAL_Driver/Src/stm32h7xx_hal_rcc_ex.c:0:11
	movw	r1, #17432
	movt	r1, #22530
	.loc	5 2908 60                       @ ../Drivers/STM32H7xx_HAL_Driver/Src/stm32h7xx_hal_rcc_ex.c:2908:60
	ldr	r1, [r1]
	.loc	5 2908 37                       @ ../Drivers/STM32H7xx_HAL_Driver/Src/stm32h7xx_hal_rcc_ex.c:2908:37
	movw	r2, :lower16:(D1CorePrescTable-(.LPC9_0+4))
	movt	r2, :upper16:(D1CorePrescTable-(.LPC9_0+4))
	.loc	5 2908 88                       @ ../Drivers/STM32H7xx_HAL_Driver/Src/stm32h7xx_hal_rcc_ex.c:2908:88
	ubfx	r1, r1, #4, #3
	.loc	5 2908 37                       @ ../Drivers/STM32H7xx_HAL_Driver/Src/stm32h7xx_hal_rcc_ex.c:2908:37
.LPC9_0:
	add	r2, pc
	ldrb	r1, [r2, r1]
	.loc	5 2908 114                      @ ../Drivers/STM32H7xx_HAL_Driver/Src/stm32h7xx_hal_rcc_ex.c:2908:114
	and	r1, r1, #31
	.loc	5 2908 33                       @ ../Drivers/STM32H7xx_HAL_Driver/Src/stm32h7xx_hal_rcc_ex.c:2908:33
	lsrs	r0, r1
	.loc	5 2908 3                        @ ../Drivers/STM32H7xx_HAL_Driver/Src/stm32h7xx_hal_rcc_ex.c:2908:3
	pop	{r7, pc}
.Ltmp851:
.Lfunc_end9:
	.size	HAL_RCCEx_GetD1PCLK1Freq, .Lfunc_end9-HAL_RCCEx_GetD1PCLK1Freq
	.cfi_endproc
	.cantunwind
	.fnend
                                        @ -- End function
	.hidden	HAL_RCCEx_GetD1SysClockFreq     @ -- Begin function HAL_RCCEx_GetD1SysClockFreq
	.globl	HAL_RCCEx_GetD1SysClockFreq
	.p2align	3
	.type	HAL_RCCEx_GetD1SysClockFreq,%function
	.code	16                              @ @HAL_RCCEx_GetD1SysClockFreq
	.thumb_func
HAL_RCCEx_GetD1SysClockFreq:
.Lfunc_begin10:
	.loc	5 3144 0 is_stmt 1              @ ../Drivers/STM32H7xx_HAL_Driver/Src/stm32h7xx_hal_rcc_ex.c:3144:0
	.fnstart
	.cfi_startproc
@ %bb.0:
	.save	{r7, lr}
	push	{r7, lr}
	.cfi_def_cfa_offset 8
	.cfi_offset lr, -4
	.cfi_offset r7, -8
.Ltmp852:
	.loc	5 3148 25 prologue_end          @ ../Drivers/STM32H7xx_HAL_Driver/Src/stm32h7xx_hal_rcc_ex.c:3148:25
	bl	HAL_RCC_GetSysClockFreq
.Ltmp853:
	.loc	5 0 25 is_stmt 0                @ ../Drivers/STM32H7xx_HAL_Driver/Src/stm32h7xx_hal_rcc_ex.c:0:25
	movw	r1, #17432
	movt	r1, #22530
	.loc	5 3148 78                       @ ../Drivers/STM32H7xx_HAL_Driver/Src/stm32h7xx_hal_rcc_ex.c:3148:78
	ldr	r2, [r1]
	.loc	5 3155 68 is_stmt 1             @ ../Drivers/STM32H7xx_HAL_Driver/Src/stm32h7xx_hal_rcc_ex.c:3155:68
	ldr	r1, [r1]
	.loc	5 3148 55                       @ ../Drivers/STM32H7xx_HAL_Driver/Src/stm32h7xx_hal_rcc_ex.c:3148:55
	movw	r3, :lower16:(D1CorePrescTable-(.LPC10_0+4))
	.loc	5 3155 75                       @ ../Drivers/STM32H7xx_HAL_Driver/Src/stm32h7xx_hal_rcc_ex.c:3155:75
	and	r1, r1, #15
	.loc	5 3148 106                      @ ../Drivers/STM32H7xx_HAL_Driver/Src/stm32h7xx_hal_rcc_ex.c:3148:106
	ubfx	r2, r2, #8, #4
	.loc	5 3148 55 is_stmt 0             @ ../Drivers/STM32H7xx_HAL_Driver/Src/stm32h7xx_hal_rcc_ex.c:3148:55
	movt	r3, :upper16:(D1CorePrescTable-(.LPC10_0+4))
.LPC10_0:
	add	r3, pc
	ldrb	r2, [r3, r2]
	.loc	5 3155 45 is_stmt 1             @ ../Drivers/STM32H7xx_HAL_Driver/Src/stm32h7xx_hal_rcc_ex.c:3155:45
	ldrb	r1, [r3, r1]
	.loc	5 3148 132                      @ ../Drivers/STM32H7xx_HAL_Driver/Src/stm32h7xx_hal_rcc_ex.c:3148:132
	and	r2, r2, #31
	.loc	5 3155 119                      @ ../Drivers/STM32H7xx_HAL_Driver/Src/stm32h7xx_hal_rcc_ex.c:3155:119
	and	r1, r1, #31
	.loc	5 3148 51                       @ ../Drivers/STM32H7xx_HAL_Driver/Src/stm32h7xx_hal_rcc_ex.c:3148:51
	lsrs	r0, r2
.Ltmp854:
	@DEBUG_VALUE: HAL_RCCEx_GetD1SysClockFreq:common_system_clock <- $r0
	.loc	5 3155 17                       @ ../Drivers/STM32H7xx_HAL_Driver/Src/stm32h7xx_hal_rcc_ex.c:3155:17
	movw	r2, :lower16:SystemD2Clock(sbrel)
	movt	r2, :upper16:SystemD2Clock(sbrel)
	.loc	5 3155 40 is_stmt 0             @ ../Drivers/STM32H7xx_HAL_Driver/Src/stm32h7xx_hal_rcc_ex.c:3155:40
	lsr.w	r1, r0, r1
	.loc	5 3155 17                       @ ../Drivers/STM32H7xx_HAL_Driver/Src/stm32h7xx_hal_rcc_ex.c:3155:17
	str.w	r1, [r9, r2]
	.loc	5 3163 19 is_stmt 1             @ ../Drivers/STM32H7xx_HAL_Driver/Src/stm32h7xx_hal_rcc_ex.c:3163:19
	movw	r1, :lower16:SystemCoreClock(sbrel)
	movt	r1, :upper16:SystemCoreClock(sbrel)
	str.w	r0, [r9, r1]
	.loc	5 3166 3                        @ ../Drivers/STM32H7xx_HAL_Driver/Src/stm32h7xx_hal_rcc_ex.c:3166:3
	pop	{r7, pc}
.Ltmp855:
.Lfunc_end10:
	.size	HAL_RCCEx_GetD1SysClockFreq, .Lfunc_end10-HAL_RCCEx_GetD1SysClockFreq
	.cfi_endproc
	.cantunwind
	.fnend
                                        @ -- End function
	.hidden	HAL_RCCEx_EnableLSECSS          @ -- Begin function HAL_RCCEx_EnableLSECSS
	.globl	HAL_RCCEx_EnableLSECSS
	.p2align	3
	.type	HAL_RCCEx_EnableLSECSS,%function
	.code	16                              @ @HAL_RCCEx_EnableLSECSS
	.thumb_func
HAL_RCCEx_EnableLSECSS:
.Lfunc_begin11:
	.loc	5 3184 0                        @ ../Drivers/STM32H7xx_HAL_Driver/Src/stm32h7xx_hal_rcc_ex.c:3184:0
	.fnstart
	.cfi_startproc
@ %bb.0:
	movw	r0, #17520
	movt	r0, #22530
.Ltmp856:
	.loc	5 3185 3 prologue_end           @ ../Drivers/STM32H7xx_HAL_Driver/Src/stm32h7xx_hal_rcc_ex.c:3185:3
	ldr	r1, [r0]
	orr	r1, r1, #32
	str	r1, [r0]
	.loc	5 3186 1                        @ ../Drivers/STM32H7xx_HAL_Driver/Src/stm32h7xx_hal_rcc_ex.c:3186:1
	bx	lr
.Ltmp857:
.Lfunc_end11:
	.size	HAL_RCCEx_EnableLSECSS, .Lfunc_end11-HAL_RCCEx_EnableLSECSS
	.cfi_endproc
	.cantunwind
	.fnend
                                        @ -- End function
	.hidden	HAL_RCCEx_DisableLSECSS         @ -- Begin function HAL_RCCEx_DisableLSECSS
	.globl	HAL_RCCEx_DisableLSECSS
	.p2align	3
	.type	HAL_RCCEx_DisableLSECSS,%function
	.code	16                              @ @HAL_RCCEx_DisableLSECSS
	.thumb_func
HAL_RCCEx_DisableLSECSS:
.Lfunc_begin12:
	.loc	5 3194 0                        @ ../Drivers/STM32H7xx_HAL_Driver/Src/stm32h7xx_hal_rcc_ex.c:3194:0
	.fnstart
	.cfi_startproc
@ %bb.0:
	movw	r0, #17504
	movt	r0, #22530
.Ltmp858:
	.loc	5 3195 3 prologue_end           @ ../Drivers/STM32H7xx_HAL_Driver/Src/stm32h7xx_hal_rcc_ex.c:3195:3
	ldr	r1, [r0, #16]
	bic	r1, r1, #32
	str	r1, [r0, #16]
	.loc	5 3197 3                        @ ../Drivers/STM32H7xx_HAL_Driver/Src/stm32h7xx_hal_rcc_ex.c:3197:3
	ldr	r1, [r0]
	bic	r1, r1, #512
	str	r1, [r0]
	.loc	5 3198 1                        @ ../Drivers/STM32H7xx_HAL_Driver/Src/stm32h7xx_hal_rcc_ex.c:3198:1
	bx	lr
.Ltmp859:
.Lfunc_end12:
	.size	HAL_RCCEx_DisableLSECSS, .Lfunc_end12-HAL_RCCEx_DisableLSECSS
	.cfi_endproc
	.cantunwind
	.fnend
                                        @ -- End function
	.hidden	HAL_RCCEx_EnableLSECSS_IT       @ -- Begin function HAL_RCCEx_EnableLSECSS_IT
	.globl	HAL_RCCEx_EnableLSECSS_IT
	.p2align	3
	.type	HAL_RCCEx_EnableLSECSS_IT,%function
	.code	16                              @ @HAL_RCCEx_EnableLSECSS_IT
	.thumb_func
HAL_RCCEx_EnableLSECSS_IT:
.Lfunc_begin13:
	.loc	5 3206 0                        @ ../Drivers/STM32H7xx_HAL_Driver/Src/stm32h7xx_hal_rcc_ex.c:3206:0
	.fnstart
	.cfi_startproc
@ %bb.0:
	movw	r0, #17504
	mov.w	r2, #1476395008
	movt	r0, #22530
.Ltmp860:
	.loc	5 3208 3 prologue_end           @ ../Drivers/STM32H7xx_HAL_Driver/Src/stm32h7xx_hal_rcc_ex.c:3208:3
	ldr	r1, [r0, #16]
	orr	r1, r1, #32
