	.text
	.syntax unified
	.eabi_attribute	67, "2.09"	@ Tag_conformance
	.cpu	cortex-m7
	.eabi_attribute	6, 13	@ Tag_CPU_arch
	.eabi_attribute	7, 77	@ Tag_CPU_arch_profile
	.eabi_attribute	8, 0	@ Tag_ARM_ISA_use
	.eabi_attribute	9, 2	@ Tag_THUMB_ISA_use
	.fpu	fpv5-d16
	.eabi_attribute	36, 1	@ Tag_FP_HP_extension
	.eabi_attribute	34, 1	@ Tag_CPU_unaligned_access
	.eabi_attribute	15, 2	@ Tag_ABI_PCS_RW_data
	.eabi_attribute	16, 1	@ Tag_ABI_PCS_RO_data
	.eabi_attribute	17, 1	@ Tag_ABI_PCS_GOT_use
	.eabi_attribute	20, 2	@ Tag_ABI_FP_denormal
	.eabi_attribute	21, 0	@ Tag_ABI_FP_exceptions
	.eabi_attribute	23, 1	@ Tag_ABI_FP_number_model
	.eabi_attribute	24, 1	@ Tag_ABI_align_needed
	.eabi_attribute	25, 1	@ Tag_ABI_align_preserved
	.eabi_attribute	28, 1	@ Tag_ABI_VFP_args
	.eabi_attribute	38, 1	@ Tag_ABI_FP_16bit_format
	.eabi_attribute	18, 2	@ Tag_ABI_PCS_wchar_t
	.eabi_attribute	26, 1	@ Tag_ABI_enum_size
	.eabi_attribute	14, 1	@ Tag_ABI_PCS_R9_use
	.file	"stm32h7xx_hal_pwr_ex.c"
	.file	1 "F:\\3.git\\1.Github\\ExFlash_Algorithm\\embedfire\\Algorithm_QSPI\\STLDR\\MDK-ARM" "../Drivers/STM32H7xx_HAL_Driver/Inc/stm32h7xx_hal_def.h"
	.file	2 "D:\\Program\\Keil\\Keil_v5\\ARM\\ARMCLANG\\Bin\\..\\include" "stdint.h"
	.file	3 "F:\\3.git\\1.Github\\ExFlash_Algorithm\\embedfire\\Algorithm_QSPI\\STLDR\\MDK-ARM" "../Drivers/CMSIS/Device/ST/STM32H7xx/Include/stm32h750xx.h"
	.file	4 "F:\\3.git\\1.Github\\ExFlash_Algorithm\\embedfire\\Algorithm_QSPI\\STLDR\\MDK-ARM" "../Drivers/CMSIS/Include\\core_cm7.h"
	.hidden	HAL_PWREx_ConfigSupply          @ -- Begin function HAL_PWREx_ConfigSupply
	.globl	HAL_PWREx_ConfigSupply
	.p2align	3
	.type	HAL_PWREx_ConfigSupply,%function
	.code	16                              @ @HAL_PWREx_ConfigSupply
	.thumb_func
HAL_PWREx_ConfigSupply:
.Lfunc_begin0:
	.file	5 "F:\\3.git\\1.Github\\ExFlash_Algorithm\\embedfire\\Algorithm_QSPI\\STLDR\\MDK-ARM" "../Drivers/STM32H7xx_HAL_Driver/Src/stm32h7xx_hal_pwr_ex.c"
	.loc	5 314 0                         @ ../Drivers/STM32H7xx_HAL_Driver/Src/stm32h7xx_hal_pwr_ex.c:314:0
	.fnstart
	.cfi_sections .debug_frame
	.cfi_startproc
@ %bb.0:
	@DEBUG_VALUE: HAL_PWREx_ConfigSupply:SupplySource <- $r0
	.save	{r4, r5, r7, lr}
	push	{r4, r5, r7, lr}
	.cfi_def_cfa_offset 16
	.cfi_offset lr, -4
	.cfi_offset r7, -8
	.cfi_offset r5, -12
	.cfi_offset r4, -16
	movw	r5, #18444
	movt	r5, #22530
.Ltmp0:
	.loc	5 322 7 prologue_end            @ ../Drivers/STM32H7xx_HAL_Driver/Src/stm32h7xx_hal_pwr_ex.c:322:7
	ldr	r1, [r5]
.Ltmp1:
	.loc	5 322 7 is_stmt 0               @ ../Drivers/STM32H7xx_HAL_Driver/Src/stm32h7xx_hal_pwr_ex.c:322:7
	lsls	r1, r1, #29
	.loc	5 0 0                           @ ../Drivers/STM32H7xx_HAL_Driver/Src/stm32h7xx_hal_pwr_ex.c:0:0
	ldr	r1, [r5]
	.loc	5 322 7                         @ ../Drivers/STM32H7xx_HAL_Driver/Src/stm32h7xx_hal_pwr_ex.c:322:7
	bmi	.LBB0_2
.Ltmp2:
@ %bb.1:
	@DEBUG_VALUE: HAL_PWREx_ConfigSupply:SupplySource <- $r0
	.loc	5 328 19 is_stmt 1              @ ../Drivers/STM32H7xx_HAL_Driver/Src/stm32h7xx_hal_pwr_ex.c:328:19
	and	r1, r1, #7
	.loc	5 328 45 is_stmt 0              @ ../Drivers/STM32H7xx_HAL_Driver/Src/stm32h7xx_hal_pwr_ex.c:328:45
	subs	r0, r1, r0
.Ltmp3:
	@DEBUG_VALUE: HAL_PWREx_ConfigSupply:SupplySource <- [DW_OP_LLVM_entry_value 1] $r0
	it	ne
	movne	r0, #1
.Ltmp4:
	.loc	5 379 1 is_stmt 1               @ ../Drivers/STM32H7xx_HAL_Driver/Src/stm32h7xx_hal_pwr_ex.c:379:1
	pop	{r4, r5, r7, pc}
.Ltmp5:
	.p2align	2
.LBB0_2:
	@DEBUG_VALUE: HAL_PWREx_ConfigSupply:SupplySource <- $r0
	.loc	5 343 3                         @ ../Drivers/STM32H7xx_HAL_Driver/Src/stm32h7xx_hal_pwr_ex.c:343:3
	bic	r1, r1, #7
	orrs	r0, r1
.Ltmp6:
	@DEBUG_VALUE: HAL_PWREx_ConfigSupply:SupplySource <- [DW_OP_LLVM_entry_value 1] $r0
	str	r0, [r5]
	.loc	5 346 15                        @ ../Drivers/STM32H7xx_HAL_Driver/Src/stm32h7xx_hal_pwr_ex.c:346:15
	bl	HAL_GetTick
.Ltmp7:
	mov	r4, r0
.Ltmp8:
	@DEBUG_VALUE: HAL_PWREx_ConfigSupply:tickstart <- $r4
	.p2align	2
.LBB0_3:                                @ =>This Inner Loop Header: Depth=1
	@DEBUG_VALUE: HAL_PWREx_ConfigSupply:tickstart <- $r4
	@DEBUG_VALUE: HAL_PWREx_ConfigSupply:SupplySource <- [DW_OP_LLVM_entry_value 1] $r0
	.loc	5 349 10                        @ ../Drivers/STM32H7xx_HAL_Driver/Src/stm32h7xx_hal_pwr_ex.c:349:10
	ldr	r0, [r5, #-8]
	.loc	5 349 3 is_stmt 0               @ ../Drivers/STM32H7xx_HAL_Driver/Src/stm32h7xx_hal_pwr_ex.c:349:3
	lsls	r0, r0, #18
	bmi	.LBB0_6
.Ltmp9:
@ %bb.4:                                @   in Loop: Header=BB0_3 Depth=1
	@DEBUG_VALUE: HAL_PWREx_ConfigSupply:tickstart <- $r4
	@DEBUG_VALUE: HAL_PWREx_ConfigSupply:SupplySource <- [DW_OP_LLVM_entry_value 1] $r0
	.loc	5 351 10 is_stmt 1              @ ../Drivers/STM32H7xx_HAL_Driver/Src/stm32h7xx_hal_pwr_ex.c:351:10
	bl	HAL_GetTick
.Ltmp10:
	.loc	5 351 25 is_stmt 0              @ ../Drivers/STM32H7xx_HAL_Driver/Src/stm32h7xx_hal_pwr_ex.c:351:25
	subs	r0, r0, r4
.Ltmp11:
	.loc	5 351 9                         @ ../Drivers/STM32H7xx_HAL_Driver/Src/stm32h7xx_hal_pwr_ex.c:351:9
	cmp.w	r0, #1000
	bls	.LBB0_3
.Ltmp12:
@ %bb.5:
	@DEBUG_VALUE: HAL_PWREx_ConfigSupply:tickstart <- $r4
	@DEBUG_VALUE: HAL_PWREx_ConfigSupply:SupplySource <- [DW_OP_LLVM_entry_value 1] $r0
	.loc	5 0 9                           @ ../Drivers/STM32H7xx_HAL_Driver/Src/stm32h7xx_hal_pwr_ex.c:0:9
	movs	r0, #1
	.loc	5 379 1 is_stmt 1               @ ../Drivers/STM32H7xx_HAL_Driver/Src/stm32h7xx_hal_pwr_ex.c:379:1
	pop	{r4, r5, r7, pc}
.Ltmp13:
	.p2align	2
.LBB0_6:
	@DEBUG_VALUE: HAL_PWREx_ConfigSupply:tickstart <- $r4
	@DEBUG_VALUE: HAL_PWREx_ConfigSupply:SupplySource <- [DW_OP_LLVM_entry_value 1] $r0
	.loc	5 0 1 is_stmt 0                 @ ../Drivers/STM32H7xx_HAL_Driver/Src/stm32h7xx_hal_pwr_ex.c:0:1
	movs	r0, #0
	.loc	5 379 1                         @ ../Drivers/STM32H7xx_HAL_Driver/Src/stm32h7xx_hal_pwr_ex.c:379:1
	pop	{r4, r5, r7, pc}
.Ltmp14:
.Lfunc_end0:
	.size	HAL_PWREx_ConfigSupply, .Lfunc_end0-HAL_PWREx_ConfigSupply
	.cfi_endproc
	.cantunwind
	.fnend
                                        @ -- End function
	.hidden	HAL_PWREx_GetSupplyConfig       @ -- Begin function HAL_PWREx_GetSupplyConfig
	.globl	HAL_PWREx_GetSupplyConfig
	.p2align	3
	.type	HAL_PWREx_GetSupplyConfig,%function
	.code	16                              @ @HAL_PWREx_GetSupplyConfig
	.thumb_func
HAL_PWREx_GetSupplyConfig:
.Lfunc_begin1:
	.loc	5 386 0 is_stmt 1               @ ../Drivers/STM32H7xx_HAL_Driver/Src/stm32h7xx_hal_pwr_ex.c:386:0
	.fnstart
	.cfi_startproc
@ %bb.0:
	movw	r0, #18444
	movt	r0, #22530
.Ltmp15:
	.loc	5 387 16 prologue_end           @ ../Drivers/STM32H7xx_HAL_Driver/Src/stm32h7xx_hal_pwr_ex.c:387:16
	ldr	r0, [r0]
	.loc	5 387 20 is_stmt 0              @ ../Drivers/STM32H7xx_HAL_Driver/Src/stm32h7xx_hal_pwr_ex.c:387:20
	and	r0, r0, #7
	.loc	5 387 3                         @ ../Drivers/STM32H7xx_HAL_Driver/Src/stm32h7xx_hal_pwr_ex.c:387:3
	bx	lr
.Ltmp16:
.Lfunc_end1:
	.size	HAL_PWREx_GetSupplyConfig, .Lfunc_end1-HAL_PWREx_GetSupplyConfig
	.cfi_endproc
	.cantunwind
	.fnend
                                        @ -- End function
	.hidden	HAL_PWREx_ControlVoltageScaling @ -- Begin function HAL_PWREx_ControlVoltageScaling
	.globl	HAL_PWREx_ControlVoltageScaling
	.p2align	3
	.type	HAL_PWREx_ControlVoltageScaling,%function
	.code	16                              @ @HAL_PWREx_ControlVoltageScaling
	.thumb_func
HAL_PWREx_ControlVoltageScaling:
.Lfunc_begin2:
	.loc	5 414 0 is_stmt 1               @ ../Drivers/STM32H7xx_HAL_Driver/Src/stm32h7xx_hal_pwr_ex.c:414:0
	.fnstart
	.cfi_startproc
@ %bb.0:
	@DEBUG_VALUE: HAL_PWREx_ControlVoltageScaling:VoltageScaling <- $r0
	.save	{r4, r5, r6, lr}
	push	{r4, r5, r6, lr}
	.cfi_def_cfa_offset 16
	.cfi_offset lr, -4
	.cfi_offset r6, -8
	.cfi_offset r5, -12
	.cfi_offset r4, -16
	movw	r6, #18436
	movt	r6, #22530
.Ltmp17:
	.loc	5 421 13 prologue_end           @ ../Drivers/STM32H7xx_HAL_Driver/Src/stm32h7xx_hal_pwr_ex.c:421:13
	ldr	r1, [r6]
	.loc	5 421 18 is_stmt 0              @ ../Drivers/STM32H7xx_HAL_Driver/Src/stm32h7xx_hal_pwr_ex.c:421:18
	and	r1, r1, #49152
.Ltmp18:
	@DEBUG_VALUE: HAL_PWREx_ControlVoltageScaling:VoltageScaling <- $r0
	.loc	5 421 7                         @ ../Drivers/STM32H7xx_HAL_Driver/Src/stm32h7xx_hal_pwr_ex.c:421:7
	cmp	r1, r0
	bne	.LBB2_2
.Ltmp19:
.LBB2_1:
	.loc	5 0 7                           @ ../Drivers/STM32H7xx_HAL_Driver/Src/stm32h7xx_hal_pwr_ex.c:0:7
	movs	r0, #0
	.loc	5 505 1 is_stmt 1               @ ../Drivers/STM32H7xx_HAL_Driver/Src/stm32h7xx_hal_pwr_ex.c:505:1
	pop	{r4, r5, r6, pc}
	.p2align	2
.LBB2_2:
.Ltmp20:
	@DEBUG_VALUE: HAL_PWREx_ControlVoltageScaling:VoltageScaling <- $r0
	.loc	5 0 1 is_stmt 0                 @ ../Drivers/STM32H7xx_HAL_Driver/Src/stm32h7xx_hal_pwr_ex.c:0:1
	mov	r4, r0
.Ltmp21:
	@DEBUG_VALUE: HAL_PWREx_ControlVoltageScaling:VoltageScaling <- $r4
	.loc	5 432 7 is_stmt 1               @ ../Drivers/STM32H7xx_HAL_Driver/Src/stm32h7xx_hal_pwr_ex.c:432:7
	cbz	r0, .LBB2_10
.Ltmp22:
@ %bb.3:
	@DEBUG_VALUE: HAL_PWREx_ControlVoltageScaling:VoltageScaling <- $r4
	.loc	5 462 15                        @ ../Drivers/STM32H7xx_HAL_Driver/Src/stm32h7xx_hal_pwr_ex.c:462:15
	ldr	r0, [r6]
	.loc	5 462 20 is_stmt 0              @ ../Drivers/STM32H7xx_HAL_Driver/Src/stm32h7xx_hal_pwr_ex.c:462:20
	and	r0, r0, #49152
.Ltmp23:
	.loc	5 462 9                         @ ../Drivers/STM32H7xx_HAL_Driver/Src/stm32h7xx_hal_pwr_ex.c:462:9
	cmp.w	r0, #49152
	bne	.LBB2_5
.Ltmp24:
@ %bb.4:
	@DEBUG_VALUE: HAL_PWREx_ControlVoltageScaling:VoltageScaling <- $r4
	.loc	5 0 9                           @ ../Drivers/STM32H7xx_HAL_Driver/Src/stm32h7xx_hal_pwr_ex.c:0:9
	movw	r0, #1068
	movt	r0, #22528
.Ltmp25:
	.loc	5 464 20 is_stmt 1              @ ../Drivers/STM32H7xx_HAL_Driver/Src/stm32h7xx_hal_pwr_ex.c:464:20
	ldr	r1, [r0]
.Ltmp26:
	.loc	5 464 11 is_stmt 0              @ ../Drivers/STM32H7xx_HAL_Driver/Src/stm32h7xx_hal_pwr_ex.c:464:11
	lsls	r1, r1, #31
	bne	.LBB2_16
.Ltmp27:
.LBB2_5:
	@DEBUG_VALUE: HAL_PWREx_ControlVoltageScaling:VoltageScaling <- $r4
	.loc	5 484 5 is_stmt 1               @ ../Drivers/STM32H7xx_HAL_Driver/Src/stm32h7xx_hal_pwr_ex.c:484:5
	ldr	r0, [r6, #20]
	bic	r0, r0, #49152
	orrs	r0, r4
	str	r0, [r6, #20]
.Ltmp28:
.LBB2_6:
	.loc	5 493 15                        @ ../Drivers/STM32H7xx_HAL_Driver/Src/stm32h7xx_hal_pwr_ex.c:493:15
	bl	HAL_GetTick
.Ltmp29:
	mov	r4, r0
.Ltmp30:
	@DEBUG_VALUE: HAL_PWREx_ControlVoltageScaling:tickstart <- $r4
	.p2align	2
.LBB2_7:                                @ =>This Inner Loop Header: Depth=1
	@DEBUG_VALUE: HAL_PWREx_ControlVoltageScaling:tickstart <- $r4
	.loc	5 496 10                        @ ../Drivers/STM32H7xx_HAL_Driver/Src/stm32h7xx_hal_pwr_ex.c:496:10
	ldr	r0, [r6]
	.loc	5 496 3 is_stmt 0               @ ../Drivers/STM32H7xx_HAL_Driver/Src/stm32h7xx_hal_pwr_ex.c:496:3
	lsls	r0, r0, #18
	bmi	.LBB2_1
.Ltmp31:
@ %bb.8:                                @   in Loop: Header=BB2_7 Depth=1
	@DEBUG_VALUE: HAL_PWREx_ControlVoltageScaling:tickstart <- $r4
	.loc	5 498 10 is_stmt 1              @ ../Drivers/STM32H7xx_HAL_Driver/Src/stm32h7xx_hal_pwr_ex.c:498:10
	bl	HAL_GetTick
.Ltmp32:
	.loc	5 498 24 is_stmt 0              @ ../Drivers/STM32H7xx_HAL_Driver/Src/stm32h7xx_hal_pwr_ex.c:498:24
	subs	r0, r0, r4
.Ltmp33:
	.loc	5 498 9                         @ ../Drivers/STM32H7xx_HAL_Driver/Src/stm32h7xx_hal_pwr_ex.c:498:9
	cmp.w	r0, #1000
	bls	.LBB2_7
.Ltmp34:
@ %bb.9:
	@DEBUG_VALUE: HAL_PWREx_ControlVoltageScaling:tickstart <- $r4
	.loc	5 0 9                           @ ../Drivers/STM32H7xx_HAL_Driver/Src/stm32h7xx_hal_pwr_ex.c:0:9
	movs	r0, #1
	.loc	5 505 1 is_stmt 1               @ ../Drivers/STM32H7xx_HAL_Driver/Src/stm32h7xx_hal_pwr_ex.c:505:1
	pop	{r4, r5, r6, pc}
.Ltmp35:
	.p2align	2
.LBB2_10:
	@DEBUG_VALUE: HAL_PWREx_ControlVoltageScaling:VoltageScaling <- $r4
	.loc	5 434 15                        @ ../Drivers/STM32H7xx_HAL_Driver/Src/stm32h7xx_hal_pwr_ex.c:434:15
	ldr	r0, [r6, #8]
.Ltmp36:
	.loc	5 434 9 is_stmt 0               @ ../Drivers/STM32H7xx_HAL_Driver/Src/stm32h7xx_hal_pwr_ex.c:434:9
	lsls	r0, r0, #30
	bmi	.LBB2_12
.Ltmp37:
@ %bb.11:
	@DEBUG_VALUE: HAL_PWREx_ControlVoltageScaling:VoltageScaling <- $r4
	.loc	5 0 9                           @ ../Drivers/STM32H7xx_HAL_Driver/Src/stm32h7xx_hal_pwr_ex.c:0:9
	movs	r0, #1
	.loc	5 505 1 is_stmt 1               @ ../Drivers/STM32H7xx_HAL_Driver/Src/stm32h7xx_hal_pwr_ex.c:505:1
	pop	{r4, r5, r6, pc}
.Ltmp38:
	.p2align	2
.LBB2_12:
	@DEBUG_VALUE: HAL_PWREx_ControlVoltageScaling:VoltageScaling <- $r4
	.loc	5 437 7                         @ ../Drivers/STM32H7xx_HAL_Driver/Src/stm32h7xx_hal_pwr_ex.c:437:7
	ldr	r0, [r6, #20]
	orr	r0, r0, #49152
	str	r0, [r6, #20]
	.loc	5 440 19                        @ ../Drivers/STM32H7xx_HAL_Driver/Src/stm32h7xx_hal_pwr_ex.c:440:19
	bl	HAL_GetTick
.Ltmp39:
	mov	r4, r0
.Ltmp40:
	@DEBUG_VALUE: HAL_PWREx_ControlVoltageScaling:tickstart <- $r4
	.p2align	2
.LBB2_13:                               @ =>This Inner Loop Header: Depth=1
	@DEBUG_VALUE: HAL_PWREx_ControlVoltageScaling:tickstart <- $r4
	.loc	5 443 14                        @ ../Drivers/STM32H7xx_HAL_Driver/Src/stm32h7xx_hal_pwr_ex.c:443:14
	ldr	r0, [r6]
	.loc	5 443 7 is_stmt 0               @ ../Drivers/STM32H7xx_HAL_Driver/Src/stm32h7xx_hal_pwr_ex.c:443:7
	lsls	r0, r0, #18
	bmi	.LBB2_20
.Ltmp41:
@ %bb.14:                               @   in Loop: Header=BB2_13 Depth=1
	@DEBUG_VALUE: HAL_PWREx_ControlVoltageScaling:tickstart <- $r4
	.loc	5 445 14 is_stmt 1              @ ../Drivers/STM32H7xx_HAL_Driver/Src/stm32h7xx_hal_pwr_ex.c:445:14
	bl	HAL_GetTick
.Ltmp42:
	.loc	5 445 29 is_stmt 0              @ ../Drivers/STM32H7xx_HAL_Driver/Src/stm32h7xx_hal_pwr_ex.c:445:29
	subs	r0, r0, r4
.Ltmp43:
	.loc	5 445 13                        @ ../Drivers/STM32H7xx_HAL_Driver/Src/stm32h7xx_hal_pwr_ex.c:445:13
	cmp.w	r0, #1000
	bls	.LBB2_13
.Ltmp44:
@ %bb.15:
	@DEBUG_VALUE: HAL_PWREx_ControlVoltageScaling:tickstart <- $r4
	.loc	5 0 13                          @ ../Drivers/STM32H7xx_HAL_Driver/Src/stm32h7xx_hal_pwr_ex.c:0:13
	movs	r0, #1
	.loc	5 505 1 is_stmt 1               @ ../Drivers/STM32H7xx_HAL_Driver/Src/stm32h7xx_hal_pwr_ex.c:505:1
	pop	{r4, r5, r6, pc}
.Ltmp45:
	.p2align	2
.LBB2_16:
	@DEBUG_VALUE: HAL_PWREx_ControlVoltageScaling:VoltageScaling <- $r4
	.loc	5 467 9                         @ ../Drivers/STM32H7xx_HAL_Driver/Src/stm32h7xx_hal_pwr_ex.c:467:9
	ldr	r1, [r0]
	bic	r1, r1, #1
	str	r1, [r0]
	.loc	5 470 21                        @ ../Drivers/STM32H7xx_HAL_Driver/Src/stm32h7xx_hal_pwr_ex.c:470:21
	bl	HAL_GetTick
.Ltmp46:
	mov	r5, r0
.Ltmp47:
	@DEBUG_VALUE: HAL_PWREx_ControlVoltageScaling:tickstart <- $r5
	.p2align	2
.LBB2_17:                               @ =>This Inner Loop Header: Depth=1
	@DEBUG_VALUE: HAL_PWREx_ControlVoltageScaling:tickstart <- $r5
	@DEBUG_VALUE: HAL_PWREx_ControlVoltageScaling:VoltageScaling <- $r4
	.loc	5 473 16                        @ ../Drivers/STM32H7xx_HAL_Driver/Src/stm32h7xx_hal_pwr_ex.c:473:16
	ldr	r0, [r6]
	.loc	5 473 9 is_stmt 0               @ ../Drivers/STM32H7xx_HAL_Driver/Src/stm32h7xx_hal_pwr_ex.c:473:9
	lsls	r0, r0, #18
	bmi	.LBB2_5
.Ltmp48:
@ %bb.18:                               @   in Loop: Header=BB2_17 Depth=1
	@DEBUG_VALUE: HAL_PWREx_ControlVoltageScaling:tickstart <- $r5
	@DEBUG_VALUE: HAL_PWREx_ControlVoltageScaling:VoltageScaling <- $r4
	.loc	5 475 16 is_stmt 1              @ ../Drivers/STM32H7xx_HAL_Driver/Src/stm32h7xx_hal_pwr_ex.c:475:16
	bl	HAL_GetTick
.Ltmp49:
	.loc	5 475 31 is_stmt 0              @ ../Drivers/STM32H7xx_HAL_Driver/Src/stm32h7xx_hal_pwr_ex.c:475:31
	subs	r0, r0, r5
.Ltmp50:
	.loc	5 475 15                        @ ../Drivers/STM32H7xx_HAL_Driver/Src/stm32h7xx_hal_pwr_ex.c:475:15
	cmp.w	r0, #1000
	bls	.LBB2_17
.Ltmp51:
@ %bb.19:
	@DEBUG_VALUE: HAL_PWREx_ControlVoltageScaling:tickstart <- $r5
	@DEBUG_VALUE: HAL_PWREx_ControlVoltageScaling:VoltageScaling <- $r4
	.loc	5 0 15                          @ ../Drivers/STM32H7xx_HAL_Driver/Src/stm32h7xx_hal_pwr_ex.c:0:15
	movs	r0, #1
	.loc	5 505 1 is_stmt 1               @ ../Drivers/STM32H7xx_HAL_Driver/Src/stm32h7xx_hal_pwr_ex.c:505:1
	pop	{r4, r5, r6, pc}
.Ltmp52:
	.p2align	2
.LBB2_20:
	@DEBUG_VALUE: HAL_PWREx_ControlVoltageScaling:tickstart <- $r4
	.loc	5 0 1 is_stmt 0                 @ ../Drivers/STM32H7xx_HAL_Driver/Src/stm32h7xx_hal_pwr_ex.c:0:1
	movw	r0, #1068
	movt	r0, #22528
.Ltmp53:
	.loc	5 452 7 is_stmt 1               @ ../Drivers/STM32H7xx_HAL_Driver/Src/stm32h7xx_hal_pwr_ex.c:452:7
	ldr	r1, [r0]
	orr	r1, r1, #1
	str	r1, [r0]
	b	.LBB2_6
.Ltmp54:
.Lfunc_end2:
	.size	HAL_PWREx_ControlVoltageScaling, .Lfunc_end2-HAL_PWREx_ControlVoltageScaling
	.cfi_endproc
	.cantunwind
	.fnend
                                        @ -- End function
	.hidden	HAL_PWREx_GetVoltageRange       @ -- Begin function HAL_PWREx_GetVoltageRange
	.globl	HAL_PWREx_GetVoltageRange
	.p2align	3
	.type	HAL_PWREx_GetVoltageRange,%function
	.code	16                              @ @HAL_PWREx_GetVoltageRange
	.thumb_func
HAL_PWREx_GetVoltageRange:
.Lfunc_begin3:
	.loc	5 513 0                         @ ../Drivers/STM32H7xx_HAL_Driver/Src/stm32h7xx_hal_pwr_ex.c:513:0
	.fnstart
	.cfi_startproc
@ %bb.0:
	movw	r0, #18436
	movt	r0, #22530
.Ltmp55:
	.loc	5 515 16 prologue_end           @ ../Drivers/STM32H7xx_HAL_Driver/Src/stm32h7xx_hal_pwr_ex.c:515:16
	ldr	r0, [r0]
	.loc	5 515 21 is_stmt 0              @ ../Drivers/STM32H7xx_HAL_Driver/Src/stm32h7xx_hal_pwr_ex.c:515:21
	and	r0, r0, #49152
	.loc	5 515 3                         @ ../Drivers/STM32H7xx_HAL_Driver/Src/stm32h7xx_hal_pwr_ex.c:515:3
	bx	lr
.Ltmp56:
.Lfunc_end3:
	.size	HAL_PWREx_GetVoltageRange, .Lfunc_end3-HAL_PWREx_GetVoltageRange
	.cfi_endproc
	.cantunwind
	.fnend
                                        @ -- End function
	.hidden	HAL_PWREx_ControlStopModeVoltageScaling @ -- Begin function HAL_PWREx_ControlStopModeVoltageScaling
	.globl	HAL_PWREx_ControlStopModeVoltageScaling
	.p2align	3
	.type	HAL_PWREx_ControlStopModeVoltageScaling,%function
	.code	16                              @ @HAL_PWREx_ControlStopModeVoltageScaling
	.thumb_func
HAL_PWREx_ControlStopModeVoltageScaling:
.Lfunc_begin4:
	.loc	5 539 0 is_stmt 1               @ ../Drivers/STM32H7xx_HAL_Driver/Src/stm32h7xx_hal_pwr_ex.c:539:0
	.fnstart
	.cfi_startproc
@ %bb.0:
	@DEBUG_VALUE: HAL_PWREx_ControlStopModeVoltageScaling:VoltageScaling <- $r0
	movw	r2, #18432
	mov	r1, r0
.Ltmp57:
	@DEBUG_VALUE: HAL_PWREx_ControlStopModeVoltageScaling:VoltageScaling <- $r1
	movt	r2, #22530
.Ltmp58:
	.loc	5 544 3 prologue_end            @ ../Drivers/STM32H7xx_HAL_Driver/Src/stm32h7xx_hal_pwr_ex.c:544:3
	ldr	r0, [r2]
	bic	r3, r0, #49152
	.loc	5 546 3                         @ ../Drivers/STM32H7xx_HAL_Driver/Src/stm32h7xx_hal_pwr_ex.c:546:3
	movs	r0, #0
	.loc	5 544 3                         @ ../Drivers/STM32H7xx_HAL_Driver/Src/stm32h7xx_hal_pwr_ex.c:544:3
	orrs	r1, r3
.Ltmp59:
	str	r1, [r2]
	.loc	5 546 3                         @ ../Drivers/STM32H7xx_HAL_Driver/Src/stm32h7xx_hal_pwr_ex.c:546:3
	bx	lr
.Ltmp60:
.Lfunc_end4:
	.size	HAL_PWREx_ControlStopModeVoltageScaling, .Lfunc_end4-HAL_PWREx_ControlStopModeVoltageScaling
	.cfi_endproc
	.cantunwind
	.fnend
                                        @ -- End function
	.hidden	HAL_PWREx_GetStopModeVoltageRange @ -- Begin function HAL_PWREx_GetStopModeVoltageRange
	.globl	HAL_PWREx_GetStopModeVoltageRange
	.p2align	3
	.type	HAL_PWREx_GetStopModeVoltageRange,%function
	.code	16                              @ @HAL_PWREx_GetStopModeVoltageRange
	.thumb_func
HAL_PWREx_GetStopModeVoltageRange:
.Lfunc_begin5:
	.loc	5 554 0                         @ ../Drivers/STM32H7xx_HAL_Driver/Src/stm32h7xx_hal_pwr_ex.c:554:0
	.fnstart
	.cfi_startproc
@ %bb.0:
	movw	r0, #18432
	movt	r0, #22530
.Ltmp61:
	.loc	5 556 16 prologue_end           @ ../Drivers/STM32H7xx_HAL_Driver/Src/stm32h7xx_hal_pwr_ex.c:556:16
	ldr	r0, [r0]
	.loc	5 556 20 is_stmt 0              @ ../Drivers/STM32H7xx_HAL_Driver/Src/stm32h7xx_hal_pwr_ex.c:556:20
	and	r0, r0, #49152
	.loc	5 556 3                         @ ../Drivers/STM32H7xx_HAL_Driver/Src/stm32h7xx_hal_pwr_ex.c:556:3
	bx	lr
.Ltmp62:
.Lfunc_end5:
	.size	HAL_PWREx_GetStopModeVoltageRange, .Lfunc_end5-HAL_PWREx_GetStopModeVoltageRange
	.cfi_endproc
	.cantunwind
	.fnend
                                        @ -- End function
	.hidden	HAL_PWREx_EnterSTOPMode         @ -- Begin function HAL_PWREx_EnterSTOPMode
	.globl	HAL_PWREx_EnterSTOPMode
	.p2align	3
	.type	HAL_PWREx_EnterSTOPMode,%function
	.code	16                              @ @HAL_PWREx_EnterSTOPMode
	.thumb_func
HAL_PWREx_EnterSTOPMode:
.Lfunc_begin6:
	.loc	5 817 0 is_stmt 1               @ ../Drivers/STM32H7xx_HAL_Driver/Src/stm32h7xx_hal_pwr_ex.c:817:0
	.fnstart
	.cfi_startproc
@ %bb.0:
	@DEBUG_VALUE: HAL_PWREx_EnterSTOPMode:Regulator <- $r0
	@DEBUG_VALUE: HAL_PWREx_EnterSTOPMode:STOPEntry <- $r1
	@DEBUG_VALUE: HAL_PWREx_EnterSTOPMode:Domain <- $r2
	movw	r12, #18448
.Ltmp63:
	.loc	5 827 7 prologue_end            @ ../Drivers/STM32H7xx_HAL_Driver/Src/stm32h7xx_hal_pwr_ex.c:827:7
	cmp	r2, #1
	movt	r12, #22530
	.loc	5 824 3                         @ ../Drivers/STM32H7xx_HAL_Driver/Src/stm32h7xx_hal_pwr_ex.c:824:3
	ldr	r3, [r12, #-16]
	bic	r3, r3, #1
	orr.w	r0, r0, r3
.Ltmp64:
	@DEBUG_VALUE: HAL_PWREx_EnterSTOPMode:Regulator <- [DW_OP_LLVM_entry_value 1] $r0
	str	r0, [r12, #-16]
	.loc	5 827 7                         @ ../Drivers/STM32H7xx_HAL_Driver/Src/stm32h7xx_hal_pwr_ex.c:827:7
	beq	.LBB6_4
.Ltmp65:
@ %bb.1:
	@DEBUG_VALUE: HAL_PWREx_EnterSTOPMode:Regulator <- [DW_OP_LLVM_entry_value 1] $r0
	@DEBUG_VALUE: HAL_PWREx_EnterSTOPMode:Domain <- $r2
	@DEBUG_VALUE: HAL_PWREx_EnterSTOPMode:STOPEntry <- $r1
	cbnz	r2, .LBB6_5
.Ltmp66:
@ %bb.2:
	@DEBUG_VALUE: HAL_PWREx_EnterSTOPMode:Regulator <- [DW_OP_LLVM_entry_value 1] $r0
	@DEBUG_VALUE: HAL_PWREx_EnterSTOPMode:Domain <- $r2
	@DEBUG_VALUE: HAL_PWREx_EnterSTOPMode:STOPEntry <- $r1
	.loc	5 0 7 is_stmt 0                 @ ../Drivers/STM32H7xx_HAL_Driver/Src/stm32h7xx_hal_pwr_ex.c:0:7
	movw	r2, #60688
.Ltmp67:
	@DEBUG_VALUE: HAL_PWREx_EnterSTOPMode:Domain <- [DW_OP_LLVM_entry_value 1] $r2
	.loc	5 842 5 is_stmt 1               @ ../Drivers/STM32H7xx_HAL_Driver/Src/stm32h7xx_hal_pwr_ex.c:842:5
	ldr.w	r0, [r12]
	movt	r2, #57344
	bic	r0, r0, #1
	str.w	r0, [r12]
	.loc	5 852 9                         @ ../Drivers/STM32H7xx_HAL_Driver/Src/stm32h7xx_hal_pwr_ex.c:852:9
	cmp	r1, #1
	.loc	5 845 5                         @ ../Drivers/STM32H7xx_HAL_Driver/Src/stm32h7xx_hal_pwr_ex.c:845:5
	ldr	r0, [r2]
	orr	r0, r0, #4
	str	r0, [r2]
	.loc	5 848 5                         @ ../Drivers/STM32H7xx_HAL_Driver/Src/stm32h7xx_hal_pwr_ex.c:848:5
	dsb	sy
	.loc	5 849 5                         @ ../Drivers/STM32H7xx_HAL_Driver/Src/stm32h7xx_hal_pwr_ex.c:849:5
	isb	sy
	.loc	5 852 9                         @ ../Drivers/STM32H7xx_HAL_Driver/Src/stm32h7xx_hal_pwr_ex.c:852:9
	bne	.LBB6_6
.Ltmp68:
@ %bb.3:
	@DEBUG_VALUE: HAL_PWREx_EnterSTOPMode:Domain <- [DW_OP_LLVM_entry_value 1] $r2
	@DEBUG_VALUE: HAL_PWREx_EnterSTOPMode:Regulator <- [DW_OP_LLVM_entry_value 1] $r0
	@DEBUG_VALUE: HAL_PWREx_EnterSTOPMode:STOPEntry <- $r1
	.loc	5 855 7                         @ ../Drivers/STM32H7xx_HAL_Driver/Src/stm32h7xx_hal_pwr_ex.c:855:7
	wfi
	b	.LBB6_7
.Ltmp69:
	.p2align	2
.LBB6_4:
	@DEBUG_VALUE: HAL_PWREx_EnterSTOPMode:Regulator <- [DW_OP_LLVM_entry_value 1] $r0
	@DEBUG_VALUE: HAL_PWREx_EnterSTOPMode:Domain <- $r2
	@DEBUG_VALUE: HAL_PWREx_EnterSTOPMode:STOPEntry <- $r1
	.loc	5 0 7 is_stmt 0                 @ ../Drivers/STM32H7xx_HAL_Driver/Src/stm32h7xx_hal_pwr_ex.c:0:7
	mvn	r0, #2
	ldr.w	r1, [r12]
.Ltmp70:
	@DEBUG_VALUE: HAL_PWREx_EnterSTOPMode:STOPEntry <- [DW_OP_LLVM_entry_value 1] $r1
	ands	r0, r1
	str.w	r0, [r12]
.Ltmp71:
	.loc	5 929 1 is_stmt 1               @ ../Drivers/STM32H7xx_HAL_Driver/Src/stm32h7xx_hal_pwr_ex.c:929:1
	bx	lr
.Ltmp72:
	.p2align	2
.LBB6_5:
	@DEBUG_VALUE: HAL_PWREx_EnterSTOPMode:Regulator <- [DW_OP_LLVM_entry_value 1] $r0
	@DEBUG_VALUE: HAL_PWREx_EnterSTOPMode:Domain <- $r2
	@DEBUG_VALUE: HAL_PWREx_EnterSTOPMode:STOPEntry <- $r1
	.loc	5 0 1 is_stmt 0                 @ ../Drivers/STM32H7xx_HAL_Driver/Src/stm32h7xx_hal_pwr_ex.c:0:1
	mvn	r0, #4
.Ltmp73:
	ldr.w	r1, [r12]
.Ltmp74:
	@DEBUG_VALUE: HAL_PWREx_EnterSTOPMode:STOPEntry <- [DW_OP_LLVM_entry_value 1] $r1
	ands	r0, r1
	str.w	r0, [r12]
.Ltmp75:
	.loc	5 929 1                         @ ../Drivers/STM32H7xx_HAL_Driver/Src/stm32h7xx_hal_pwr_ex.c:929:1
	bx	lr
.Ltmp76:
	.p2align	2
.LBB6_6:
	@DEBUG_VALUE: HAL_PWREx_EnterSTOPMode:Domain <- [DW_OP_LLVM_entry_value 1] $r2
	@DEBUG_VALUE: HAL_PWREx_EnterSTOPMode:Regulator <- [DW_OP_LLVM_entry_value 1] $r0
	@DEBUG_VALUE: HAL_PWREx_EnterSTOPMode:STOPEntry <- $r1
	.loc	5 860 7 is_stmt 1               @ ../Drivers/STM32H7xx_HAL_Driver/Src/stm32h7xx_hal_pwr_ex.c:860:7
	wfe
.Ltmp77:
.LBB6_7:
	@DEBUG_VALUE: HAL_PWREx_EnterSTOPMode:Domain <- [DW_OP_LLVM_entry_value 1] $r2
	@DEBUG_VALUE: HAL_PWREx_EnterSTOPMode:Regulator <- [DW_OP_LLVM_entry_value 1] $r0
	@DEBUG_VALUE: HAL_PWREx_EnterSTOPMode:STOPEntry <- $r1
	.loc	5 0 7 is_stmt 0                 @ ../Drivers/STM32H7xx_HAL_Driver/Src/stm32h7xx_hal_pwr_ex.c:0:7
	mvn	r0, #4
	mov	r12, r2
	ldr.w	r1, [r12]
.Ltmp78:
	@DEBUG_VALUE: HAL_PWREx_EnterSTOPMode:STOPEntry <- [DW_OP_LLVM_entry_value 1] $r1
	ands	r0, r1
	str.w	r0, [r12]
.Ltmp79:
	.loc	5 929 1 is_stmt 1               @ ../Drivers/STM32H7xx_HAL_Driver/Src/stm32h7xx_hal_pwr_ex.c:929:1
	bx	lr
.Ltmp80:
.Lfunc_end6:
	.size	HAL_PWREx_EnterSTOPMode, .Lfunc_end6-HAL_PWREx_EnterSTOPMode
	.cfi_endproc
	.cantunwind
	.fnend
                                        @ -- End function
	.hidden	HAL_PWREx_ClearPendingEvent     @ -- Begin function HAL_PWREx_ClearPendingEvent
	.globl	HAL_PWREx_ClearPendingEvent
	.p2align	3
	.type	HAL_PWREx_ClearPendingEvent,%function
	.code	16                              @ @HAL_PWREx_ClearPendingEvent
	.thumb_func
HAL_PWREx_ClearPendingEvent:
.Lfunc_begin7:
	.loc	5 940 0                         @ ../Drivers/STM32H7xx_HAL_Driver/Src/stm32h7xx_hal_pwr_ex.c:940:0
	.fnstart
	.cfi_startproc
@ %bb.0:
	.loc	5 953 3 prologue_end            @ ../Drivers/STM32H7xx_HAL_Driver/Src/stm32h7xx_hal_pwr_ex.c:953:3
	wfe
	.loc	5 955 1                         @ ../Drivers/STM32H7xx_HAL_Driver/Src/stm32h7xx_hal_pwr_ex.c:955:1
	bx	lr
.Ltmp81:
.Lfunc_end7:
	.size	HAL_PWREx_ClearPendingEvent, .Lfunc_end7-HAL_PWREx_ClearPendingEvent
	.cfi_endproc
	.cantunwind
	.fnend
                                        @ -- End function
	.hidden	HAL_PWREx_EnterSTANDBYMode      @ -- Begin function HAL_PWREx_EnterSTANDBYMode
	.globl	HAL_PWREx_EnterSTANDBYMode
	.p2align	3
	.type	HAL_PWREx_EnterSTANDBYMode,%function
	.code	16                              @ @HAL_PWREx_EnterSTANDBYMode
	.thumb_func
HAL_PWREx_EnterSTANDBYMode:
.Lfunc_begin8:
	.loc	5 987 0                         @ ../Drivers/STM32H7xx_HAL_Driver/Src/stm32h7xx_hal_pwr_ex.c:987:0
	.fnstart
	.cfi_startproc
@ %bb.0:
	@DEBUG_VALUE: HAL_PWREx_EnterSTANDBYMode:Domain <- $r0
	.loc	5 992 7 prologue_end            @ ../Drivers/STM32H7xx_HAL_Driver/Src/stm32h7xx_hal_pwr_ex.c:992:7
	cmp	r0, #1
	beq	.LBB8_3
.Ltmp82:
@ %bb.1:
	@DEBUG_VALUE: HAL_PWREx_EnterSTANDBYMode:Domain <- $r0
	cbnz	r0, .LBB8_4
.Ltmp83:
@ %bb.2:
	@DEBUG_VALUE: HAL_PWREx_EnterSTANDBYMode:Domain <- $r0
	.loc	5 0 7 is_stmt 0                 @ ../Drivers/STM32H7xx_HAL_Driver/Src/stm32h7xx_hal_pwr_ex.c:0:7
	movw	r0, #18448
.Ltmp84:
	@DEBUG_VALUE: HAL_PWREx_EnterSTANDBYMode:Domain <- [DW_OP_LLVM_entry_value 1] $r0
	movt	r0, #22530
.Ltmp85:
	.loc	5 1007 5 is_stmt 1              @ ../Drivers/STM32H7xx_HAL_Driver/Src/stm32h7xx_hal_pwr_ex.c:1007:5
	ldr	r1, [r0]
	orr	r1, r1, #1
	str	r1, [r0]
	movw	r0, #60688
	movt	r0, #57344
	.loc	5 1015 5                        @ ../Drivers/STM32H7xx_HAL_Driver/Src/stm32h7xx_hal_pwr_ex.c:1015:5
	ldr	r1, [r0]
	orr	r1, r1, #4
	str	r1, [r0]
	.loc	5 1023 5                        @ ../Drivers/STM32H7xx_HAL_Driver/Src/stm32h7xx_hal_pwr_ex.c:1023:5
	wfi
.Ltmp86:
	.loc	5 1068 1                        @ ../Drivers/STM32H7xx_HAL_Driver/Src/stm32h7xx_hal_pwr_ex.c:1068:1
	bx	lr
.Ltmp87:
	.p2align	2
.LBB8_3:
	@DEBUG_VALUE: HAL_PWREx_EnterSTANDBYMode:Domain <- $r0
	.loc	5 0 1 is_stmt 0                 @ ../Drivers/STM32H7xx_HAL_Driver/Src/stm32h7xx_hal_pwr_ex.c:0:1
	movw	r0, #18448
.Ltmp88:
	@DEBUG_VALUE: HAL_PWREx_EnterSTANDBYMode:Domain <- [DW_OP_LLVM_entry_value 1] $r0
	movt	r0, #22530
.Ltmp89:
	.loc	5 1029 5 is_stmt 1              @ ../Drivers/STM32H7xx_HAL_Driver/Src/stm32h7xx_hal_pwr_ex.c:1029:5
	ldr	r1, [r0]
	orr	r1, r1, #2
	str	r1, [r0]
.Ltmp90:
	.loc	5 1068 1                        @ ../Drivers/STM32H7xx_HAL_Driver/Src/stm32h7xx_hal_pwr_ex.c:1068:1
	bx	lr
.Ltmp91:
	.p2align	2
.LBB8_4:
	@DEBUG_VALUE: HAL_PWREx_EnterSTANDBYMode:Domain <- $r0
	.loc	5 0 1 is_stmt 0                 @ ../Drivers/STM32H7xx_HAL_Driver/Src/stm32h7xx_hal_pwr_ex.c:0:1
	movw	r0, #18448
.Ltmp92:
	@DEBUG_VALUE: HAL_PWREx_EnterSTANDBYMode:Domain <- [DW_OP_LLVM_entry_value 1] $r0
	movt	r0, #22530
.Ltmp93:
	.loc	5 1061 5 is_stmt 1              @ ../Drivers/STM32H7xx_HAL_Driver/Src/stm32h7xx_hal_pwr_ex.c:1061:5
	ldr	r1, [r0]
	orr	r1, r1, #4
	str	r1, [r0]
.Ltmp94:
	.loc	5 1068 1                        @ ../Drivers/STM32H7xx_HAL_Driver/Src/stm32h7xx_hal_pwr_ex.c:1068:1
	bx	lr
.Ltmp95:
.Lfunc_end8:
	.size	HAL_PWREx_EnterSTANDBYMode, .Lfunc_end8-HAL_PWREx_EnterSTANDBYMode
	.cfi_endproc
	.cantunwind
	.fnend
                                        @ -- End function
	.hidden	HAL_PWREx_ConfigD3Domain        @ -- Begin function HAL_PWREx_ConfigD3Domain
	.globl	HAL_PWREx_ConfigD3Domain
	.p2align	3
	.type	HAL_PWREx_ConfigD3Domain,%function
	.code	16                              @ @HAL_PWREx_ConfigD3Domain
	.thumb_func
HAL_PWREx_ConfigD3Domain:
.Lfunc_begin9:
	.loc	5 1082 0                        @ ../Drivers/STM32H7xx_HAL_Driver/Src/stm32h7xx_hal_pwr_ex.c:1082:0
	.fnstart
	.cfi_startproc
@ %bb.0:
	@DEBUG_VALUE: HAL_PWREx_ConfigD3Domain:D3State <- $r0
	movw	r1, #18448
	movt	r1, #22530
.Ltmp96:
	.loc	5 1087 3 prologue_end           @ ../Drivers/STM32H7xx_HAL_Driver/Src/stm32h7xx_hal_pwr_ex.c:1087:3
	ldr	r2, [r1]
	bic	r2, r2, #2048
	orrs	r0, r2
.Ltmp97:
	@DEBUG_VALUE: HAL_PWREx_ConfigD3Domain:D3State <- [DW_OP_LLVM_entry_value 1] $r0
	str	r0, [r1]
	.loc	5 1088 1                        @ ../Drivers/STM32H7xx_HAL_Driver/Src/stm32h7xx_hal_pwr_ex.c:1088:1
	bx	lr
.Ltmp98:
.Lfunc_end9:
	.size	HAL_PWREx_ConfigD3Domain, .Lfunc_end9-HAL_PWREx_ConfigD3Domain
	.cfi_endproc
	.cantunwind
	.fnend
                                        @ -- End function
	.hidden	HAL_PWREx_EnableFlashPowerDown  @ -- Begin function HAL_PWREx_EnableFlashPowerDown
	.globl	HAL_PWREx_EnableFlashPowerDown
	.p2align	3
	.type	HAL_PWREx_EnableFlashPowerDown,%function
	.code	16                              @ @HAL_PWREx_EnableFlashPowerDown
	.thumb_func
HAL_PWREx_EnableFlashPowerDown:
.Lfunc_begin10:
	.loc	5 1213 0                        @ ../Drivers/STM32H7xx_HAL_Driver/Src/stm32h7xx_hal_pwr_ex.c:1213:0
	.fnstart
	.cfi_startproc
@ %bb.0:
	movw	r0, #18432
	movt	r0, #22530
.Ltmp99:
	.loc	5 1215 3 prologue_end           @ ../Drivers/STM32H7xx_HAL_Driver/Src/stm32h7xx_hal_pwr_ex.c:1215:3
	ldr	r1, [r0]
	orr	r1, r1, #512
	str	r1, [r0]
	.loc	5 1216 1                        @ ../Drivers/STM32H7xx_HAL_Driver/Src/stm32h7xx_hal_pwr_ex.c:1216:1
	bx	lr
.Ltmp100:
.Lfunc_end10:
	.size	HAL_PWREx_EnableFlashPowerDown, .Lfunc_end10-HAL_PWREx_EnableFlashPowerDown
	.cfi_endproc
	.cantunwind
	.fnend
                                        @ -- End function
	.hidden	HAL_PWREx_DisableFlashPowerDown @ -- Begin function HAL_PWREx_DisableFlashPowerDown
	.globl	HAL_PWREx_DisableFlashPowerDown
	.p2align	3
	.type	HAL_PWREx_DisableFlashPowerDown,%function
	.code	16                              @ @HAL_PWREx_DisableFlashPowerDown
	.thumb_func
HAL_PWREx_DisableFlashPowerDown:
.Lfunc_begin11:
	.loc	5 1227 0                        @ ../Drivers/STM32H7xx_HAL_Driver/Src/stm32h7xx_hal_pwr_ex.c:1227:0
	.fnstart
	.cfi_startproc
@ %bb.0:
	movw	r0, #18432
	movt	r0, #22530
.Ltmp101:
	.loc	5 1229 3 prologue_end           @ ../Drivers/STM32H7xx_HAL_Driver/Src/stm32h7xx_hal_pwr_ex.c:1229:3
	ldr	r1, [r0]
	bic	r1, r1, #512
	str	r1, [r0]
	.loc	5 1230 1                        @ ../Drivers/STM32H7xx_HAL_Driver/Src/stm32h7xx_hal_pwr_ex.c:1230:1
	bx	lr
.Ltmp102:
.Lfunc_end11:
	.size	HAL_PWREx_DisableFlashPowerDown, .Lfunc_end11-HAL_PWREx_DisableFlashPowerDown
	.cfi_endproc
	.cantunwind
	.fnend
                                        @ -- End function
	.hidden	HAL_PWREx_EnableWakeUpPin       @ -- Begin function HAL_PWREx_EnableWakeUpPin
	.globl	HAL_PWREx_EnableWakeUpPin
	.p2align	3
	.type	HAL_PWREx_EnableWakeUpPin,%function
	.code	16                              @ @HAL_PWREx_EnableWakeUpPin
	.thumb_func
HAL_PWREx_EnableWakeUpPin:
.Lfunc_begin12:
	.loc	5 1303 0                        @ ../Drivers/STM32H7xx_HAL_Driver/Src/stm32h7xx_hal_pwr_ex.c:1303:0
	.fnstart
	.cfi_startproc
@ %bb.0:
	@DEBUG_VALUE: HAL_PWREx_EnableWakeUpPin:sPinParams <- $r0
	@DEBUG_VALUE: __CLZ:value <- undef
	.save	{r4, lr}
	push	{r4, lr}
	.cfi_def_cfa_offset 8
	.cfi_offset lr, -4
	.cfi_offset r4, -8
.Ltmp103:
	@DEBUG_VALUE: HAL_PWREx_EnableWakeUpPin:pullMask <- 196608
	.loc	5 1313 27 prologue_end          @ ../Drivers/STM32H7xx_HAL_Driver/Src/stm32h7xx_hal_pwr_ex.c:1313:27
	ldm.w	r0, {r1, r4, r12}
	mov.w	lr, #16
.Ltmp104:
	@DEBUG_VALUE: __CLZ:value <- undef
	.file	6 "F:\\3.git\\1.Github\\ExFlash_Algorithm\\embedfire\\Algorithm_QSPI\\STLDR\\MDK-ARM" "../Drivers/CMSIS/Include/cmsis_armclang.h"
	.loc	6 948 7                         @ ../Drivers/CMSIS/Include/cmsis_armclang.h:948:7
	rbit	r3, r1
	clz	r3, r3
.Ltmp105:
	.loc	5 1314 107                      @ ../Drivers/STM32H7xx_HAL_Driver/Src/stm32h7xx_hal_pwr_ex.c:1314:107
	add.w	r0, r3, #8
.Ltmp106:
	@DEBUG_VALUE: HAL_PWREx_EnableWakeUpPin:sPinParams <- [DW_OP_LLVM_entry_value 1] $r0
	and	r0, r0, #31
	.loc	5 1315 115                      @ ../Drivers/STM32H7xx_HAL_Driver/Src/stm32h7xx_hal_pwr_ex.c:1315:115
	add.w	r2, lr, r3, lsl #1
	.loc	5 1314 40                       @ ../Drivers/STM32H7xx_HAL_Driver/Src/stm32h7xx_hal_pwr_ex.c:1314:40
	lsl.w	lr, r4, r0
	.loc	5 1318 75                       @ ../Drivers/STM32H7xx_HAL_Driver/Src/stm32h7xx_hal_pwr_ex.c:1318:75
	and	r4, r3, #31
	mov.w	r0, #256
	.loc	5 1315 144                      @ ../Drivers/STM32H7xx_HAL_Driver/Src/stm32h7xx_hal_pwr_ex.c:1315:144
	and	r2, r2, #30
	.loc	5 1318 35                       @ ../Drivers/STM32H7xx_HAL_Driver/Src/stm32h7xx_hal_pwr_ex.c:1318:35
	lsls	r0, r4
	movs	r4, #30
.Ltmp107:
	@DEBUG_VALUE: __CLZ:value <- undef
	.loc	5 1319 103                      @ ../Drivers/STM32H7xx_HAL_Driver/Src/stm32h7xx_hal_pwr_ex.c:1319:103
	and.w	r3, r4, r3, lsl #1
	mov.w	r4, #196608
	.loc	5 1319 25 is_stmt 0             @ ../Drivers/STM32H7xx_HAL_Driver/Src/stm32h7xx_hal_pwr_ex.c:1319:25
	lsl.w	r3, r4, r3
	.loc	5 1318 85 is_stmt 1             @ ../Drivers/STM32H7xx_HAL_Driver/Src/stm32h7xx_hal_pwr_ex.c:1318:85
	orrs	r0, r3
	movw	r3, #18472
	movt	r3, #22530
	.loc	5 1315 36                       @ ../Drivers/STM32H7xx_HAL_Driver/Src/stm32h7xx_hal_pwr_ex.c:1315:36
	lsl.w	r2, r12, r2
.Ltmp108:
	@DEBUG_VALUE: __CLZ:value <- undef
	@DEBUG_VALUE: HAL_PWREx_EnableWakeUpPin:pinConfig <- [DW_OP_LLVM_arg 0, DW_OP_LLVM_arg 1, DW_OP_or, DW_OP_stack_value] undef, undef
	.loc	5 1318 85                       @ ../Drivers/STM32H7xx_HAL_Driver/Src/stm32h7xx_hal_pwr_ex.c:1318:85
	orrs	r0, r1
.Ltmp109:
	@DEBUG_VALUE: HAL_PWREx_EnableWakeUpPin:regMask <- $r0
	.loc	5 1323 3                        @ ../Drivers/STM32H7xx_HAL_Driver/Src/stm32h7xx_hal_pwr_ex.c:1323:3
	orr.w	r2, r2, lr
	ldr	r4, [r3]
	bic.w	r0, r4, r0
.Ltmp110:
	orrs	r0, r2
	orrs	r0, r1
	str	r0, [r3]
	movs	r0, #144
	movt	r0, #22528
	.loc	5 1326 3                        @ ../Drivers/STM32H7xx_HAL_Driver/Src/stm32h7xx_hal_pwr_ex.c:1326:3
	ldr	r2, [r0]
	bic	r2, r2, #528482304
	orr.w	r1, r2, r1, lsl #23
	str	r1, [r0]
	.loc	5 1328 1                        @ ../Drivers/STM32H7xx_HAL_Driver/Src/stm32h7xx_hal_pwr_ex.c:1328:1
	pop	{r4, pc}
.Ltmp111:
.Lfunc_end12:
	.size	HAL_PWREx_EnableWakeUpPin, .Lfunc_end12-HAL_PWREx_EnableWakeUpPin
	.cfi_endproc
	.cantunwind
	.fnend
                                        @ -- End function
	.hidden	HAL_PWREx_DisableWakeUpPin      @ -- Begin function HAL_PWREx_DisableWakeUpPin
	.globl	HAL_PWREx_DisableWakeUpPin
	.p2align	3
	.type	HAL_PWREx_DisableWakeUpPin,%function
	.code	16                              @ @HAL_PWREx_DisableWakeUpPin
	.thumb_func
HAL_PWREx_DisableWakeUpPin:
.Lfunc_begin13:
	.loc	5 1345 0                        @ ../Drivers/STM32H7xx_HAL_Driver/Src/stm32h7xx_hal_pwr_ex.c:1345:0
	.fnstart
	.cfi_startproc
@ %bb.0:
	@DEBUG_VALUE: HAL_PWREx_DisableWakeUpPin:WakeUpPin <- $r0
	movw	r1, #18472
	movt	r1, #22530
.Ltmp112:
	.loc	5 1350 3 prologue_end           @ ../Drivers/STM32H7xx_HAL_Driver/Src/stm32h7xx_hal_pwr_ex.c:1350:3
	ldr	r2, [r1]
	bic.w	r0, r2, r0
.Ltmp113:
	@DEBUG_VALUE: HAL_PWREx_DisableWakeUpPin:WakeUpPin <- [DW_OP_LLVM_entry_value 1] $r0
	str	r0, [r1]
	.loc	5 1351 1                        @ ../Drivers/STM32H7xx_HAL_Driver/Src/stm32h7xx_hal_pwr_ex.c:1351:1
	bx	lr
.Ltmp114:
.Lfunc_end13:
	.size	HAL_PWREx_DisableWakeUpPin, .Lfunc_end13-HAL_PWREx_DisableWakeUpPin
	.cfi_endproc
	.cantunwind
	.fnend
                                        @ -- End function
	.hidden	HAL_PWREx_GetWakeupFlag         @ -- Begin function HAL_PWREx_GetWakeupFlag
	.globl	HAL_PWREx_GetWakeupFlag
	.p2align	3
	.type	HAL_PWREx_GetWakeupFlag,%function
	.code	16                              @ @HAL_PWREx_GetWakeupFlag
	.thumb_func
HAL_PWREx_GetWakeupFlag:
.Lfunc_begin14:
	.loc	5 1370 0                        @ ../Drivers/STM32H7xx_HAL_Driver/Src/stm32h7xx_hal_pwr_ex.c:1370:0
	.fnstart
	.cfi_startproc
@ %bb.0:
	@DEBUG_VALUE: HAL_PWREx_GetWakeupFlag:WakeUpFlag <- $r0
	movw	r1, #18468
	movt	r1, #22530
.Ltmp115:
	.loc	5 1375 16 prologue_end          @ ../Drivers/STM32H7xx_HAL_Driver/Src/stm32h7xx_hal_pwr_ex.c:1375:16
	ldr	r1, [r1]
	.loc	5 1375 23 is_stmt 0             @ ../Drivers/STM32H7xx_HAL_Driver/Src/stm32h7xx_hal_pwr_ex.c:1375:23
	ands	r0, r1
.Ltmp116:
	@DEBUG_VALUE: HAL_PWREx_GetWakeupFlag:WakeUpFlag <- [DW_OP_LLVM_entry_value 1] $r0
	.loc	5 1375 3                        @ ../Drivers/STM32H7xx_HAL_Driver/Src/stm32h7xx_hal_pwr_ex.c:1375:3
	bx	lr
.Ltmp117:
.Lfunc_end14:
	.size	HAL_PWREx_GetWakeupFlag, .Lfunc_end14-HAL_PWREx_GetWakeupFlag
	.cfi_endproc
	.cantunwind
	.fnend
                                        @ -- End function
	.hidden	HAL_PWREx_ClearWakeupFlag       @ -- Begin function HAL_PWREx_ClearWakeupFlag
	.globl	HAL_PWREx_ClearWakeupFlag
	.p2align	3
	.type	HAL_PWREx_ClearWakeupFlag,%function
	.code	16                              @ @HAL_PWREx_ClearWakeupFlag
	.thumb_func
HAL_PWREx_ClearWakeupFlag:
.Lfunc_begin15:
	.loc	5 1395 0 is_stmt 1              @ ../Drivers/STM32H7xx_HAL_Driver/Src/stm32h7xx_hal_pwr_ex.c:1395:0
	.fnstart
	.cfi_startproc
@ %bb.0:
	@DEBUG_VALUE: HAL_PWREx_ClearWakeupFlag:WakeUpFlag <- $r0
	movw	r1, #18464
	movt	r1, #22530
.Ltmp118:
	.loc	5 1400 3 prologue_end           @ ../Drivers/STM32H7xx_HAL_Driver/Src/stm32h7xx_hal_pwr_ex.c:1400:3
	ldr	r2, [r1]
	orrs	r2, r0
	str	r2, [r1]
.Ltmp119:
	.loc	5 1403 13                       @ ../Drivers/STM32H7xx_HAL_Driver/Src/stm32h7xx_hal_pwr_ex.c:1403:13
	ldr	r1, [r1, #4]
	.loc	5 1403 20 is_stmt 0             @ ../Drivers/STM32H7xx_HAL_Driver/Src/stm32h7xx_hal_pwr_ex.c:1403:20
	ands	r0, r1
.Ltmp120:
	@DEBUG_VALUE: HAL_PWREx_ClearWakeupFlag:WakeUpFlag <- [DW_OP_LLVM_entry_value 1] $r0
	.loc	5 1403 34                       @ ../Drivers/STM32H7xx_HAL_Driver/Src/stm32h7xx_hal_pwr_ex.c:1403:34
	it	ne
	movne	r0, #1
.Ltmp121:
	.loc	5 1409 1 is_stmt 1              @ ../Drivers/STM32H7xx_HAL_Driver/Src/stm32h7xx_hal_pwr_ex.c:1409:1
	bx	lr
.Ltmp122:
.Lfunc_end15:
	.size	HAL_PWREx_ClearWakeupFlag, .Lfunc_end15-HAL_PWREx_ClearWakeupFlag
	.cfi_endproc
	.cantunwind
	.fnend
                                        @ -- End function
	.hidden	HAL_PWREx_WAKEUP_PIN_IRQHandler @ -- Begin function HAL_PWREx_WAKEUP_PIN_IRQHandler
	.globl	HAL_PWREx_WAKEUP_PIN_IRQHandler
	.p2align	3
	.type	HAL_PWREx_WAKEUP_PIN_IRQHandler,%function
	.code	16                              @ @HAL_PWREx_WAKEUP_PIN_IRQHandler
	.thumb_func
HAL_PWREx_WAKEUP_PIN_IRQHandler:
.Lfunc_begin16:
	.loc	5 1417 0                        @ ../Drivers/STM32H7xx_HAL_Driver/Src/stm32h7xx_hal_pwr_ex.c:1417:0
	.fnstart
	.cfi_startproc
@ %bb.0:
	movw	r0, #18464
	movt	r0, #22530
.Ltmp123:
	.loc	5 1419 7 prologue_end           @ ../Drivers/STM32H7xx_HAL_Driver/Src/stm32h7xx_hal_pwr_ex.c:1419:7
	ldr	r1, [r0, #4]
.Ltmp124:
	.loc	5 1419 7 is_stmt 0              @ ../Drivers/STM32H7xx_HAL_Driver/Src/stm32h7xx_hal_pwr_ex.c:1419:7
	lsls	r1, r1, #31
	bne	.LBB16_6
@ %bb.1:
.Ltmp125:
	.loc	5 1427 12 is_stmt 1             @ ../Drivers/STM32H7xx_HAL_Driver/Src/stm32h7xx_hal_pwr_ex.c:1427:12
	ldr	r1, [r0, #4]
.Ltmp126:
	.loc	5 1427 12 is_stmt 0             @ ../Drivers/STM32H7xx_HAL_Driver/Src/stm32h7xx_hal_pwr_ex.c:1427:12
	lsls	r1, r1, #30
	bmi	.LBB16_7
@ %bb.2:
.Ltmp127:
	.loc	5 1436 12 is_stmt 1             @ ../Drivers/STM32H7xx_HAL_Driver/Src/stm32h7xx_hal_pwr_ex.c:1436:12
	ldr	r1, [r0, #4]
.Ltmp128:
	.loc	5 1436 12 is_stmt 0             @ ../Drivers/STM32H7xx_HAL_Driver/Src/stm32h7xx_hal_pwr_ex.c:1436:12
	lsls	r1, r1, #29
	bmi	.LBB16_8
@ %bb.3:
.Ltmp129:
	.loc	5 1445 12 is_stmt 1             @ ../Drivers/STM32H7xx_HAL_Driver/Src/stm32h7xx_hal_pwr_ex.c:1445:12
	ldr	r1, [r0, #4]
.Ltmp130:
	.loc	5 1445 12 is_stmt 0             @ ../Drivers/STM32H7xx_HAL_Driver/Src/stm32h7xx_hal_pwr_ex.c:1445:12
	lsls	r1, r1, #28
	bmi	.LBB16_9
@ %bb.4:
.Ltmp131:
	.loc	5 1454 12 is_stmt 1             @ ../Drivers/STM32H7xx_HAL_Driver/Src/stm32h7xx_hal_pwr_ex.c:1454:12
	ldr	r1, [r0, #4]
.Ltmp132:
	.loc	5 1454 12 is_stmt 0             @ ../Drivers/STM32H7xx_HAL_Driver/Src/stm32h7xx_hal_pwr_ex.c:1454:12
	lsls	r1, r1, #27
.Ltmp133:
	.loc	5 0 0                           @ ../Drivers/STM32H7xx_HAL_Driver/Src/stm32h7xx_hal_pwr_ex.c:0:0
	ldr	r1, [r0]
.Ltmp134:
	.loc	5 1454 12                       @ ../Drivers/STM32H7xx_HAL_Driver/Src/stm32h7xx_hal_pwr_ex.c:1454:12
	bmi	.LBB16_10
@ %bb.5:
.Ltmp135:
	.loc	5 1466 5 is_stmt 1              @ ../Drivers/STM32H7xx_HAL_Driver/Src/stm32h7xx_hal_pwr_ex.c:1466:5
	orr	r1, r1, #32
	str	r1, [r0]
.Ltmp136:
	.loc	5 1469 5                        @ ../Drivers/STM32H7xx_HAL_Driver/Src/stm32h7xx_hal_pwr_ex.c:1469:5
	b	HAL_PWREx_WKUP6_Callback
.Ltmp137:
	.p2align	2
.LBB16_6:
	.loc	5 1422 5                        @ ../Drivers/STM32H7xx_HAL_Driver/Src/stm32h7xx_hal_pwr_ex.c:1422:5
	ldr	r1, [r0]
	orr	r1, r1, #1
	str	r1, [r0]
.Ltmp138:
	.loc	5 1425 5                        @ ../Drivers/STM32H7xx_HAL_Driver/Src/stm32h7xx_hal_pwr_ex.c:1425:5
	b	HAL_PWREx_WKUP1_Callback
.Ltmp139:
	.p2align	2
.LBB16_7:
	.loc	5 1430 5                        @ ../Drivers/STM32H7xx_HAL_Driver/Src/stm32h7xx_hal_pwr_ex.c:1430:5
	ldr	r1, [r0]
	orr	r1, r1, #2
	str	r1, [r0]
.Ltmp140:
	.loc	5 1433 5                        @ ../Drivers/STM32H7xx_HAL_Driver/Src/stm32h7xx_hal_pwr_ex.c:1433:5
	b	HAL_PWREx_WKUP2_Callback
.Ltmp141:
	.p2align	2
.LBB16_8:
	.loc	5 1439 5                        @ ../Drivers/STM32H7xx_HAL_Driver/Src/stm32h7xx_hal_pwr_ex.c:1439:5
	ldr	r1, [r0]
	orr	r1, r1, #4
	str	r1, [r0]
.Ltmp142:
	.loc	5 1442 5                        @ ../Drivers/STM32H7xx_HAL_Driver/Src/stm32h7xx_hal_pwr_ex.c:1442:5
	b	HAL_PWREx_WKUP3_Callback
.Ltmp143:
	.p2align	2
.LBB16_9:
	.loc	5 1448 5                        @ ../Drivers/STM32H7xx_HAL_Driver/Src/stm32h7xx_hal_pwr_ex.c:1448:5
	ldr	r1, [r0]
	orr	r1, r1, #8
	str	r1, [r0]
.Ltmp144:
	.loc	5 1451 5                        @ ../Drivers/STM32H7xx_HAL_Driver/Src/stm32h7xx_hal_pwr_ex.c:1451:5
	b	HAL_PWREx_WKUP4_Callback
.Ltmp145:
	.p2align	2
.LBB16_10:
	.loc	5 1457 5                        @ ../Drivers/STM32H7xx_HAL_Driver/Src/stm32h7xx_hal_pwr_ex.c:1457:5
	orr	r1, r1, #16
	str	r1, [r0]
.Ltmp146:
	.loc	5 1460 5                        @ ../Drivers/STM32H7xx_HAL_Driver/Src/stm32h7xx_hal_pwr_ex.c:1460:5
	b	HAL_PWREx_WKUP5_Callback
.Ltmp147:
.Lfunc_end16:
	.size	HAL_PWREx_WAKEUP_PIN_IRQHandler, .Lfunc_end16-HAL_PWREx_WAKEUP_PIN_IRQHandler
	.cfi_endproc
	.cantunwind
	.fnend
                                        @ -- End function
	.hidden	HAL_PWREx_WKUP1_Callback        @ -- Begin function HAL_PWREx_WKUP1_Callback
	.weak	HAL_PWREx_WKUP1_Callback
	.p2align	3
	.type	HAL_PWREx_WKUP1_Callback,%function
	.code	16                              @ @HAL_PWREx_WKUP1_Callback
	.thumb_func
HAL_PWREx_WKUP1_Callback:
.Lfunc_begin17:
	.loc	5 1478 0                        @ ../Drivers/STM32H7xx_HAL_Driver/Src/stm32h7xx_hal_pwr_ex.c:1478:0
	.fnstart
	.cfi_startproc
@ %bb.0:
	.loc	5 1482 1 prologue_end           @ ../Drivers/STM32H7xx_HAL_Driver/Src/stm32h7xx_hal_pwr_ex.c:1482:1
	bx	lr
.Ltmp148:
.Lfunc_end17:
	.size	HAL_PWREx_WKUP1_Callback, .Lfunc_end17-HAL_PWREx_WKUP1_Callback
	.cfi_endproc
	.cantunwind
	.fnend
                                        @ -- End function
	.hidden	HAL_PWREx_WKUP2_Callback        @ -- Begin function HAL_PWREx_WKUP2_Callback
	.weak	HAL_PWREx_WKUP2_Callback
	.p2align	3
	.type	HAL_PWREx_WKUP2_Callback,%function
	.code	16                              @ @HAL_PWREx_WKUP2_Callback
	.thumb_func
HAL_PWREx_WKUP2_Callback:
.Lfunc_begin18:
	.loc	5 1489 0                        @ ../Drivers/STM32H7xx_HAL_Driver/Src/stm32h7xx_hal_pwr_ex.c:1489:0
	.fnstart
	.cfi_startproc
@ %bb.0:
	.loc	5 1493 1 prologue_end           @ ../Drivers/STM32H7xx_HAL_Driver/Src/stm32h7xx_hal_pwr_ex.c:1493:1
	bx	lr
.Ltmp149:
.Lfunc_end18:
	.size	HAL_PWREx_WKUP2_Callback, .Lfunc_end18-HAL_PWREx_WKUP2_Callback
	.cfi_endproc
	.cantunwind
	.fnend
                                        @ -- End function
	.hidden	HAL_PWREx_WKUP3_Callback        @ -- Begin function HAL_PWREx_WKUP3_Callback
	.weak	HAL_PWREx_WKUP3_Callback
	.p2align	3
	.type	HAL_PWREx_WKUP3_Callback,%function
	.code	16                              @ @HAL_PWREx_WKUP3_Callback
	.thumb_func
HAL_PWREx_WKUP3_Callback:
.Lfunc_begin19:
	.loc	5 1501 0                        @ ../Drivers/STM32H7xx_HAL_Driver/Src/stm32h7xx_hal_pwr_ex.c:1501:0
	.fnstart
	.cfi_startproc
@ %bb.0:
	.loc	5 1505 1 prologue_end           @ ../Drivers/STM32H7xx_HAL_Driver/Src/stm32h7xx_hal_pwr_ex.c:1505:1
	bx	lr
.Ltmp150:
.Lfunc_end19:
	.size	HAL_PWREx_WKUP3_Callback, .Lfunc_end19-HAL_PWREx_WKUP3_Callback
	.cfi_endproc
	.cantunwind
	.fnend
                                        @ -- End function
	.hidden	HAL_PWREx_WKUP4_Callback        @ -- Begin function HAL_PWREx_WKUP4_Callback
	.weak	HAL_PWREx_WKUP4_Callback
	.p2align	3
	.type	HAL_PWREx_WKUP4_Callback,%function
	.code	16                              @ @HAL_PWREx_WKUP4_Callback
	.thumb_func
HAL_PWREx_WKUP4_Callback:
.Lfunc_begin20:
	.loc	5 1513 0                        @ ../Drivers/STM32H7xx_HAL_Driver/Src/stm32h7xx_hal_pwr_ex.c:1513:0
	.fnstart
	.cfi_startproc
@ %bb.0:
	.loc	5 1517 1 prologue_end           @ ../Drivers/STM32H7xx_HAL_Driver/Src/stm32h7xx_hal_pwr_ex.c:1517:1
	bx	lr
.Ltmp151:
.Lfunc_end20:
	.size	HAL_PWREx_WKUP4_Callback, .Lfunc_end20-HAL_PWREx_WKUP4_Callback
	.cfi_endproc
	.cantunwind
	.fnend
                                        @ -- End function
	.hidden	HAL_PWREx_WKUP5_Callback        @ -- Begin function HAL_PWREx_WKUP5_Callback
	.weak	HAL_PWREx_WKUP5_Callback
	.p2align	3
	.type	HAL_PWREx_WKUP5_Callback,%function
	.code	16                              @ @HAL_PWREx_WKUP5_Callback
	.thumb_func
HAL_PWREx_WKUP5_Callback:
.Lfunc_begin21:
	.loc	5 1525 0                        @ ../Drivers/STM32H7xx_HAL_Driver/Src/stm32h7xx_hal_pwr_ex.c:1525:0
	.fnstart
	.cfi_startproc
@ %bb.0:
	.loc	5 1529 1 prologue_end           @ ../Drivers/STM32H7xx_HAL_Driver/Src/stm32h7xx_hal_pwr_ex.c:1529:1
	bx	lr
.Ltmp152:
.Lfunc_end21:
	.size	HAL_PWREx_WKUP5_Callback, .Lfunc_end21-HAL_PWREx_WKUP5_Callback
	.cfi_endproc
	.cantunwind
	.fnend
                                        @ -- End function
	.hidden	HAL_PWREx_WKUP6_Callback        @ -- Begin function HAL_PWREx_WKUP6_Callback
	.weak	HAL_PWREx_WKUP6_Callback
	.p2align	3
	.type	HAL_PWREx_WKUP6_Callback,%function
	.code	16                              @ @HAL_PWREx_WKUP6_Callback
	.thumb_func
HAL_PWREx_WKUP6_Callback:
.Lfunc_begin22:
	.loc	5 1537 0                        @ ../Drivers/STM32H7xx_HAL_Driver/Src/stm32h7xx_hal_pwr_ex.c:1537:0
	.fnstart
	.cfi_startproc
@ %bb.0:
	.loc	5 1541 1 prologue_end           @ ../Drivers/STM32H7xx_HAL_Driver/Src/stm32h7xx_hal_pwr_ex.c:1541:1
	bx	lr
.Ltmp153:
.Lfunc_end22:
	.size	HAL_PWREx_WKUP6_Callback, .Lfunc_end22-HAL_PWREx_WKUP6_Callback
	.cfi_endproc
	.cantunwind
	.fnend
                                        @ -- End function
	.hidden	HAL_PWREx_EnableBkUpReg         @ -- Begin function HAL_PWREx_EnableBkUpReg
	.globl	HAL_PWREx_EnableBkUpReg
	.p2align	3
	.type	HAL_PWREx_EnableBkUpReg,%function
	.code	16                              @ @HAL_PWREx_EnableBkUpReg
	.thumb_func
HAL_PWREx_EnableBkUpReg:
.Lfunc_begin23:
	.loc	5 1626 0                        @ ../Drivers/STM32H7xx_HAL_Driver/Src/stm32h7xx_hal_pwr_ex.c:1626:0
	.fnstart
	.cfi_startproc
@ %bb.0:
	.save	{r4, r5, r7, lr}
	push	{r4, r5, r7, lr}
	.cfi_def_cfa_offset 16
	.cfi_offset lr, -4
	.cfi_offset r7, -8
	.cfi_offset r5, -12
	.cfi_offset r4, -16
	movw	r5, #18440
	movt	r5, #22530
.Ltmp154:
	.loc	5 1630 3 prologue_end           @ ../Drivers/STM32H7xx_HAL_Driver/Src/stm32h7xx_hal_pwr_ex.c:1630:3
	ldr	r0, [r5]
	orr	r0, r0, #1
	str	r0, [r5]
	.loc	5 1633 15                       @ ../Drivers/STM32H7xx_HAL_Driver/Src/stm32h7xx_hal_pwr_ex.c:1633:15
	bl	HAL_GetTick
.Ltmp155:
	mov	r4, r0
.Ltmp156:
	@DEBUG_VALUE: HAL_PWREx_EnableBkUpReg:tickstart <- $r4
	.p2align	2
.LBB23_1:                               @ =>This Inner Loop Header: Depth=1
	@DEBUG_VALUE: HAL_PWREx_EnableBkUpReg:tickstart <- $r4
	.loc	5 1636 10                       @ ../Drivers/STM32H7xx_HAL_Driver/Src/stm32h7xx_hal_pwr_ex.c:1636:10
	ldr	r0, [r5]
	.loc	5 1636 3 is_stmt 0              @ ../Drivers/STM32H7xx_HAL_Driver/Src/stm32h7xx_hal_pwr_ex.c:1636:3
	lsls	r0, r0, #15
	bmi	.LBB23_4
.Ltmp157:
@ %bb.2:                                @   in Loop: Header=BB23_1 Depth=1
	@DEBUG_VALUE: HAL_PWREx_EnableBkUpReg:tickstart <- $r4
	.loc	5 1638 10 is_stmt 1             @ ../Drivers/STM32H7xx_HAL_Driver/Src/stm32h7xx_hal_pwr_ex.c:1638:10
	bl	HAL_GetTick
.Ltmp158:
	.loc	5 1638 24 is_stmt 0             @ ../Drivers/STM32H7xx_HAL_Driver/Src/stm32h7xx_hal_pwr_ex.c:1638:24
	subs	r0, r0, r4
.Ltmp159:
	.loc	5 1638 9                        @ ../Drivers/STM32H7xx_HAL_Driver/Src/stm32h7xx_hal_pwr_ex.c:1638:9
	cmp.w	r0, #1000
	bls	.LBB23_1
.Ltmp160:
@ %bb.3:
	@DEBUG_VALUE: HAL_PWREx_EnableBkUpReg:tickstart <- $r4
	.loc	5 0 9                           @ ../Drivers/STM32H7xx_HAL_Driver/Src/stm32h7xx_hal_pwr_ex.c:0:9
	movs	r0, #1
	.loc	5 1645 1 is_stmt 1              @ ../Drivers/STM32H7xx_HAL_Driver/Src/stm32h7xx_hal_pwr_ex.c:1645:1
	pop	{r4, r5, r7, pc}
.Ltmp161:
	.p2align	2
.LBB23_4:
	@DEBUG_VALUE: HAL_PWREx_EnableBkUpReg:tickstart <- $r4
	.loc	5 0 1 is_stmt 0                 @ ../Drivers/STM32H7xx_HAL_Driver/Src/stm32h7xx_hal_pwr_ex.c:0:1
	movs	r0, #0
	.loc	5 1645 1                        @ ../Drivers/STM32H7xx_HAL_Driver/Src/stm32h7xx_hal_pwr_ex.c:1645:1
	pop	{r4, r5, r7, pc}
.Ltmp162:
.Lfunc_end23:
	.size	HAL_PWREx_EnableBkUpReg, .Lfunc_end23-HAL_PWREx_EnableBkUpReg
	.cfi_endproc
	.cantunwind
	.fnend
                                        @ -- End function
	.hidden	HAL_PWREx_DisableBkUpReg        @ -- Begin function HAL_PWREx_DisableBkUpReg
	.globl	HAL_PWREx_DisableBkUpReg
	.p2align	3
	.type	HAL_PWREx_DisableBkUpReg,%function
	.code	16                              @ @HAL_PWREx_DisableBkUpReg
	.thumb_func
HAL_PWREx_DisableBkUpReg:
.Lfunc_begin24:
	.loc	5 1652 0 is_stmt 1              @ ../Drivers/STM32H7xx_HAL_Driver/Src/stm32h7xx_hal_pwr_ex.c:1652:0
	.fnstart
	.cfi_startproc
@ %bb.0:
	.save	{r4, r5, r7, lr}
	push	{r4, r5, r7, lr}
	.cfi_def_cfa_offset 16
	.cfi_offset lr, -4
	.cfi_offset r7, -8
	.cfi_offset r5, -12
	.cfi_offset r4, -16
	movw	r5, #18440
	movt	r5, #22530
.Ltmp163:
	.loc	5 1656 3 prologue_end           @ ../Drivers/STM32H7xx_HAL_Driver/Src/stm32h7xx_hal_pwr_ex.c:1656:3
	ldr	r0, [r5]
	bic	r0, r0, #1
	str	r0, [r5]
	.loc	5 1659 15                       @ ../Drivers/STM32H7xx_HAL_Driver/Src/stm32h7xx_hal_pwr_ex.c:1659:15
	bl	HAL_GetTick
.Ltmp164:
	mov	r4, r0
.Ltmp165:
	@DEBUG_VALUE: HAL_PWREx_DisableBkUpReg:tickstart <- $r4
	.p2align	2
.LBB24_1:                               @ =>This Inner Loop Header: Depth=1
	@DEBUG_VALUE: HAL_PWREx_DisableBkUpReg:tickstart <- $r4
	.loc	5 1662 10                       @ ../Drivers/STM32H7xx_HAL_Driver/Src/stm32h7xx_hal_pwr_ex.c:1662:10
	ldr	r0, [r5]
	.loc	5 1662 3 is_stmt 0              @ ../Drivers/STM32H7xx_HAL_Driver/Src/stm32h7xx_hal_pwr_ex.c:1662:3
	lsls	r0, r0, #15
	bpl	.LBB24_4
.Ltmp166:
@ %bb.2:                                @   in Loop: Header=BB24_1 Depth=1
	@DEBUG_VALUE: HAL_PWREx_DisableBkUpReg:tickstart <- $r4
	.loc	5 1664 10 is_stmt 1             @ ../Drivers/STM32H7xx_HAL_Driver/Src/stm32h7xx_hal_pwr_ex.c:1664:10
	bl	HAL_GetTick
.Ltmp167:
	.loc	5 1664 24 is_stmt 0             @ ../Drivers/STM32H7xx_HAL_Driver/Src/stm32h7xx_hal_pwr_ex.c:1664:24
	subs	r0, r0, r4
.Ltmp168:
	.loc	5 1664 9                        @ ../Drivers/STM32H7xx_HAL_Driver/Src/stm32h7xx_hal_pwr_ex.c:1664:9
	cmp.w	r0, #1000
	bls	.LBB24_1
.Ltmp169:
@ %bb.3:
	@DEBUG_VALUE: HAL_PWREx_DisableBkUpReg:tickstart <- $r4
	.loc	5 0 9                           @ ../Drivers/STM32H7xx_HAL_Driver/Src/stm32h7xx_hal_pwr_ex.c:0:9
	movs	r0, #1
	.loc	5 1671 1 is_stmt 1              @ ../Drivers/STM32H7xx_HAL_Driver/Src/stm32h7xx_hal_pwr_ex.c:1671:1
	pop	{r4, r5, r7, pc}
.Ltmp170:
	.p2align	2
.LBB24_4:
	@DEBUG_VALUE: HAL_PWREx_DisableBkUpReg:tickstart <- $r4
	.loc	5 0 1 is_stmt 0                 @ ../Drivers/STM32H7xx_HAL_Driver/Src/stm32h7xx_hal_pwr_ex.c:0:1
	movs	r0, #0
	.loc	5 1671 1                        @ ../Drivers/STM32H7xx_HAL_Driver/Src/stm32h7xx_hal_pwr_ex.c:1671:1
	pop	{r4, r5, r7, pc}
.Ltmp171:
.Lfunc_end24:
	.size	HAL_PWREx_DisableBkUpReg, .Lfunc_end24-HAL_PWREx_DisableBkUpReg
	.cfi_endproc
	.cantunwind
	.fnend
                                        @ -- End function
	.hidden	HAL_PWREx_EnableUSBReg          @ -- Begin function HAL_PWREx_EnableUSBReg
	.globl	HAL_PWREx_EnableUSBReg
	.p2align	3
	.type	HAL_PWREx_EnableUSBReg,%function
	.code	16                              @ @HAL_PWREx_EnableUSBReg
	.thumb_func
HAL_PWREx_EnableUSBReg:
.Lfunc_begin25:
	.loc	5 1678 0 is_stmt 1              @ ../Drivers/STM32H7xx_HAL_Driver/Src/stm32h7xx_hal_pwr_ex.c:1678:0
	.fnstart
	.cfi_startproc
@ %bb.0:
	.save	{r4, r5, r7, lr}
	push	{r4, r5, r7, lr}
	.cfi_def_cfa_offset 16
	.cfi_offset lr, -4
	.cfi_offset r7, -8
	.cfi_offset r5, -12
	.cfi_offset r4, -16
	movw	r5, #18444
	movt	r5, #22530
.Ltmp172:
	.loc	5 1682 3 prologue_end           @ ../Drivers/STM32H7xx_HAL_Driver/Src/stm32h7xx_hal_pwr_ex.c:1682:3
	ldr	r0, [r5]
	orr	r0, r0, #33554432
	str	r0, [r5]
	.loc	5 1685 15                       @ ../Drivers/STM32H7xx_HAL_Driver/Src/stm32h7xx_hal_pwr_ex.c:1685:15
	bl	HAL_GetTick
.Ltmp173:
	mov	r4, r0
.Ltmp174:
	@DEBUG_VALUE: HAL_PWREx_EnableUSBReg:tickstart <- $r4
	.p2align	2
.LBB25_1:                               @ =>This Inner Loop Header: Depth=1
	@DEBUG_VALUE: HAL_PWREx_EnableUSBReg:tickstart <- $r4
	.loc	5 1688 10                       @ ../Drivers/STM32H7xx_HAL_Driver/Src/stm32h7xx_hal_pwr_ex.c:1688:10
	ldr	r0, [r5]
	.loc	5 1688 3 is_stmt 0              @ ../Drivers/STM32H7xx_HAL_Driver/Src/stm32h7xx_hal_pwr_ex.c:1688:3
	lsls	r0, r0, #5
	bmi	.LBB25_4
.Ltmp175:
@ %bb.2:                                @   in Loop: Header=BB25_1 Depth=1
	@DEBUG_VALUE: HAL_PWREx_EnableUSBReg:tickstart <- $r4
	.loc	5 1690 10 is_stmt 1             @ ../Drivers/STM32H7xx_HAL_Driver/Src/stm32h7xx_hal_pwr_ex.c:1690:10
	bl	HAL_GetTick
.Ltmp176:
	.loc	5 1690 24 is_stmt 0             @ ../Drivers/STM32H7xx_HAL_Driver/Src/stm32h7xx_hal_pwr_ex.c:1690:24
	subs	r0, r0, r4
.Ltmp177:
	.loc	5 1690 9                        @ ../Drivers/STM32H7xx_HAL_Driver/Src/stm32h7xx_hal_pwr_ex.c:1690:9
	cmp.w	r0, #1000
	bls	.LBB25_1
.Ltmp178:
@ %bb.3:
	@DEBUG_VALUE: HAL_PWREx_EnableUSBReg:tickstart <- $r4
	.loc	5 0 9                           @ ../Drivers/STM32H7xx_HAL_Driver/Src/stm32h7xx_hal_pwr_ex.c:0:9
	movs	r0, #1
	.loc	5 1697 1 is_stmt 1              @ ../Drivers/STM32H7xx_HAL_Driver/Src/stm32h7xx_hal_pwr_ex.c:1697:1
	pop	{r4, r5, r7, pc}
.Ltmp179:
	.p2align	2
.LBB25_4:
	@DEBUG_VALUE: HAL_PWREx_EnableUSBReg:tickstart <- $r4
	.loc	5 0 1 is_stmt 0                 @ ../Drivers/STM32H7xx_HAL_Driver/Src/stm32h7xx_hal_pwr_ex.c:0:1
	movs	r0, #0
	.loc	5 1697 1                        @ ../Drivers/STM32H7xx_HAL_Driver/Src/stm32h7xx_hal_pwr_ex.c:1697:1
	pop	{r4, r5, r7, pc}
.Ltmp180:
.Lfunc_end25:
	.size	HAL_PWREx_EnableUSBReg, .Lfunc_end25-HAL_PWREx_EnableUSBReg
	.cfi_endproc
	.cantunwind
	.fnend
                                        @ -- End function
	.hidden	HAL_PWREx_DisableUSBReg         @ -- Begin function HAL_PWREx_DisableUSBReg
	.globl	HAL_PWREx_DisableUSBReg
	.p2align	3
	.type	HAL_PWREx_DisableUSBReg,%function
	.code	16                              @ @HAL_PWREx_DisableUSBReg
	.thumb_func
HAL_PWREx_DisableUSBReg:
.Lfunc_begin26:
	.loc	5 1704 0 is_stmt 1              @ ../Drivers/STM32H7xx_HAL_Driver/Src/stm32h7xx_hal_pwr_ex.c:1704:0
	.fnstart
	.cfi_startproc
@ %bb.0:
	.save	{r4, r5, r7, lr}
	push	{r4, r5, r7, lr}
	.cfi_def_cfa_offset 16
	.cfi_offset lr, -4
	.cfi_offset r7, -8
	.cfi_offset r5, -12
	.cfi_offset r4, -16
	movw	r5, #18444
	movt	r5, #22530
.Ltmp181:
	.loc	5 1708 3 prologue_end           @ ../Drivers/STM32H7xx_HAL_Driver/Src/stm32h7xx_hal_pwr_ex.c:1708:3
	ldr	r0, [r5]
	bic	r0, r0, #33554432
	str	r0, [r5]
	.loc	5 1711 15                       @ ../Drivers/STM32H7xx_HAL_Driver/Src/stm32h7xx_hal_pwr_ex.c:1711:15
	bl	HAL_GetTick
.Ltmp182:
	mov	r4, r0
.Ltmp183:
	@DEBUG_VALUE: HAL_PWREx_DisableUSBReg:tickstart <- $r4
	.p2align	2
.LBB26_1:                               @ =>This Inner Loop Header: Depth=1
	@DEBUG_VALUE: HAL_PWREx_DisableUSBReg:tickstart <- $r4
	.loc	5 1714 9                        @ ../Drivers/STM32H7xx_HAL_Driver/Src/stm32h7xx_hal_pwr_ex.c:1714:9
	ldr	r0, [r5]
	.loc	5 1714 3 is_stmt 0              @ ../Drivers/STM32H7xx_HAL_Driver/Src/stm32h7xx_hal_pwr_ex.c:1714:3
	lsls	r0, r0, #5
	bpl	.LBB26_4
.Ltmp184:
@ %bb.2:                                @   in Loop: Header=BB26_1 Depth=1
	@DEBUG_VALUE: HAL_PWREx_DisableUSBReg:tickstart <- $r4
	.loc	5 1716 10 is_stmt 1             @ ../Drivers/STM32H7xx_HAL_Driver/Src/stm32h7xx_hal_pwr_ex.c:1716:10
	bl	HAL_GetTick
.Ltmp185:
	.loc	5 1716 24 is_stmt 0             @ ../Drivers/STM32H7xx_HAL_Driver/Src/stm32h7xx_hal_pwr_ex.c:1716:24
	subs	r0, r0, r4
.Ltmp186:
	.loc	5 1716 9                        @ ../Drivers/STM32H7xx_HAL_Driver/Src/stm32h7xx_hal_pwr_ex.c:1716:9
	cmp.w	r0, #1000
	bls	.LBB26_1
.Ltmp187:
@ %bb.3:
	@DEBUG_VALUE: HAL_PWREx_DisableUSBReg:tickstart <- $r4
	.loc	5 0 9                           @ ../Drivers/STM32H7xx_HAL_Driver/Src/stm32h7xx_hal_pwr_ex.c:0:9
	movs	r0, #1
	.loc	5 1723 1 is_stmt 1              @ ../Drivers/STM32H7xx_HAL_Driver/Src/stm32h7xx_hal_pwr_ex.c:1723:1
	pop	{r4, r5, r7, pc}
.Ltmp188:
	.p2align	2
.LBB26_4:
	@DEBUG_VALUE: HAL_PWREx_DisableUSBReg:tickstart <- $r4
	.loc	5 0 1 is_stmt 0                 @ ../Drivers/STM32H7xx_HAL_Driver/Src/stm32h7xx_hal_pwr_ex.c:0:1
	movs	r0, #0
	.loc	5 1723 1                        @ ../Drivers/STM32H7xx_HAL_Driver/Src/stm32h7xx_hal_pwr_ex.c:1723:1
	pop	{r4, r5, r7, pc}
.Ltmp189:
.Lfunc_end26:
	.size	HAL_PWREx_DisableUSBReg, .Lfunc_end26-HAL_PWREx_DisableUSBReg
	.cfi_endproc
	.cantunwind
	.fnend
                                        @ -- End function
	.hidden	HAL_PWREx_EnableUSBVoltageDetector @ -- Begin function HAL_PWREx_EnableUSBVoltageDetector
	.globl	HAL_PWREx_EnableUSBVoltageDetector
	.p2align	3
	.type	HAL_PWREx_EnableUSBVoltageDetector,%function
	.code	16                              @ @HAL_PWREx_EnableUSBVoltageDetector
	.thumb_func
HAL_PWREx_EnableUSBVoltageDetector:
.Lfunc_begin27:
	.loc	5 1730 0 is_stmt 1              @ ../Drivers/STM32H7xx_HAL_Driver/Src/stm32h7xx_hal_pwr_ex.c:1730:0
	.fnstart
	.cfi_startproc
@ %bb.0:
	movw	r0, #18444
	movt	r0, #22530
.Ltmp190:
	.loc	5 1732 3 prologue_end           @ ../Drivers/STM32H7xx_HAL_Driver/Src/stm32h7xx_hal_pwr_ex.c:1732:3
	ldr	r1, [r0]
	orr	r1, r1, #16777216
	str	r1, [r0]
	.loc	5 1733 1                        @ ../Drivers/STM32H7xx_HAL_Driver/Src/stm32h7xx_hal_pwr_ex.c:1733:1
	bx	lr
.Ltmp191:
.Lfunc_end27:
	.size	HAL_PWREx_EnableUSBVoltageDetector, .Lfunc_end27-HAL_PWREx_EnableUSBVoltageDetector
	.cfi_endproc
	.cantunwind
	.fnend
                                        @ -- End function
	.hidden	HAL_PWREx_DisableUSBVoltageDetector @ -- Begin function HAL_PWREx_DisableUSBVoltageDetector
	.globl	HAL_PWREx_DisableUSBVoltageDetector
	.p2align	3
	.type	HAL_PWREx_DisableUSBVoltageDetector,%function
	.code	16                              @ @HAL_PWREx_DisableUSBVoltageDetector
	.thumb_func
HAL_PWREx_DisableUSBVoltageDetector:
.Lfunc_begin28:
	.loc	5 1740 0                        @ ../Drivers/STM32H7xx_HAL_Driver/Src/stm32h7xx_hal_pwr_ex.c:1740:0
	.fnstart
	.cfi_startproc
@ %bb.0:
	movw	r0, #18444
	movt	r0, #22530
.Ltmp192:
	.loc	5 1742 3 prologue_end           @ ../Drivers/STM32H7xx_HAL_Driver/Src/stm32h7xx_hal_pwr_ex.c:1742:3
	ldr	r1, [r0]
	bic	r1, r1, #16777216
	str	r1, [r0]
	.loc	5 1743 1                        @ ../Drivers/STM32H7xx_HAL_Driver/Src/stm32h7xx_hal_pwr_ex.c:1743:1
	bx	lr
.Ltmp193:
.Lfunc_end28:
	.size	HAL_PWREx_DisableUSBVoltageDetector, .Lfunc_end28-HAL_PWREx_DisableUSBVoltageDetector
	.cfi_endproc
	.cantunwind
	.fnend
                                        @ -- End function
	.hidden	HAL_PWREx_EnableBatteryCharging @ -- Begin function HAL_PWREx_EnableBatteryCharging
	.globl	HAL_PWREx_EnableBatteryCharging
	.p2align	3
	.type	HAL_PWREx_EnableBatteryCharging,%function
	.code	16                              @ @HAL_PWREx_EnableBatteryCharging
	.thumb_func
HAL_PWREx_EnableBatteryCharging:
.Lfunc_begin29:
	.loc	5 1756 0                        @ ../Drivers/STM32H7xx_HAL_Driver/Src/stm32h7xx_hal_pwr_ex.c:1756:0
	.fnstart
	.cfi_startproc
@ %bb.0:
	@DEBUG_VALUE: HAL_PWREx_EnableBatteryCharging:ResistorValue <- $r0
	movw	r1, #18444
	movt	r1, #22530
.Ltmp194:
	.loc	5 1761 3 prologue_end           @ ../Drivers/STM32H7xx_HAL_Driver/Src/stm32h7xx_hal_pwr_ex.c:1761:3
	ldr	r2, [r1]
	bic	r2, r2, #512
	orrs	r0, r2
.Ltmp195:
	@DEBUG_VALUE: HAL_PWREx_EnableBatteryCharging:ResistorValue <- [DW_OP_LLVM_entry_value 1] $r0
	str	r0, [r1]
	.loc	5 1764 3                        @ ../Drivers/STM32H7xx_HAL_Driver/Src/stm32h7xx_hal_pwr_ex.c:1764:3
	ldr	r0, [r1]
	orr	r0, r0, #256
	str	r0, [r1]
	.loc	5 1765 1                        @ ../Drivers/STM32H7xx_HAL_Driver/Src/stm32h7xx_hal_pwr_ex.c:1765:1
	bx	lr
.Ltmp196:
.Lfunc_end29:
	.size	HAL_PWREx_EnableBatteryCharging, .Lfunc_end29-HAL_PWREx_EnableBatteryCharging
	.cfi_endproc
	.cantunwind
	.fnend
                                        @ -- End function
	.hidden	HAL_PWREx_DisableBatteryCharging @ -- Begin function HAL_PWREx_DisableBatteryCharging
	.globl	HAL_PWREx_DisableBatteryCharging
	.p2align	3
	.type	HAL_PWREx_DisableBatteryCharging,%function
	.code	16                              @ @HAL_PWREx_DisableBatteryCharging
	.thumb_func
HAL_PWREx_DisableBatteryCharging:
.Lfunc_begin30:
	.loc	5 1772 0                        @ ../Drivers/STM32H7xx_HAL_Driver/Src/stm32h7xx_hal_pwr_ex.c:1772:0
	.fnstart
	.cfi_startproc
@ %bb.0:
	movw	r0, #18444
	movt	r0, #22530
.Ltmp197:
	.loc	5 1774 3 prologue_end           @ ../Drivers/STM32H7xx_HAL_Driver/Src/stm32h7xx_hal_pwr_ex.c:1774:3
	ldr	r1, [r0]
	bic	r1, r1, #256
	str	r1, [r0]
	.loc	5 1775 1                        @ ../Drivers/STM32H7xx_HAL_Driver/Src/stm32h7xx_hal_pwr_ex.c:1775:1
	bx	lr
.Ltmp198:
.Lfunc_end30:
	.size	HAL_PWREx_DisableBatteryCharging, .Lfunc_end30-HAL_PWREx_DisableBatteryCharging
	.cfi_endproc
	.cantunwind
	.fnend
                                        @ -- End function
	.hidden	HAL_PWREx_EnableMonitoring      @ -- Begin function HAL_PWREx_EnableMonitoring
	.globl	HAL_PWREx_EnableMonitoring
	.p2align	3
	.type	HAL_PWREx_EnableMonitoring,%function
	.code	16                              @ @HAL_PWREx_EnableMonitoring
	.thumb_func
HAL_PWREx_EnableMonitoring:
.Lfunc_begin31:
	.loc	5 1862 0                        @ ../Drivers/STM32H7xx_HAL_Driver/Src/stm32h7xx_hal_pwr_ex.c:1862:0
	.fnstart
	.cfi_startproc
@ %bb.0:
	movw	r0, #18440
	movt	r0, #22530
.Ltmp199:
	.loc	5 1864 3 prologue_end           @ ../Drivers/STM32H7xx_HAL_Driver/Src/stm32h7xx_hal_pwr_ex.c:1864:3
	ldr	r1, [r0]
	orr	r1, r1, #16
	str	r1, [r0]
	.loc	5 1865 1                        @ ../Drivers/STM32H7xx_HAL_Driver/Src/stm32h7xx_hal_pwr_ex.c:1865:1
	bx	lr
.Ltmp200:
.Lfunc_end31:
	.size	HAL_PWREx_EnableMonitoring, .Lfunc_end31-HAL_PWREx_EnableMonitoring
	.cfi_endproc
	.cantunwind
	.fnend
                                        @ -- End function
	.hidden	HAL_PWREx_DisableMonitoring     @ -- Begin function HAL_PWREx_DisableMonitoring
	.globl	HAL_PWREx_DisableMonitoring
	.p2align	3
	.type	HAL_PWREx_DisableMonitoring,%function
	.code	16                              @ @HAL_PWREx_DisableMonitoring
	.thumb_func
HAL_PWREx_DisableMonitoring:
.Lfunc_begin32:
	.loc	5 1872 0                        @ ../Drivers/STM32H7xx_HAL_Driver/Src/stm32h7xx_hal_pwr_ex.c:1872:0
	.fnstart
	.cfi_startproc
@ %bb.0:
	movw	r0, #18440
	movt	r0, #22530
.Ltmp201:
	.loc	5 1874 3 prologue_end           @ ../Drivers/STM32H7xx_HAL_Driver/Src/stm32h7xx_hal_pwr_ex.c:1874:3
	ldr	r1, [r0]
	bic	r1, r1, #16
	str	r1, [r0]
	.loc	5 1875 1                        @ ../Drivers/STM32H7xx_HAL_Driver/Src/stm32h7xx_hal_pwr_ex.c:1875:1
	bx	lr
.Ltmp202:
.Lfunc_end32:
	.size	HAL_PWREx_DisableMonitoring, .Lfunc_end32-HAL_PWREx_DisableMonitoring
	.cfi_endproc
	.cantunwind
	.fnend
                                        @ -- End function
	.hidden	HAL_PWREx_GetTemperatureLevel   @ -- Begin function HAL_PWREx_GetTemperatureLevel
	.globl	HAL_PWREx_GetTemperatureLevel
	.p2align	3
	.type	HAL_PWREx_GetTemperatureLevel,%function
	.code	16                              @ @HAL_PWREx_GetTemperatureLevel
	.thumb_func
HAL_PWREx_GetTemperatureLevel:
.Lfunc_begin33:
	.loc	5 1883 0                        @ ../Drivers/STM32H7xx_HAL_Driver/Src/stm32h7xx_hal_pwr_ex.c:1883:0
	.fnstart
	.cfi_startproc
@ %bb.0:
	movw	r0, #18440
	movt	r0, #22530
.Ltmp203:
	.loc	5 1887 14 prologue_end          @ ../Drivers/STM32H7xx_HAL_Driver/Src/stm32h7xx_hal_pwr_ex.c:1887:14
	ldr	r0, [r0]
	and	r0, r0, #12582912
.Ltmp204:
	@DEBUG_VALUE: HAL_PWREx_GetTemperatureLevel:regValue <- $r0
	sub.w	r1, r0, #8388608
	.loc	5 1890 7                        @ ../Drivers/STM32H7xx_HAL_Driver/Src/stm32h7xx_hal_pwr_ex.c:1890:7
	cmp.w	r0, #4194304
	.loc	5 1887 14                       @ ../Drivers/STM32H7xx_HAL_Driver/Src/stm32h7xx_hal_pwr_ex.c:1887:14
	clz	r1, r1
	lsr.w	r1, r1, #5
	.loc	5 1890 7                        @ ../Drivers/STM32H7xx_HAL_Driver/Src/stm32h7xx_hal_pwr_ex.c:1890:7
	it	ne
	lslne	r0, r1, #23
.Ltmp205:
	@DEBUG_VALUE: HAL_PWREx_GetTemperatureLevel:tempLevel <- $r0
	.loc	5 1905 3                        @ ../Drivers/STM32H7xx_HAL_Driver/Src/stm32h7xx_hal_pwr_ex.c:1905:3
	bx	lr
.Ltmp206:
.Lfunc_end33:
	.size	HAL_PWREx_GetTemperatureLevel, .Lfunc_end33-HAL_PWREx_GetTemperatureLevel
	.cfi_endproc
	.cantunwind
	.fnend
                                        @ -- End function
	.hidden	HAL_PWREx_GetVBATLevel          @ -- Begin function HAL_PWREx_GetVBATLevel
	.globl	HAL_PWREx_GetVBATLevel
	.p2align	3
	.type	HAL_PWREx_GetVBATLevel,%function
	.code	16                              @ @HAL_PWREx_GetVBATLevel
	.thumb_func
HAL_PWREx_GetVBATLevel:
.Lfunc_begin34:
	.loc	5 1914 0                        @ ../Drivers/STM32H7xx_HAL_Driver/Src/stm32h7xx_hal_pwr_ex.c:1914:0
	.fnstart
	.cfi_startproc
@ %bb.0:
	movw	r0, #18440
	movt	r0, #22530
.Ltmp207:
	.loc	5 1918 14 prologue_end          @ ../Drivers/STM32H7xx_HAL_Driver/Src/stm32h7xx_hal_pwr_ex.c:1918:14
	ldr	r0, [r0]
	and	r0, r0, #3145728
.Ltmp208:
	@DEBUG_VALUE: HAL_PWREx_GetVBATLevel:regValue <- $r0
	sub.w	r1, r0, #2097152
	.loc	5 1921 7                        @ ../Drivers/STM32H7xx_HAL_Driver/Src/stm32h7xx_hal_pwr_ex.c:1921:7
	cmp.w	r0, #1048576
	.loc	5 1918 14                       @ ../Drivers/STM32H7xx_HAL_Driver/Src/stm32h7xx_hal_pwr_ex.c:1918:14
	clz	r1, r1
	lsr.w	r1, r1, #5
	.loc	5 1921 7                        @ ../Drivers/STM32H7xx_HAL_Driver/Src/stm32h7xx_hal_pwr_ex.c:1921:7
	it	ne
	lslne	r0, r1, #21
.Ltmp209:
	@DEBUG_VALUE: HAL_PWREx_GetVBATLevel:VBATLevel <- $r0
	.loc	5 1936 3                        @ ../Drivers/STM32H7xx_HAL_Driver/Src/stm32h7xx_hal_pwr_ex.c:1936:3
	bx	lr
.Ltmp210:
.Lfunc_end34:
	.size	HAL_PWREx_GetVBATLevel, .Lfunc_end34-HAL_PWREx_GetVBATLevel
	.cfi_endproc
	.cantunwind
	.fnend
                                        @ -- End function
	.hidden	HAL_PWREx_ConfigAVD             @ -- Begin function HAL_PWREx_ConfigAVD
	.globl	HAL_PWREx_ConfigAVD
	.p2align	3
	.type	HAL_PWREx_ConfigAVD,%function
	.code	16                              @ @HAL_PWREx_ConfigAVD
	.thumb_func
HAL_PWREx_ConfigAVD:
.Lfunc_begin35:
	.loc	5 1977 0                        @ ../Drivers/STM32H7xx_HAL_Driver/Src/stm32h7xx_hal_pwr_ex.c:1977:0
	.fnstart
	.cfi_startproc
@ %bb.0:
	@DEBUG_VALUE: HAL_PWREx_ConfigAVD:sConfigAVD <- $r0
	movw	r12, #18432
	movs	r1, #4
	movt	r12, #22530
	movt	r1, #22528
.Ltmp211:
	.loc	5 1983 3 prologue_end           @ ../Drivers/STM32H7xx_HAL_Driver/Src/stm32h7xx_hal_pwr_ex.c:1983:3
	ldr.w	r3, [r12]
	bic	r3, r3, #393216
	ldrd	r2, r0, [r0]
.Ltmp212:
	@DEBUG_VALUE: HAL_PWREx_ConfigAVD:sConfigAVD <- [DW_OP_LLVM_entry_value 1] $r0
	orrs	r2, r3
	str.w	r2, [r12]
	.loc	5 1987 3                        @ ../Drivers/STM32H7xx_HAL_Driver/Src/stm32h7xx_hal_pwr_ex.c:1987:3
	ldr.w	r2, [r1, #128]
	mov.w	r3, #1476395008
	bic	r2, r2, #65536
	str.w	r2, [r1, #128]
	.loc	5 1988 3                        @ ../Drivers/STM32H7xx_HAL_Driver/Src/stm32h7xx_hal_pwr_ex.c:1988:3
	ldr	r2, [r1, #124]
	bic	r2, r2, #65536
	str	r2, [r1, #124]
	.loc	5 1991 3                        @ ../Drivers/STM32H7xx_HAL_Driver/Src/stm32h7xx_hal_pwr_ex.c:1991:3
	ldr	r2, [r3]
	bic	r2, r2, #65536
	str	r2, [r3]
	.loc	5 1992 3                        @ ../Drivers/STM32H7xx_HAL_Driver/Src/stm32h7xx_hal_pwr_ex.c:1992:3
	ldr	r2, [r1]
	.loc	5 1996 7                        @ ../Drivers/STM32H7xx_HAL_Driver/Src/stm32h7xx_hal_pwr_ex.c:1996:7
	lsls	r3, r0, #15
	.loc	5 1992 3                        @ ../Drivers/STM32H7xx_HAL_Driver/Src/stm32h7xx_hal_pwr_ex.c:1992:3
	bic	r2, r2, #65536
	str	r2, [r1]
	.loc	5 1996 7                        @ ../Drivers/STM32H7xx_HAL_Driver/Src/stm32h7xx_hal_pwr_ex.c:1996:7
	bmi	.LBB35_6
.Ltmp213:
@ %bb.1:
	@DEBUG_VALUE: HAL_PWREx_ConfigAVD:sConfigAVD <- [DW_OP_LLVM_entry_value 1] $r0
	.loc	5 2002 7                        @ ../Drivers/STM32H7xx_HAL_Driver/Src/stm32h7xx_hal_pwr_ex.c:2002:7
	lsls	r2, r0, #14
	bmi	.LBB35_7
.Ltmp214:
.LBB35_2:
	@DEBUG_VALUE: HAL_PWREx_ConfigAVD:sConfigAVD <- [DW_OP_LLVM_entry_value 1] $r0
	.loc	5 2009 7                        @ ../Drivers/STM32H7xx_HAL_Driver/Src/stm32h7xx_hal_pwr_ex.c:2009:7
	lsls	r2, r0, #31
	beq	.LBB35_4
.Ltmp215:
.LBB35_3:
	@DEBUG_VALUE: HAL_PWREx_ConfigAVD:sConfigAVD <- [DW_OP_LLVM_entry_value 1] $r0
	.loc	5 0 7 is_stmt 0                 @ ../Drivers/STM32H7xx_HAL_Driver/Src/stm32h7xx_hal_pwr_ex.c:0:7
	mov.w	r2, #1476395008
.Ltmp216:
	.loc	5 2011 5 is_stmt 1              @ ../Drivers/STM32H7xx_HAL_Driver/Src/stm32h7xx_hal_pwr_ex.c:2011:5
	ldr	r3, [r2]
	orr	r3, r3, #65536
	str	r3, [r2]
.Ltmp217:
.LBB35_4:
	@DEBUG_VALUE: HAL_PWREx_ConfigAVD:sConfigAVD <- [DW_OP_LLVM_entry_value 1] $r0
	.loc	5 2015 7                        @ ../Drivers/STM32H7xx_HAL_Driver/Src/stm32h7xx_hal_pwr_ex.c:2015:7
	lsls	r0, r0, #30
	.loc	5 2019 1                        @ ../Drivers/STM32H7xx_HAL_Driver/Src/stm32h7xx_hal_pwr_ex.c:2019:1
	it	pl
	bxpl	lr
.Ltmp218:
.LBB35_5:
	@DEBUG_VALUE: HAL_PWREx_ConfigAVD:sConfigAVD <- [DW_OP_LLVM_entry_value 1] $r0
	.loc	5 2017 5                        @ ../Drivers/STM32H7xx_HAL_Driver/Src/stm32h7xx_hal_pwr_ex.c:2017:5
	ldr	r0, [r1]
	orr	r0, r0, #65536
	str	r0, [r1]
.Ltmp219:
	.loc	5 2019 1                        @ ../Drivers/STM32H7xx_HAL_Driver/Src/stm32h7xx_hal_pwr_ex.c:2019:1
	bx	lr
.Ltmp220:
	.p2align	2
.LBB35_6:
	@DEBUG_VALUE: HAL_PWREx_ConfigAVD:sConfigAVD <- [DW_OP_LLVM_entry_value 1] $r0
	.loc	5 1998 5                        @ ../Drivers/STM32H7xx_HAL_Driver/Src/stm32h7xx_hal_pwr_ex.c:1998:5
	ldr	r2, [r1, #124]
	orr	r2, r2, #65536
	str	r2, [r1, #124]
.Ltmp221:
	.loc	5 2002 7                        @ ../Drivers/STM32H7xx_HAL_Driver/Src/stm32h7xx_hal_pwr_ex.c:2002:7
	lsls	r2, r0, #14
	bpl	.LBB35_2
.Ltmp222:
.LBB35_7:
	@DEBUG_VALUE: HAL_PWREx_ConfigAVD:sConfigAVD <- [DW_OP_LLVM_entry_value 1] $r0
	.loc	5 2004 5                        @ ../Drivers/STM32H7xx_HAL_Driver/Src/stm32h7xx_hal_pwr_ex.c:2004:5
	ldr.w	r2, [r1, #128]
	orr	r2, r2, #65536
	str.w	r2, [r1, #128]
.Ltmp223:
	.loc	5 2009 7                        @ ../Drivers/STM32H7xx_HAL_Driver/Src/stm32h7xx_hal_pwr_ex.c:2009:7
	lsls	r2, r0, #31
	beq	.LBB35_4
	b	.LBB35_3
.Ltmp224:
.Lfunc_end35:
	.size	HAL_PWREx_ConfigAVD, .Lfunc_end35-HAL_PWREx_ConfigAVD
	.cfi_endproc
	.cantunwind
	.fnend
                                        @ -- End function
	.hidden	HAL_PWREx_EnableAVD             @ -- Begin function HAL_PWREx_EnableAVD
	.globl	HAL_PWREx_EnableAVD
	.p2align	3
	.type	HAL_PWREx_EnableAVD,%function
	.code	16                              @ @HAL_PWREx_EnableAVD
	.thumb_func
HAL_PWREx_EnableAVD:
.Lfunc_begin36:
	.loc	5 2026 0                        @ ../Drivers/STM32H7xx_HAL_Driver/Src/stm32h7xx_hal_pwr_ex.c:2026:0
	.fnstart
	.cfi_startproc
@ %bb.0:
	movw	r0, #18432
	movt	r0, #22530
.Ltmp225:
	.loc	5 2028 3 prologue_end           @ ../Drivers/STM32H7xx_HAL_Driver/Src/stm32h7xx_hal_pwr_ex.c:2028:3
	ldr	r1, [r0]
	orr	r1, r1, #65536
	str	r1, [r0]
	.loc	5 2029 1                        @ ../Drivers/STM32H7xx_HAL_Driver/Src/stm32h7xx_hal_pwr_ex.c:2029:1
	bx	lr
.Ltmp226:
.Lfunc_end36:
	.size	HAL_PWREx_EnableAVD, .Lfunc_end36-HAL_PWREx_EnableAVD
	.cfi_endproc
	.cantunwind
	.fnend
                                        @ -- End function
	.hidden	HAL_PWREx_DisableAVD            @ -- Begin function HAL_PWREx_DisableAVD
	.globl	HAL_PWREx_DisableAVD
	.p2align	3
	.type	HAL_PWREx_DisableAVD,%function
	.code	16                              @ @HAL_PWREx_DisableAVD
	.thumb_func
HAL_PWREx_DisableAVD:
.Lfunc_begin37:
	.loc	5 2036 0                        @ ../Drivers/STM32H7xx_HAL_Driver/Src/stm32h7xx_hal_pwr_ex.c:2036:0
	.fnstart
	.cfi_startproc
@ %bb.0:
	movw	r0, #18432
	movt	r0, #22530
.Ltmp227:
	.loc	5 2038 3 prologue_end           @ ../Drivers/STM32H7xx_HAL_Driver/Src/stm32h7xx_hal_pwr_ex.c:2038:3
	ldr	r1, [r0]
	bic	r1, r1, #65536
	str	r1, [r0]
	.loc	5 2039 1                        @ ../Drivers/STM32H7xx_HAL_Driver/Src/stm32h7xx_hal_pwr_ex.c:2039:1
	bx	lr
.Ltmp228:
.Lfunc_end37:
	.size	HAL_PWREx_DisableAVD, .Lfunc_end37-HAL_PWREx_DisableAVD
	.cfi_endproc
	.cantunwind
	.fnend
                                        @ -- End function
	.hidden	HAL_PWREx_PVD_AVD_IRQHandler    @ -- Begin function HAL_PWREx_PVD_AVD_IRQHandler
	.globl	HAL_PWREx_PVD_AVD_IRQHandler
	.p2align	3
	.type	HAL_PWREx_PVD_AVD_IRQHandler,%function
	.code	16                              @ @HAL_PWREx_PVD_AVD_IRQHandler
	.thumb_func
HAL_PWREx_PVD_AVD_IRQHandler:
.Lfunc_begin38:
	.loc	5 2047 0                        @ ../Drivers/STM32H7xx_HAL_Driver/Src/stm32h7xx_hal_pwr_ex.c:2047:0
	.fnstart
	.cfi_startproc
@ %bb.0:
	.save	{r4, r5, r7, lr}
	push	{r4, r5, r7, lr}
	.cfi_def_cfa_offset 16
	.cfi_offset lr, -4
	.cfi_offset r7, -8
	.cfi_offset r5, -12
	.cfi_offset r4, -16
	movw	r5, #18432
	movs	r4, #136
	movt	r5, #22530
	movt	r4, #22528
.Ltmp229:
	.loc	5 2049 7 prologue_end           @ ../Drivers/STM32H7xx_HAL_Driver/Src/stm32h7xx_hal_pwr_ex.c:2049:7
	ldr	r0, [r5]
.Ltmp230:
	.loc	5 2049 7 is_stmt 0              @ ../Drivers/STM32H7xx_HAL_Driver/Src/stm32h7xx_hal_pwr_ex.c:2049:7
	lsls	r0, r0, #27
.Ltmp231:
	.loc	5 2056 11 is_stmt 1             @ ../Drivers/STM32H7xx_HAL_Driver/Src/stm32h7xx_hal_pwr_ex.c:2056:11
	itt	mi
	ldrmi	r0, [r4]
.Ltmp232:
	.loc	5 2056 11 is_stmt 0             @ ../Drivers/STM32H7xx_HAL_Driver/Src/stm32h7xx_hal_pwr_ex.c:2056:11
	lslsmi.w	r0, r0, #15
	bmi	.LBB38_3
.Ltmp233:
.LBB38_1:
	.loc	5 2082 7 is_stmt 1              @ ../Drivers/STM32H7xx_HAL_Driver/Src/stm32h7xx_hal_pwr_ex.c:2082:7
	ldr	r0, [r5]
.Ltmp234:
	.loc	5 2082 7 is_stmt 0              @ ../Drivers/STM32H7xx_HAL_Driver/Src/stm32h7xx_hal_pwr_ex.c:2082:7
	lsls	r0, r0, #15
.Ltmp235:
	.loc	5 2089 11 is_stmt 1             @ ../Drivers/STM32H7xx_HAL_Driver/Src/stm32h7xx_hal_pwr_ex.c:2089:11
	itt	mi
	ldrmi	r0, [r4]
.Ltmp236:
	.loc	5 2089 11 is_stmt 0             @ ../Drivers/STM32H7xx_HAL_Driver/Src/stm32h7xx_hal_pwr_ex.c:2089:11
	lslsmi.w	r0, r0, #15
	bmi	.LBB38_4
.Ltmp237:
@ %bb.2:
	.loc	5 2113 1 is_stmt 1              @ ../Drivers/STM32H7xx_HAL_Driver/Src/stm32h7xx_hal_pwr_ex.c:2113:1
	pop	{r4, r5, r7, pc}
	.p2align	2
.LBB38_3:
.Ltmp238:
	.loc	5 2059 9                        @ ../Drivers/STM32H7xx_HAL_Driver/Src/stm32h7xx_hal_pwr_ex.c:2059:9
	bl	HAL_PWR_PVDCallback
.Ltmp239:
	.loc	5 2062 9                        @ ../Drivers/STM32H7xx_HAL_Driver/Src/stm32h7xx_hal_pwr_ex.c:2062:9
	ldr	r0, [r4]
	orr	r0, r0, #65536
	str	r0, [r4]
	b	.LBB38_1
.Ltmp240:
	.p2align	2
.LBB38_4:
	.loc	5 2092 9                        @ ../Drivers/STM32H7xx_HAL_Driver/Src/stm32h7xx_hal_pwr_ex.c:2092:9
	bl	HAL_PWREx_AVDCallback
.Ltmp241:
	.loc	5 2095 9                        @ ../Drivers/STM32H7xx_HAL_Driver/Src/stm32h7xx_hal_pwr_ex.c:2095:9
	ldr	r0, [r4]
	orr	r0, r0, #65536
	str	r0, [r4]
.Ltmp242:
	.loc	5 2113 1                        @ ../Drivers/STM32H7xx_HAL_Driver/Src/stm32h7xx_hal_pwr_ex.c:2113:1
	pop	{r4, r5, r7, pc}
.Ltmp243:
.Lfunc_end38:
	.size	HAL_PWREx_PVD_AVD_IRQHandler, .Lfunc_end38-HAL_PWREx_PVD_AVD_IRQHandler
	.cfi_endproc
	.cantunwind
	.fnend
                                        @ -- End function
	.hidden	HAL_PWREx_AVDCallback           @ -- Begin function HAL_PWREx_AVDCallback
	.weak	HAL_PWREx_AVDCallback
	.p2align	3
	.type	HAL_PWREx_AVDCallback,%function
	.code	16                              @ @HAL_PWREx_AVDCallback
	.thumb_func
HAL_PWREx_AVDCallback:
.Lfunc_begin39:
	.loc	5 2120 0                        @ ../Drivers/STM32H7xx_HAL_Driver/Src/stm32h7xx_hal_pwr_ex.c:2120:0
	.fnstart
	.cfi_startproc
@ %bb.0:
	.loc	5 2124 1 prologue_end           @ ../Drivers/STM32H7xx_HAL_Driver/Src/stm32h7xx_hal_pwr_ex.c:2124:1
	bx	lr
.Ltmp244:
.Lfunc_end39:
	.size	HAL_PWREx_AVDCallback, .Lfunc_end39-HAL_PWREx_AVDCallback
	.cfi_endproc
	.cantunwind
	.fnend
                                        @ -- End function
	.file	7 "F:\\3.git\\1.Github\\ExFlash_Algorithm\\embedfire\\Algorithm_QSPI\\STLDR\\MDK-ARM" "../Drivers/STM32H7xx_HAL_Driver/Inc/stm32h7xx_hal_pwr_ex.h"
	.section	".note.GNU-stack","",%progbits
	.eabi_attribute	30, 2	@ Tag_ABI_optimization_goals
	.ARM_attribute	16, 1	@ Tag_AV_eba