	.text
	.syntax unified
	.eabi_attribute	67, "2.09"	@ Tag_conformance
	.cpu	cortex-m7
	.eabi_attribute	6, 13	@ Tag_CPU_arch
	.eabi_attribute	7, 77	@ Tag_CPU_arch_profile
	.eabi_attribute	8, 0	@ Tag_ARM_ISA_use
	.eabi_attribute	9, 2	@ Tag_THUMB_ISA_use
	.fpu	fpv5-d16
	.eabi_attribute	36, 1	@ Tag_FP_HP_extension
	.eabi_attribute	34, 1	@ Tag_CPU_unaligned_access
	.eabi_attribute	15, 2	@ Tag_ABI_PCS_RW_data
	.eabi_attribute	16, 1	@ Tag_ABI_PCS_RO_data
	.eabi_attribute	17, 1	@ Tag_ABI_PCS_GOT_use
	.eabi_attribute	20, 2	@ Tag_ABI_FP_denormal
	.eabi_attribute	21, 0	@ Tag_ABI_FP_exceptions
	.eabi_attribute	23, 1	@ Tag_ABI_FP_number_model
	.eabi_attribute	24, 1	@ Tag_ABI_align_needed
	.eabi_attribute	25, 1	@ Tag_ABI_align_preserved
	.eabi_attribute	28, 1	@ Tag_ABI_VFP_args
	.eabi_attribute	38, 1	@ Tag_ABI_FP_16bit_format
	.eabi_attribute	18, 2	@ Tag_ABI_PCS_wchar_t
	.eabi_attribute	26, 1	@ Tag_ABI_enum_size
	.eabi_attribute	14, 1	@ Tag_ABI_PCS_R9_use
	.file	"usart.c"
	.file	1 "D:\\Program\\Keil\\Keil_v5\\ARM\\ARMCLANG\\Bin\\..\\include" "stdint.h"
	.file	2 "F:\\3.git\\1.Github\\ExFlash_Algorithm\\embedfire\\Algorithm_QSPI\\STLDR\\MDK-ARM" "../Drivers/CMSIS/Device/ST/STM32H7xx/Include/stm32h750xx.h"
	.file	3 "F:\\3.git\\1.Github\\ExFlash_Algorithm\\embedfire\\Algorithm_QSPI\\STLDR\\MDK-ARM" "../Drivers/STM32H7xx_HAL_Driver/Inc\\stm32h7xx_hal_uart.h"
	.file	4 "F:\\3.git\\1.Github\\ExFlash_Algorithm\\embedfire\\Algorithm_QSPI\\STLDR\\MDK-ARM" "../Drivers/STM32H7xx_HAL_Driver/Inc\\stm32h7xx_hal_dma.h"
	.file	5 "F:\\3.git\\1.Github\\ExFlash_Algorithm\\embedfire\\Algorithm_QSPI\\STLDR\\MDK-ARM" "../Drivers/STM32H7xx_HAL_Driver/Inc/stm32h7xx_hal_def.h"
	.file	6 "F:\\3.git\\1.Github\\ExFlash_Algorithm\\embedfire\\Algorithm_QSPI\\STLDR\\MDK-ARM" "../Core/Src/usart.c"
	.hidden	MX_USART1_UART_Init             @ -- Begin function MX_USART1_UART_Init
	.globl	MX_USART1_UART_Init
	.p2align	3
	.type	MX_USART1_UART_Init,%function
	.code	16                              @ @MX_USART1_UART_Init
	.thumb_func
MX_USART1_UART_Init:
.Lfunc_begin0:
	.loc	6 32 0                          @ ../Core/Src/usart.c:32:0
	.fnstart
	.cfi_sections .debug_frame
	.cfi_startproc
@ %bb.0:
	.save	{r4, lr}
	push	{r4, lr}
	.cfi_def_cfa_offset 8
	.cfi_offset lr, -4
	.cfi_offset r4, -8
.Ltmp0:
	.loc	6 41 19 prologue_end            @ ../Core/Src/usart.c:41:19
	movw	r4, :lower16:huart1(sbrel)
	movw	r1, #4096
	movt	r4, :upper16:huart1(sbrel)
	movt	r1, #16385
	add.w	r0, r9, r4
	movs	r2, #12
	str.w	r1, [r9, r4]
	mov.w	r1, #115200
	.loc	6 42 24                         @ ../Core/Src/usart.c:42:24
	str	r1, [r0, #4]
	movs	r1, #0
	.loc	6 43 26                         @ ../Core/Src/usart.c:43:26
	strd	r1, r1, [r0, #8]
	.loc	6 45 22                         @ ../Core/Src/usart.c:45:22
	str	r1, [r0, #16]
	.loc	6 46 20                         @ ../Core/Src/usart.c:46:20
	strd	r2, r1, [r0, #20]
	.loc	6 48 28                         @ ../Core/Src/usart.c:48:28
	strd	r1, r1, [r0, #28]
	strd	r1, r1, [r0, #36]
.Ltmp1:
	.loc	6 52 7                          @ ../Core/Src/usart.c:52:7
	bl	HAL_UART_Init
.Ltmp2:
	.loc	6 52 7 is_stmt 0                @ ../Core/Src/usart.c:52:7
	cbz	r0, .LBB0_2
@ %bb.1:
.Ltmp3:
	.loc	6 54 5 is_stmt 1                @ ../Core/Src/usart.c:54:5
	bl	Error_Handler
.Ltmp4:
.LBB0_2:
	.loc	6 56 7                          @ ../Core/Src/usart.c:56:7
	add.w	r0, r9, r4
	movs	r1, #0
	bl	HAL_UARTEx_SetTxFifoThreshold
.Ltmp5:
	.loc	6 56 7 is_stmt 0                @ ../Core/Src/usart.c:56:7
	cbz	r0, .LBB0_4
@ %bb.3:
.Ltmp6:
	.loc	6 58 5 is_stmt 1                @ ../Core/Src/usart.c:58:5
	bl	Error_Handler
.Ltmp7:
.LBB0_4:
	.loc	6 60 7                          @ ../Core/Src/usart.c:60:7
	add.w	r0, r9, r4
	movs	r1, #0
	bl	HAL_UARTEx_SetRxFifoThreshold
.Ltmp8:
	.loc	6 60 7 is_stmt 0                @ ../Core/Src/usart.c:60:7
	cbz	r0, .LBB0_6
@ %bb.5:
.Ltmp9:
	.loc	6 62 5 is_stmt 1                @ ../Core/Src/usart.c:62:5
	bl	Error_Handler
.Ltmp10:
.LBB0_6:
	.loc	6 64 7                          @ ../Core/Src/usart.c:64:7
	add.w	r0, r9, r4
	bl	HAL_UARTEx_DisableFifoMode
.Ltmp11:
	.loc	6 64 7 is_stmt 0                @ ../Core/Src/usart.c:64:7
	cmp	r0, #0
	.loc	6 72 1 is_stmt 1                @ ../Core/Src/usart.c:72:1
	it	eq
	popeq	{r4, pc}
.LBB0_7:
.Ltmp12:
	.loc	6 66 5                          @ ../Core/Src/usart.c:66:5
	pop.w	{r4, lr}
.Ltmp13:
	b	Error_Handler
.Ltmp14:
.Lfunc_end0:
	.size	MX_USART1_UART_Init, .Lfunc_end0-MX_USART1_UART_Init
	.cfi_endproc
	.file	7 "F:\\3.git\\1.Github\\ExFlash_Algorithm\\embedfire\\Algorithm_QSPI\\STLDR\\MDK-ARM" "../Core/Inc/main.h"
	.cantunwind
	.fnend
                                        @ -- End function
	.hidden	HAL_UART_MspInit                @ -- Begin function HAL_UART_MspInit
	.globl	HAL_UART_MspInit
	.p2align	3
	.type	HAL_UART_MspInit,%function
	.code	16                              @ @HAL_UART_MspInit
	.thumb_func
HAL_UART_MspInit:
.Lfunc_begin1:
	.loc	6 75 0                          @ ../Core/Src/usart.c:75:0
	.fnstart
	.cfi_startproc
@ %bb.0:
	@DEBUG_VALUE: HAL_UART_MspInit:uartHandle <- $r0
	.save	{r4, lr}
	push	{r4, lr}
	.cfi_def_cfa_offset 8
	.cfi_offset lr, -4
	.cfi_offset r4, -8
	.pad	#216
	sub	sp, #216
	.cfi_def_cfa_offset 224
	mov	r1, sp
	mov	r4, r0
.Ltmp15:
	@DEBUG_VALUE: HAL_UART_MspInit:uartHandle <- $r4
	@DEBUG_VALUE: HAL_UART_MspInit:uartHandle <- $r4
	.loc	6 78 28 prologue_end            @ ../Core/Src/usart.c:78:28
	add.w	r0, r1, #8
	movs	r1, #184
	bl	__aeabi_memclr8
.Ltmp16:
	.loc	6 0 28 is_stmt 0                @ ../Core/Src/usart.c:0:28
	movw	r1, #4096
.Ltmp17:
	.loc	6 79 18 is_stmt 1               @ ../Core/Src/usart.c:79:18
	ldr	r0, [r4]
	movt	r1, #16385
.Ltmp18:
	.loc	6 79 6 is_stmt 0                @ ../Core/Src/usart.c:79:6
	cmp	r0, r1
	beq	.LBB1_2
.Ltmp19:
@ %bb.1:
	@DEBUG_VALUE: HAL_UART_MspInit:uartHandle <- $r4
	.loc	6 113 1 is_stmt 1               @ ../Core/Src/usart.c:113:1
	add	sp, #216
	pop	{r4, pc}
.Ltmp20:
	.p2align	2
.LBB1_2:
	@DEBUG_VALUE: HAL_UART_MspInit:uartHandle <- $r4
	.loc	6 0 1 is_stmt 0                 @ ../Core/Src/usart.c:0:1
	movs	r0, #1
.Ltmp21:
	.loc	6 87 46 is_stmt 1               @ ../Core/Src/usart.c:87:46
	str	r0, [sp]
	mov	r0, sp
	movs	r4, #0
.Ltmp22:
	@DEBUG_VALUE: HAL_UART_MspInit:uartHandle <- [DW_OP_LLVM_entry_value 1] $r0
	str	r4, [sp, #4]
.Ltmp23:
	.loc	6 89 9                          @ ../Core/Src/usart.c:89:9
	bl	HAL_RCCEx_PeriphCLKConfig
.Ltmp24:
	.loc	6 89 9 is_stmt 0                @ ../Core/Src/usart.c:89:9
	cbz	r0, .LBB1_4
.Ltmp25:
@ %bb.3:
	@DEBUG_VALUE: HAL_UART_MspInit:uartHandle <- [DW_OP_LLVM_entry_value 1] $r0
	.loc	6 91 7 is_stmt 1                @ ../Core/Src/usart.c:91:7
	bl	Error_Handler
.Ltmp26:
.LBB1_4:
	@DEBUG_VALUE: HAL_UART_MspInit:uartHandle <- [DW_OP_LLVM_entry_value 1] $r0
	.loc	6 0 7 is_stmt 0                 @ ../Core/Src/usart.c:0:7
	movw	r0, #17632
	movt	r0, #22530
.Ltmp27:
	.loc	6 95 5 is_stmt 1                @ ../Core/Src/usart.c:95:5
	ldr	r1, [r0, #16]
	orr	r1, r1, #16
	str	r1, [r0, #16]
	ldr	r1, [r0, #16]
	and	r1, r1, #16
	str	r1, [sp, #196]
	ldr	r1, [sp, #196]
.Ltmp28:
	.loc	6 97 5                          @ ../Core/Src/usart.c:97:5
	ldr	r1, [r0]
	orr	r1, r1, #1
	str	r1, [r0]
	ldr	r0, [r0]
	add	r1, sp, #196
	and	r0, r0, #1
	str	r0, [sp, #196]
	ldr	r0, [sp, #196]
	mov.w	r0, #1536
.Ltmp29:
	.loc	6 102 25                        @ ../Core/Src/usart.c:102:25
	str	r0, [sp, #196]
	movs	r0, #2
	.loc	6 103 26                        @ ../Core/Src/usart.c:103:26
	strd	r0, r4, [sp, #200]
	movs	r0, #7
	.loc	6 106 31                        @ ../Core/Src/usart.c:106:31
	str	r0, [sp, #212]
	movs	r0, #0
	.loc	6 105 27                        @ ../Core/Src/usart.c:105:27
	str	r4, [sp, #208]
	movt	r0, #22530
	.loc	6 107 5                         @ ../Core/Src/usart.c:107:5
	bl	HAL_GPIO_Init
.Ltmp30:
	.loc	6 113 1                         @ ../Core/Src/usart.c:113:1
	add	sp, #216
	pop	{r4, pc}
.Ltmp31:
.Lfunc_end1:
	.size	HAL_UART_MspInit, .Lfunc_end1-HAL_UART_MspInit
	.cfi_endproc
	.cantunwind
	.fnend
                                        @ -- End function
	.hidden	HAL_UART_MspDeInit              @ -- Begin function HAL_UART_MspDeInit
	.globl	HAL_UART_MspDeInit
	.p2align	3
	.type	HAL_UART_MspDeInit,%function
	.code	16                              @ @HAL_UART_MspDeInit
	.thumb_func
HAL_UART_MspDeInit:
.Lfunc_begin2:
	.loc	6 116 0                         @ ../Core/Src/usart.c:116:0
	.fnstart
	.cfi_startproc
@ %bb.0:
	@DEBUG_VALUE: HAL_UART_MspDeInit:uartHandle <- $r0
	movw	r1, #4096
.Ltmp32:
	.loc	6 118 18 prologue_end           @ ../Core/Src/usart.c:118:18
	ldr	r0, [r0]
.Ltmp33:
	@DEBUG_VALUE: HAL_UART_MspDeInit:uartHandle <- [DW_OP_LLVM_entry_value 1] $r0
	.loc	6 0 18 is_stmt 0                @ ../Core/Src/usart.c:0:18
	movt	r1, #16385
.Ltmp34:
	.loc	6 118 6                         @ ../Core/Src/usart.c:118:6
	cmp	r0, r1
	.loc	6 136 1 is_stmt 1               @ ../Core/Src/usart.c:136:1
	it	ne
	bxne	lr
.Ltmp35:
.LBB2_1:
	@DEBUG_VALUE: HAL_UART_MspDeInit:uartHandle <- [DW_OP_LLVM_entry_value 1] $r0
	.loc	6 0 1 is_stmt 0                 @ ../Core/Src/usart.c:0:1
	movw	r2, #17648
	movs	r0, #0
	movt	r2, #22530
	movt	r0, #22530
.Ltmp36:
	.loc	6 130 5 is_stmt 1               @ ../Core/Src/usart.c:130:5
	mov.w	r1, #1536
	.loc	6 124 5                         @ ../Core/Src/usart.c:124:5
	ldr	r3, [r2]
	bic	r3, r3, #16
	str	r3, [r2]
.Ltmp37:
	.loc	6 130 5                         @ ../Core/Src/usart.c:130:5
	b	HAL_GPIO_DeInit
.Ltmp38:
.Lfunc_end2:
	.size	HAL_UART_MspDeInit, .Lfunc_end2-HAL_UART_MspDeInit
	.cfi_endproc
	.file	8 "F:\\3.git\\1.Github\\ExFlash_Algorithm\\embedfire\\Algorithm_QSPI\\STLDR\\MDK-ARM" "../Drivers/STM32H7xx_HAL_Driver/Inc\\stm32h7xx_hal_gpio.h"
	.cantunwind
	.fnend
                                        @ -- End function
	.hidden	huart1                          @ @huart1
	.type	huart1,%object
	.section	.bss.huart1,"aw",%nobits
	.globl	huart1
	.p2align	2, 0x0
huart1:
	.zero	148
	.size	huart1, 148

	.file	9 "F:\\3.git\\1.Github\\ExFlash_Algorithm\\embedfire\\Algorithm_QSPI\\STLDR\\MDK-ARM" "../Drivers/STM32H7xx_HAL_Driver/Inc/stm32h7xx_hal_rcc_ex.h"
	.section	".note.GNU-stack","",%progbits
	.eabi_attribute	30, 2	@ Tag_ABI_optimization_goals
	.ARM_attribute	16, 1	@ Tag_AV_eba