
stm32h750xb.elf:     file format elf32-littlearm

Sections:
Idx Name          Size      VMA       LMA       File off  Algn
  0 .info         000000c8  00000000  00000000  00001000  2**2
                  CONTENTS, ALLOC, LOAD, READONLY, DATA
  1 .prog         000042d8  24000004  24000004  00002004  2**2
                  CONTENTS, ALLOC, LOAD, READONLY, CODE
  2 .rodata       00000010  240042dc  240042dc  000062dc  2**2
                  CONTENTS, ALLOC, LOAD, READONLY, DATA
  3 .init_array   00000004  240042ec  240042ec  000062ec  2**2
                  CONTENTS, ALLOC, LOAD, DATA
  4 .fini_array   00000004  240042f0  240042f0  000062f0  2**2
                  CONTENTS, ALLOC, LOAD, DATA
  5 .data         0000000c  240042f4  240042f4  000062f4  2**2
                  CONTENTS, ALLOC, LOAD, DATA
  6 .bss          0000006c  24004300  24004300  00006300  2**2
                  ALLOC
  7 .ARM.attributes 0000002e  00000000  00000000  00006300  2**0
                  CONTENTS, READONLY
  8 .comment      00000043  00000000  00000000  0000632e  2**0
                  CONTENTS, READONLY
  9 .debug_frame  00000020  00000000  00000000  00006374  2**2
                  CONTENTS, READONLY, DEBUGGING, OCTETS

Disassembly of section .prog:

24000004 <__do_global_dtors_aux>:
24000004:	b510      	push	{r4, lr}
24000006:	4c05      	ldr	r4, [pc, #20]	@ (2400001c <__do_global_dtors_aux+0x18>)
24000008:	7823      	ldrb	r3, [r4, #0]
2400000a:	b933      	cbnz	r3, 2400001a <__do_global_dtors_aux+0x16>
2400000c:	4b04      	ldr	r3, [pc, #16]	@ (24000020 <__do_global_dtors_aux+0x1c>)
2400000e:	b113      	cbz	r3, 24000016 <__do_global_dtors_aux+0x12>
24000010:	4804      	ldr	r0, [pc, #16]	@ (24000024 <__do_global_dtors_aux+0x20>)
24000012:	f3af 8000 	nop.w
24000016:	2301      	movs	r3, #1
24000018:	7023      	strb	r3, [r4, #0]
2400001a:	bd10      	pop	{r4, pc}
2400001c:	24004300 	.word	0x24004300
24000020:	00000000 	.word	0x00000000
24000024:	240042c4 	.word	0x240042c4

24000028 <frame_dummy>:
24000028:	b508      	push	{r3, lr}
2400002a:	4b03      	ldr	r3, [pc, #12]	@ (24000038 <frame_dummy+0x10>)
2400002c:	b11b      	cbz	r3, 24000036 <frame_dummy+0xe>
2400002e:	4903      	ldr	r1, [pc, #12]	@ (2400003c <frame_dummy+0x14>)
24000030:	4803      	ldr	r0, [pc, #12]	@ (24000040 <frame_dummy+0x18>)
24000032:	f3af 8000 	nop.w
24000036:	bd08      	pop	{r3, pc}
24000038:	00000000 	.word	0x00000000
2400003c:	24004304 	.word	0x24004304
24000040:	240042c4 	.word	0x240042c4

24000044 <Init>:
24000044:	b580      	push	{r7, lr}
24000046:	af00      	add	r7, sp, #0
24000048:	b672      	cpsid	i
2400004a:	bf00      	nop
2400004c:	f000 fd9e 	bl	24000b8c <SystemInit>
24000050:	4b0c      	ldr	r3, [pc, #48]	@ (24000084 <Init+0x40>)
24000052:	4a0d      	ldr	r2, [pc, #52]	@ (24000088 <Init+0x44>)
24000054:	601a      	str	r2, [r3, #0]
24000056:	480b      	ldr	r0, [pc, #44]	@ (24000084 <Init+0x40>)
24000058:	f001 fa80 	bl	2400155c <HAL_QSPI_DeInit>
2400005c:	f000 fe5a 	bl	24000d14 <HAL_DeInit>
24000060:	f000 fe1c 	bl	24000c9c <HAL_Init>
24000064:	f000 fb60 	bl	24000728 <SystemClock_Config>
24000068:	f000 fab6 	bl	240005d8 <MX_GPIO_Init>
2400006c:	4805      	ldr	r0, [pc, #20]	@ (24000084 <Init+0x40>)
2400006e:	f001 fa75 	bl	2400155c <HAL_QSPI_DeInit>
24000072:	f000 fc0d 	bl	24000890 <MX_QUADSPI_Init>
24000076:	f000 f905 	bl	24000284 <w25qxx_init>
2400007a:	f000 f913 	bl	240002a4 <w25qxx_memorymapped>
2400007e:	2301      	movs	r3, #1
24000080:	4618      	mov	r0, r3
24000082:	bd80      	pop	{r7, pc}
24000084:	2400431c 	.word	0x2400431c
24000088:	52005000 	.word	0x52005000

2400008c <Write>:
2400008c:	b580      	push	{r7, lr}
2400008e:	b088      	sub	sp, #32
24000090:	af00      	add	r7, sp, #0
24000092:	60f8      	str	r0, [r7, #12]
24000094:	60b9      	str	r1, [r7, #8]
24000096:	607a      	str	r2, [r7, #4]
24000098:	4820      	ldr	r0, [pc, #128]	@ (2400011c <Write+0x90>)
2400009a:	f001 fa5f 	bl	2400155c <HAL_QSPI_DeInit>
2400009e:	f000 fbf7 	bl	24000890 <MX_QUADSPI_Init>
240000a2:	f000 f8ef 	bl	24000284 <w25qxx_init>
240000a6:	68fb      	ldr	r3, [r7, #12]
240000a8:	f103 43e0 	add.w	r3, r3, #1879048192	@ 0x70000000
240000ac:	60fb      	str	r3, [r7, #12]
240000ae:	68fb      	ldr	r3, [r7, #12]
240000b0:	f3c3 0308 	ubfx	r3, r3, #0, #9
240000b4:	f5c3 7300 	rsb	r3, r3, #512	@ 0x200
240000b8:	61fb      	str	r3, [r7, #28]
240000ba:	69fa      	ldr	r2, [r7, #28]
240000bc:	68bb      	ldr	r3, [r7, #8]
240000be:	429a      	cmp	r2, r3
240000c0:	d901      	bls.n	240000c6 <Write+0x3a>
240000c2:	68bb      	ldr	r3, [r7, #8]
240000c4:	61fb      	str	r3, [r7, #28]
240000c6:	68fb      	ldr	r3, [r7, #12]
240000c8:	61bb      	str	r3, [r7, #24]
240000ca:	68fa      	ldr	r2, [r7, #12]
240000cc:	68bb      	ldr	r3, [r7, #8]
240000ce:	4413      	add	r3, r2
240000d0:	617b      	str	r3, [r7, #20]
240000d2:	69fa      	ldr	r2, [r7, #28]
240000d4:	6879      	ldr	r1, [r7, #4]
240000d6:	69b8      	ldr	r0, [r7, #24]
240000d8:	f000 fa44 	bl	24000564 <w25qxx_write>
240000dc:	69ba      	ldr	r2, [r7, #24]
240000de:	69fb      	ldr	r3, [r7, #28]
240000e0:	4413      	add	r3, r2
240000e2:	61bb      	str	r3, [r7, #24]
240000e4:	687a      	ldr	r2, [r7, #4]
240000e6:	69fb      	ldr	r3, [r7, #28]
240000e8:	4413      	add	r3, r2
240000ea:	607b      	str	r3, [r7, #4]
240000ec:	69bb      	ldr	r3, [r7, #24]
240000ee:	f503 7300 	add.w	r3, r3, #512	@ 0x200
240000f2:	697a      	ldr	r2, [r7, #20]
240000f4:	429a      	cmp	r2, r3
240000f6:	d203      	bcs.n	24000100 <Write+0x74>
240000f8:	697a      	ldr	r2, [r7, #20]
240000fa:	69bb      	ldr	r3, [r7, #24]
240000fc:	1ad3      	subs	r3, r2, r3
240000fe:	e001      	b.n	24000104 <Write+0x78>
24000100:	f44f 7300 	mov.w	r3, #512	@ 0x200
24000104:	61fb      	str	r3, [r7, #28]
24000106:	69ba      	ldr	r2, [r7, #24]
24000108:	697b      	ldr	r3, [r7, #20]
2400010a:	429a      	cmp	r2, r3
2400010c:	d3e1      	bcc.n	240000d2 <Write+0x46>
2400010e:	f000 f8c9 	bl	240002a4 <w25qxx_memorymapped>
24000112:	2301      	movs	r3, #1
24000114:	4618      	mov	r0, r3
24000116:	3720      	adds	r7, #32
24000118:	46bd      	mov	sp, r7
2400011a:	bd80      	pop	{r7, pc}
2400011c:	2400431c 	.word	0x2400431c

24000120 <SectorErase>:
24000120:	b580      	push	{r7, lr}
24000122:	b084      	sub	sp, #16
24000124:	af00      	add	r7, sp, #0
24000126:	6078      	str	r0, [r7, #4]
24000128:	6039      	str	r1, [r7, #0]
2400012a:	4815      	ldr	r0, [pc, #84]	@ (24000180 <SectorErase+0x60>)
2400012c:	f001 fa16 	bl	2400155c <HAL_QSPI_DeInit>
24000130:	f000 fbae 	bl	24000890 <MX_QUADSPI_Init>
24000134:	f000 f8a6 	bl	24000284 <w25qxx_init>
24000138:	687b      	ldr	r3, [r7, #4]
2400013a:	f103 43e0 	add.w	r3, r3, #1879048192	@ 0x70000000
2400013e:	607b      	str	r3, [r7, #4]
24000140:	683b      	ldr	r3, [r7, #0]
24000142:	f103 43e0 	add.w	r3, r3, #1879048192	@ 0x70000000
24000146:	603b      	str	r3, [r7, #0]
24000148:	687a      	ldr	r2, [r7, #4]
2400014a:	4b0e      	ldr	r3, [pc, #56]	@ (24000184 <SectorErase+0x64>)
2400014c:	4013      	ands	r3, r2
2400014e:	607b      	str	r3, [r7, #4]
24000150:	e00a      	b.n	24000168 <SectorErase+0x48>
24000152:	687b      	ldr	r3, [r7, #4]
24000154:	f023 4378 	bic.w	r3, r3, #4160749568	@ 0xf8000000
24000158:	60fb      	str	r3, [r7, #12]
2400015a:	68f8      	ldr	r0, [r7, #12]
2400015c:	f000 f97e 	bl	2400045c <w25qxx_128k_block_erase>
24000160:	687b      	ldr	r3, [r7, #4]
24000162:	f503 3300 	add.w	r3, r3, #131072	@ 0x20000
24000166:	607b      	str	r3, [r7, #4]
24000168:	683a      	ldr	r2, [r7, #0]
2400016a:	687b      	ldr	r3, [r7, #4]
2400016c:	429a      	cmp	r2, r3
2400016e:	d2f0      	bcs.n	24000152 <SectorErase+0x32>
24000170:	f000 f898 	bl	240002a4 <w25qxx_memorymapped>
24000174:	2301      	movs	r3, #1
24000176:	4618      	mov	r0, r3
24000178:	3710      	adds	r7, #16
2400017a:	46bd      	mov	sp, r7
2400017c:	bd80      	pop	{r7, pc}
2400017e:	bf00      	nop
24000180:	2400431c 	.word	0x2400431c
24000184:	fffe0000 	.word	0xfffe0000

24000188 <MassErase>:
24000188:	b580      	push	{r7, lr}
2400018a:	b082      	sub	sp, #8
2400018c:	af00      	add	r7, sp, #0
2400018e:	6078      	str	r0, [r7, #4]
24000190:	4807      	ldr	r0, [pc, #28]	@ (240001b0 <MassErase+0x28>)
24000192:	f001 f9e3 	bl	2400155c <HAL_QSPI_DeInit>
24000196:	f000 fb7b 	bl	24000890 <MX_QUADSPI_Init>
2400019a:	f000 f873 	bl	24000284 <w25qxx_init>
2400019e:	f000 f989 	bl	240004b4 <w25qxx_chip_erase>
240001a2:	f000 f87f 	bl	240002a4 <w25qxx_memorymapped>
240001a6:	2301      	movs	r3, #1
240001a8:	4618      	mov	r0, r3
240001aa:	3708      	adds	r7, #8
240001ac:	46bd      	mov	sp, r7
240001ae:	bd80      	pop	{r7, pc}
240001b0:	2400431c 	.word	0x2400431c

240001b4 <w25qxx_set_address_mode>:
240001b4:	b580      	push	{r7, lr}
240001b6:	b090      	sub	sp, #64	@ 0x40
240001b8:	af00      	add	r7, sp, #0
240001ba:	4603      	mov	r3, r0
240001bc:	71fb      	strb	r3, [r7, #7]
240001be:	f107 0308 	add.w	r3, r7, #8
240001c2:	2238      	movs	r2, #56	@ 0x38
240001c4:	2100      	movs	r1, #0
240001c6:	4618      	mov	r0, r3
240001c8:	f004 f874 	bl	240042b4 <memset>
240001cc:	79fb      	ldrb	r3, [r7, #7]
240001ce:	2b01      	cmp	r3, #1
240001d0:	d102      	bne.n	240001d8 <w25qxx_set_address_mode+0x24>
240001d2:	23b7      	movs	r3, #183	@ 0xb7
240001d4:	60bb      	str	r3, [r7, #8]
240001d6:	e001      	b.n	240001dc <w25qxx_set_address_mode+0x28>
240001d8:	23e9      	movs	r3, #233	@ 0xe9
240001da:	60bb      	str	r3, [r7, #8]
240001dc:	f44f 7380 	mov.w	r3, #256	@ 0x100
240001e0:	623b      	str	r3, [r7, #32]
240001e2:	f107 0308 	add.w	r3, r7, #8
240001e6:	f242 7210 	movw	r2, #10000	@ 0x2710
240001ea:	4619      	mov	r1, r3
240001ec:	4806      	ldr	r0, [pc, #24]	@ (24000208 <w25qxx_set_address_mode+0x54>)
240001ee:	f001 f9d5 	bl	2400159c <HAL_QSPI_Command>
240001f2:	4603      	mov	r3, r0
240001f4:	2b00      	cmp	r3, #0
240001f6:	d101      	bne.n	240001fc <w25qxx_set_address_mode+0x48>
240001f8:	2300      	movs	r3, #0
240001fa:	e001      	b.n	24000200 <w25qxx_set_address_mode+0x4c>
240001fc:	f04f 33ff 	mov.w	r3, #4294967295
24000200:	4618      	mov	r0, r3
24000202:	3740      	adds	r7, #64	@ 0x40
24000204:	46bd      	mov	sp, r7
24000206:	bd80      	pop	{r7, pc}
24000208:	2400431c 	.word	0x2400431c

2400020c <w25qxx_autopolling_ready>:
2400020c:	b580      	push	{r7, lr}
2400020e:	b094      	sub	sp, #80	@ 0x50
24000210:	af00      	add	r7, sp, #0
24000212:	f107 0318 	add.w	r3, r7, #24
24000216:	2238      	movs	r2, #56	@ 0x38
24000218:	2100      	movs	r1, #0
2400021a:	4618      	mov	r0, r3
2400021c:	f004 f84a 	bl	240042b4 <memset>
24000220:	463b      	mov	r3, r7
24000222:	2200      	movs	r2, #0
24000224:	601a      	str	r2, [r3, #0]
24000226:	605a      	str	r2, [r3, #4]
24000228:	609a      	str	r2, [r3, #8]
2400022a:	60da      	str	r2, [r3, #12]
2400022c:	611a      	str	r2, [r3, #16]
2400022e:	615a      	str	r2, [r3, #20]
24000230:	f44f 7380 	mov.w	r3, #256	@ 0x100
24000234:	633b      	str	r3, [r7, #48]	@ 0x30
24000236:	2305      	movs	r3, #5
24000238:	61bb      	str	r3, [r7, #24]
2400023a:	f04f 7380 	mov.w	r3, #16777216	@ 0x1000000
2400023e:	63fb      	str	r3, [r7, #60]	@ 0x3c
24000240:	f240 1301 	movw	r3, #257	@ 0x101
24000244:	607b      	str	r3, [r7, #4]
24000246:	2300      	movs	r3, #0
24000248:	603b      	str	r3, [r7, #0]
2400024a:	2300      	movs	r3, #0
2400024c:	613b      	str	r3, [r7, #16]
2400024e:	2302      	movs	r3, #2
24000250:	60fb      	str	r3, [r7, #12]
24000252:	230a      	movs	r3, #10
24000254:	60bb      	str	r3, [r7, #8]
24000256:	f44f 0380 	mov.w	r3, #4194304	@ 0x400000
2400025a:	617b      	str	r3, [r7, #20]
2400025c:	463a      	mov	r2, r7
2400025e:	f107 0118 	add.w	r1, r7, #24
24000262:	f242 7310 	movw	r3, #10000	@ 0x2710
24000266:	4806      	ldr	r0, [pc, #24]	@ (24000280 <w25qxx_autopolling_ready+0x74>)
24000268:	f001 fa88 	bl	2400177c <HAL_QSPI_AutoPolling>
2400026c:	4603      	mov	r3, r0
2400026e:	2b00      	cmp	r3, #0
24000270:	d001      	beq.n	24000276 <w25qxx_autopolling_ready+0x6a>
24000272:	f000 fb07 	bl	24000884 <Error_Handler>
24000276:	2300      	movs	r3, #0
24000278:	4618      	mov	r0, r3
2400027a:	3750      	adds	r7, #80	@ 0x50
2400027c:	46bd      	mov	sp, r7
2400027e:	bd80      	pop	{r7, pc}
24000280:	2400431c 	.word	0x2400431c

24000284 <w25qxx_init>:
24000284:	b580      	push	{r7, lr}
24000286:	af00      	add	r7, sp, #0
24000288:	f000 f86e 	bl	24000368 <w25qxx_reset>
2400028c:	f7ff ffbe 	bl	2400020c <w25qxx_autopolling_ready>
24000290:	2001      	movs	r0, #1
24000292:	f7ff ff8f 	bl	240001b4 <w25qxx_set_address_mode>
24000296:	2182      	movs	r1, #130	@ 0x82
24000298:	2002      	movs	r0, #2
2400029a:	f000 f899 	bl	240003d0 <w25qxx_write_status_reg>
2400029e:	2300      	movs	r3, #0
240002a0:	4618      	mov	r0, r3
240002a2:	bd80      	pop	{r7, pc}

240002a4 <w25qxx_memorymapped>:
240002a4:	b580      	push	{r7, lr}
240002a6:	b090      	sub	sp, #64	@ 0x40
240002a8:	af00      	add	r7, sp, #0
240002aa:	f107 0308 	add.w	r3, r7, #8
240002ae:	2238      	movs	r2, #56	@ 0x38
240002b0:	2100      	movs	r1, #0
240002b2:	4618      	mov	r0, r3
240002b4:	f003 fffe 	bl	240042b4 <memset>
240002b8:	463b      	mov	r3, r7
240002ba:	2200      	movs	r2, #0
240002bc:	601a      	str	r2, [r3, #0]
240002be:	605a      	str	r2, [r3, #4]
240002c0:	f7ff ffa4 	bl	2400020c <w25qxx_autopolling_ready>
240002c4:	23eb      	movs	r3, #235	@ 0xeb
240002c6:	60bb      	str	r3, [r7, #8]
240002c8:	f44f 7380 	mov.w	r3, #256	@ 0x100
240002cc:	623b      	str	r3, [r7, #32]
240002ce:	f44f 6340 	mov.w	r3, #3072	@ 0xc00
240002d2:	627b      	str	r3, [r7, #36]	@ 0x24
240002d4:	f44f 5340 	mov.w	r3, #12288	@ 0x3000
240002d8:	617b      	str	r3, [r7, #20]
240002da:	2300      	movs	r3, #0
240002dc:	60fb      	str	r3, [r7, #12]
240002de:	f44f 4340 	mov.w	r3, #49152	@ 0xc000
240002e2:	62bb      	str	r3, [r7, #40]	@ 0x28
240002e4:	2300      	movs	r3, #0
240002e6:	61bb      	str	r3, [r7, #24]
240002e8:	23ff      	movs	r3, #255	@ 0xff
240002ea:	613b      	str	r3, [r7, #16]
240002ec:	2304      	movs	r3, #4
240002ee:	61fb      	str	r3, [r7, #28]
240002f0:	f04f 7340 	mov.w	r3, #50331648	@ 0x3000000
240002f4:	62fb      	str	r3, [r7, #44]	@ 0x2c
240002f6:	2300      	movs	r3, #0
240002f8:	607b      	str	r3, [r7, #4]
240002fa:	2300      	movs	r3, #0
240002fc:	603b      	str	r3, [r7, #0]
240002fe:	463a      	mov	r2, r7
24000300:	f107 0308 	add.w	r3, r7, #8
24000304:	4619      	mov	r1, r3
24000306:	4806      	ldr	r0, [pc, #24]	@ (24000320 <w25qxx_memorymapped+0x7c>)
24000308:	f001 faaf 	bl	2400186a <HAL_QSPI_MemoryMapped>
2400030c:	4603      	mov	r3, r0
2400030e:	2b00      	cmp	r3, #0
24000310:	d001      	beq.n	24000316 <w25qxx_memorymapped+0x72>
24000312:	f000 fab7 	bl	24000884 <Error_Handler>
24000316:	2300      	movs	r3, #0
24000318:	4618      	mov	r0, r3
2400031a:	3740      	adds	r7, #64	@ 0x40
2400031c:	46bd      	mov	sp, r7
2400031e:	bd80      	pop	{r7, pc}
24000320:	2400431c 	.word	0x2400431c

24000324 <w25qxx_write_enable>:
24000324:	b580      	push	{r7, lr}
24000326:	b08e      	sub	sp, #56	@ 0x38
24000328:	af00      	add	r7, sp, #0
2400032a:	463b      	mov	r3, r7
2400032c:	2238      	movs	r2, #56	@ 0x38
2400032e:	2100      	movs	r1, #0
24000330:	4618      	mov	r0, r3
24000332:	f003 ffbf 	bl	240042b4 <memset>
24000336:	f44f 7380 	mov.w	r3, #256	@ 0x100
2400033a:	61bb      	str	r3, [r7, #24]
2400033c:	2306      	movs	r3, #6
2400033e:	603b      	str	r3, [r7, #0]
24000340:	463b      	mov	r3, r7
24000342:	f242 7210 	movw	r2, #10000	@ 0x2710
24000346:	4619      	mov	r1, r3
24000348:	4806      	ldr	r0, [pc, #24]	@ (24000364 <w25qxx_write_enable+0x40>)
2400034a:	f001 f927 	bl	2400159c <HAL_QSPI_Command>
2400034e:	4603      	mov	r3, r0
24000350:	2b00      	cmp	r3, #0
24000352:	d101      	bne.n	24000358 <w25qxx_write_enable+0x34>
24000354:	2300      	movs	r3, #0
24000356:	e000      	b.n	2400035a <w25qxx_write_enable+0x36>
24000358:	2301      	movs	r3, #1
2400035a:	4618      	mov	r0, r3
2400035c:	3738      	adds	r7, #56	@ 0x38
2400035e:	46bd      	mov	sp, r7
24000360:	bd80      	pop	{r7, pc}
24000362:	bf00      	nop
24000364:	2400431c 	.word	0x2400431c

24000368 <w25qxx_reset>:
24000368:	b580      	push	{r7, lr}
2400036a:	b08e      	sub	sp, #56	@ 0x38
2400036c:	af00      	add	r7, sp, #0
2400036e:	463b      	mov	r3, r7
24000370:	2238      	movs	r2, #56	@ 0x38
24000372:	2100      	movs	r1, #0
24000374:	4618      	mov	r0, r3
24000376:	f003 ff9d 	bl	240042b4 <memset>
2400037a:	f7ff ff47 	bl	2400020c <w25qxx_autopolling_ready>
2400037e:	f44f 7380 	mov.w	r3, #256	@ 0x100
24000382:	61bb      	str	r3, [r7, #24]
24000384:	2366      	movs	r3, #102	@ 0x66
24000386:	603b      	str	r3, [r7, #0]
24000388:	463b      	mov	r3, r7
2400038a:	f242 7210 	movw	r2, #10000	@ 0x2710
2400038e:	4619      	mov	r1, r3
24000390:	480e      	ldr	r0, [pc, #56]	@ (240003cc <w25qxx_reset+0x64>)
24000392:	f001 f903 	bl	2400159c <HAL_QSPI_Command>
24000396:	4603      	mov	r3, r0
24000398:	2b00      	cmp	r3, #0
2400039a:	d002      	beq.n	240003a2 <w25qxx_reset+0x3a>
2400039c:	f04f 33ff 	mov.w	r3, #4294967295
240003a0:	e00f      	b.n	240003c2 <w25qxx_reset+0x5a>
240003a2:	2399      	movs	r3, #153	@ 0x99
240003a4:	603b      	str	r3, [r7, #0]
240003a6:	463b      	mov	r3, r7
240003a8:	f242 7210 	movw	r2, #10000	@ 0x2710
240003ac:	4619      	mov	r1, r3
240003ae:	4807      	ldr	r0, [pc, #28]	@ (240003cc <w25qxx_reset+0x64>)
240003b0:	f001 f8f4 	bl	2400159c <HAL_QSPI_Command>
240003b4:	4603      	mov	r3, r0
240003b6:	2b00      	cmp	r3, #0
240003b8:	d002      	beq.n	240003c0 <w25qxx_reset+0x58>
240003ba:	f04f 33ff 	mov.w	r3, #4294967295
240003be:	e000      	b.n	240003c2 <w25qxx_reset+0x5a>
240003c0:	2300      	movs	r3, #0
240003c2:	4618      	mov	r0, r3
240003c4:	3738      	adds	r7, #56	@ 0x38
240003c6:	46bd      	mov	sp, r7
240003c8:	bd80      	pop	{r7, pc}
240003ca:	bf00      	nop
240003cc:	2400431c 	.word	0x2400431c

240003d0 <w25qxx_write_status_reg>:
240003d0:	b580      	push	{r7, lr}
240003d2:	b090      	sub	sp, #64	@ 0x40
240003d4:	af00      	add	r7, sp, #0
240003d6:	4603      	mov	r3, r0
240003d8:	460a      	mov	r2, r1
240003da:	71fb      	strb	r3, [r7, #7]
240003dc:	4613      	mov	r3, r2
240003de:	80bb      	strh	r3, [r7, #4]
240003e0:	f107 0308 	add.w	r3, r7, #8
240003e4:	2238      	movs	r2, #56	@ 0x38
240003e6:	2100      	movs	r1, #0
240003e8:	4618      	mov	r0, r3
240003ea:	f003 ff63 	bl	240042b4 <memset>
240003ee:	f44f 7380 	mov.w	r3, #256	@ 0x100
240003f2:	623b      	str	r3, [r7, #32]
240003f4:	79fb      	ldrb	r3, [r7, #7]
240003f6:	2b03      	cmp	r3, #3
240003f8:	d00c      	beq.n	24000414 <w25qxx_write_status_reg+0x44>
240003fa:	2b03      	cmp	r3, #3
240003fc:	dc0d      	bgt.n	2400041a <w25qxx_write_status_reg+0x4a>
240003fe:	2b01      	cmp	r3, #1
24000400:	d002      	beq.n	24000408 <w25qxx_write_status_reg+0x38>
24000402:	2b02      	cmp	r3, #2
24000404:	d003      	beq.n	2400040e <w25qxx_write_status_reg+0x3e>
24000406:	e008      	b.n	2400041a <w25qxx_write_status_reg+0x4a>
24000408:	2301      	movs	r3, #1
2400040a:	60bb      	str	r3, [r7, #8]
2400040c:	e008      	b.n	24000420 <w25qxx_write_status_reg+0x50>
2400040e:	2331      	movs	r3, #49	@ 0x31
24000410:	60bb      	str	r3, [r7, #8]
24000412:	e005      	b.n	24000420 <w25qxx_write_status_reg+0x50>
24000414:	2311      	movs	r3, #17
24000416:	60bb      	str	r3, [r7, #8]
24000418:	e002      	b.n	24000420 <w25qxx_write_status_reg+0x50>
2400041a:	2301      	movs	r3, #1
2400041c:	60bb      	str	r3, [r7, #8]
2400041e:	bf00      	nop
24000420:	f04f 7380 	mov.w	r3, #16777216	@ 0x1000000
24000424:	62fb      	str	r3, [r7, #44]	@ 0x2c
24000426:	2302      	movs	r3, #2
24000428:	633b      	str	r3, [r7, #48]	@ 0x30
2400042a:	f107 0308 	add.w	r3, r7, #8
2400042e:	f242 7210 	movw	r2, #10000	@ 0x2710
24000432:	4619      	mov	r1, r3
24000434:	4808      	ldr	r0, [pc, #32]	@ (24000458 <w25qxx_write_status_reg+0x88>)
24000436:	f001 f8b1 	bl	2400159c <HAL_QSPI_Command>
2400043a:	1d3b      	adds	r3, r7, #4
2400043c:	f242 7210 	movw	r2, #10000	@ 0x2710
24000440:	4619      	mov	r1, r3
24000442:	4805      	ldr	r0, [pc, #20]	@ (24000458 <w25qxx_write_status_reg+0x88>)
24000444:	f001 f908 	bl	24001658 <HAL_QSPI_Transmit>
24000448:	f7ff fee0 	bl	2400020c <w25qxx_autopolling_ready>
2400044c:	2300      	movs	r3, #0
2400044e:	4618      	mov	r0, r3
24000450:	3740      	adds	r7, #64	@ 0x40
24000452:	46bd      	mov	sp, r7
24000454:	bd80      	pop	{r7, pc}
24000456:	bf00      	nop
24000458:	2400431c 	.word	0x2400431c

2400045c <w25qxx_128k_block_erase>:
2400045c:	b580      	push	{r7, lr}
2400045e:	b090      	sub	sp, #64	@ 0x40
24000460:	af00      	add	r7, sp, #0
24000462:	6078      	str	r0, [r7, #4]
24000464:	f107 0308 	add.w	r3, r7, #8
24000468:	2238      	movs	r2, #56	@ 0x38
2400046a:	2100      	movs	r1, #0
2400046c:	4618      	mov	r0, r3
2400046e:	f003 ff21 	bl	240042b4 <memset>
24000472:	f7ff ff57 	bl	24000324 <w25qxx_write_enable>
24000476:	23d8      	movs	r3, #216	@ 0xd8
24000478:	60bb      	str	r3, [r7, #8]
2400047a:	f44f 7380 	mov.w	r3, #256	@ 0x100
2400047e:	623b      	str	r3, [r7, #32]
24000480:	687b      	ldr	r3, [r7, #4]
24000482:	60fb      	str	r3, [r7, #12]
24000484:	f44f 6380 	mov.w	r3, #1024	@ 0x400
24000488:	627b      	str	r3, [r7, #36]	@ 0x24
2400048a:	f44f 5340 	mov.w	r3, #12288	@ 0x3000
2400048e:	617b      	str	r3, [r7, #20]
24000490:	f107 0308 	add.w	r3, r7, #8
24000494:	f242 7210 	movw	r2, #10000	@ 0x2710
24000498:	4619      	mov	r1, r3
2400049a:	4805      	ldr	r0, [pc, #20]	@ (240004b0 <w25qxx_128k_block_erase+0x54>)
2400049c:	f001 f87e 	bl	2400159c <HAL_QSPI_Command>
240004a0:	f7ff feb4 	bl	2400020c <w25qxx_autopolling_ready>
240004a4:	2300      	movs	r3, #0
240004a6:	4618      	mov	r0, r3
240004a8:	3740      	adds	r7, #64	@ 0x40
240004aa:	46bd      	mov	sp, r7
240004ac:	bd80      	pop	{r7, pc}
240004ae:	bf00      	nop
240004b0:	2400431c 	.word	0x2400431c

240004b4 <w25qxx_chip_erase>:
240004b4:	b580      	push	{r7, lr}
240004b6:	b08e      	sub	sp, #56	@ 0x38
240004b8:	af00      	add	r7, sp, #0
240004ba:	463b      	mov	r3, r7
240004bc:	2238      	movs	r2, #56	@ 0x38
240004be:	2100      	movs	r1, #0
240004c0:	4618      	mov	r0, r3
240004c2:	f003 fef7 	bl	240042b4 <memset>
240004c6:	f7ff ff2d 	bl	24000324 <w25qxx_write_enable>
240004ca:	23c7      	movs	r3, #199	@ 0xc7
240004cc:	603b      	str	r3, [r7, #0]
240004ce:	f44f 7380 	mov.w	r3, #256	@ 0x100
240004d2:	61bb      	str	r3, [r7, #24]
240004d4:	463b      	mov	r3, r7
240004d6:	f242 7210 	movw	r2, #10000	@ 0x2710
240004da:	4619      	mov	r1, r3
240004dc:	4804      	ldr	r0, [pc, #16]	@ (240004f0 <w25qxx_chip_erase+0x3c>)
240004de:	f001 f85d 	bl	2400159c <HAL_QSPI_Command>
240004e2:	f7ff fe93 	bl	2400020c <w25qxx_autopolling_ready>
240004e6:	2300      	movs	r3, #0
240004e8:	4618      	mov	r0, r3
240004ea:	3738      	adds	r7, #56	@ 0x38
240004ec:	46bd      	mov	sp, r7
240004ee:	bd80      	pop	{r7, pc}
240004f0:	2400431c 	.word	0x2400431c

240004f4 <w25qxx_page_program>:
240004f4:	b580      	push	{r7, lr}
240004f6:	b092      	sub	sp, #72	@ 0x48
240004f8:	af00      	add	r7, sp, #0
240004fa:	60f8      	str	r0, [r7, #12]
240004fc:	60b9      	str	r1, [r7, #8]
240004fe:	607a      	str	r2, [r7, #4]
24000500:	f107 0310 	add.w	r3, r7, #16
24000504:	2238      	movs	r2, #56	@ 0x38
24000506:	2100      	movs	r1, #0
24000508:	4618      	mov	r0, r3
2400050a:	f003 fed3 	bl	240042b4 <memset>
2400050e:	f7ff ff09 	bl	24000324 <w25qxx_write_enable>
24000512:	2332      	movs	r3, #50	@ 0x32
24000514:	613b      	str	r3, [r7, #16]
24000516:	f44f 7380 	mov.w	r3, #256	@ 0x100
2400051a:	62bb      	str	r3, [r7, #40]	@ 0x28
2400051c:	68fb      	ldr	r3, [r7, #12]
2400051e:	617b      	str	r3, [r7, #20]
24000520:	f44f 6380 	mov.w	r3, #1024	@ 0x400
24000524:	62fb      	str	r3, [r7, #44]	@ 0x2c
24000526:	f44f 5340 	mov.w	r3, #12288	@ 0x3000
2400052a:	61fb      	str	r3, [r7, #28]
2400052c:	f04f 7340 	mov.w	r3, #50331648	@ 0x3000000
24000530:	637b      	str	r3, [r7, #52]	@ 0x34
24000532:	687b      	ldr	r3, [r7, #4]
24000534:	63bb      	str	r3, [r7, #56]	@ 0x38
24000536:	f107 0310 	add.w	r3, r7, #16
2400053a:	f242 7210 	movw	r2, #10000	@ 0x2710
2400053e:	4619      	mov	r1, r3
24000540:	4807      	ldr	r0, [pc, #28]	@ (24000560 <w25qxx_page_program+0x6c>)
24000542:	f001 f82b 	bl	2400159c <HAL_QSPI_Command>
24000546:	f242 7210 	movw	r2, #10000	@ 0x2710
2400054a:	68b9      	ldr	r1, [r7, #8]
2400054c:	4804      	ldr	r0, [pc, #16]	@ (24000560 <w25qxx_page_program+0x6c>)
2400054e:	f001 f883 	bl	24001658 <HAL_QSPI_Transmit>
24000552:	f7ff fe5b 	bl	2400020c <w25qxx_autopolling_ready>
24000556:	2300      	movs	r3, #0
24000558:	4618      	mov	r0, r3
2400055a:	3748      	adds	r7, #72	@ 0x48
2400055c:	46bd      	mov	sp, r7
2400055e:	bd80      	pop	{r7, pc}
24000560:	2400431c 	.word	0x2400431c

24000564 <w25qxx_write>:
24000564:	b580      	push	{r7, lr}
24000566:	b086      	sub	sp, #24
24000568:	af00      	add	r7, sp, #0
2400056a:	60f8      	str	r0, [r7, #12]
2400056c:	60b9      	str	r1, [r7, #8]
2400056e:	607a      	str	r2, [r7, #4]
24000570:	2300      	movs	r3, #0
24000572:	617b      	str	r3, [r7, #20]
24000574:	68fb      	ldr	r3, [r7, #12]
24000576:	f3c3 0308 	ubfx	r3, r3, #0, #9
2400057a:	f5c3 7300 	rsb	r3, r3, #512	@ 0x200
2400057e:	617b      	str	r3, [r7, #20]
24000580:	687a      	ldr	r2, [r7, #4]
24000582:	697b      	ldr	r3, [r7, #20]
24000584:	429a      	cmp	r2, r3
24000586:	d801      	bhi.n	2400058c <w25qxx_write+0x28>
24000588:	687b      	ldr	r3, [r7, #4]
2400058a:	617b      	str	r3, [r7, #20]
2400058c:	697a      	ldr	r2, [r7, #20]
2400058e:	68b9      	ldr	r1, [r7, #8]
24000590:	68f8      	ldr	r0, [r7, #12]
24000592:	f7ff ffaf 	bl	240004f4 <w25qxx_page_program>
24000596:	687a      	ldr	r2, [r7, #4]
24000598:	697b      	ldr	r3, [r7, #20]
2400059a:	429a      	cmp	r2, r3
2400059c:	d016      	beq.n	240005cc <w25qxx_write+0x68>
2400059e:	68ba      	ldr	r2, [r7, #8]
240005a0:	697b      	ldr	r3, [r7, #20]
240005a2:	4413      	add	r3, r2
240005a4:	60bb      	str	r3, [r7, #8]
240005a6:	68fa      	ldr	r2, [r7, #12]
240005a8:	697b      	ldr	r3, [r7, #20]
240005aa:	4413      	add	r3, r2
240005ac:	60fb      	str	r3, [r7, #12]
240005ae:	687a      	ldr	r2, [r7, #4]
240005b0:	697b      	ldr	r3, [r7, #20]
240005b2:	1ad3      	subs	r3, r2, r3
240005b4:	607b      	str	r3, [r7, #4]
240005b6:	687b      	ldr	r3, [r7, #4]
240005b8:	f5b3 7f00 	cmp.w	r3, #512	@ 0x200
240005bc:	d903      	bls.n	240005c6 <w25qxx_write+0x62>
240005be:	f44f 7300 	mov.w	r3, #512	@ 0x200
240005c2:	617b      	str	r3, [r7, #20]
240005c4:	e7e2      	b.n	2400058c <w25qxx_write+0x28>
240005c6:	687b      	ldr	r3, [r7, #4]
240005c8:	617b      	str	r3, [r7, #20]
240005ca:	e7df      	b.n	2400058c <w25qxx_write+0x28>
240005cc:	bf00      	nop
240005ce:	2300      	movs	r3, #0
240005d0:	4618      	mov	r0, r3
240005d2:	3718      	adds	r7, #24
240005d4:	46bd      	mov	sp, r7
240005d6:	bd80      	pop	{r7, pc}

240005d8 <MX_GPIO_Init>:
240005d8:	b580      	push	{r7, lr}
240005da:	b08c      	sub	sp, #48	@ 0x30
240005dc:	af00      	add	r7, sp, #0
240005de:	f107 031c 	add.w	r3, r7, #28
240005e2:	2200      	movs	r2, #0
240005e4:	601a      	str	r2, [r3, #0]
240005e6:	605a      	str	r2, [r3, #4]
240005e8:	609a      	str	r2, [r3, #8]
240005ea:	60da      	str	r2, [r3, #12]
240005ec:	611a      	str	r2, [r3, #16]
240005ee:	4b38      	ldr	r3, [pc, #224]	@ (240006d0 <MX_GPIO_Init+0xf8>)
240005f0:	f8d3 30e0 	ldr.w	r3, [r3, #224]	@ 0xe0
240005f4:	4a36      	ldr	r2, [pc, #216]	@ (240006d0 <MX_GPIO_Init+0xf8>)
240005f6:	f043 0340 	orr.w	r3, r3, #64	@ 0x40
240005fa:	f8c2 30e0 	str.w	r3, [r2, #224]	@ 0xe0
240005fe:	4b34      	ldr	r3, [pc, #208]	@ (240006d0 <MX_GPIO_Init+0xf8>)
24000600:	f8d3 30e0 	ldr.w	r3, [r3, #224]	@ 0xe0
24000604:	f003 0340 	and.w	r3, r3, #64	@ 0x40
24000608:	61bb      	str	r3, [r7, #24]
2400060a:	69bb      	ldr	r3, [r7, #24]
2400060c:	4b30      	ldr	r3, [pc, #192]	@ (240006d0 <MX_GPIO_Init+0xf8>)
2400060e:	f8d3 30e0 	ldr.w	r3, [r3, #224]	@ 0xe0
24000612:	4a2f      	ldr	r2, [pc, #188]	@ (240006d0 <MX_GPIO_Init+0xf8>)
24000614:	f043 0308 	orr.w	r3, r3, #8
24000618:	f8c2 30e0 	str.w	r3, [r2, #224]	@ 0xe0
2400061c:	4b2c      	ldr	r3, [pc, #176]	@ (240006d0 <MX_GPIO_Init+0xf8>)
2400061e:	f8d3 30e0 	ldr.w	r3, [r3, #224]	@ 0xe0
24000622:	f003 0308 	and.w	r3, r3, #8
24000626:	617b      	str	r3, [r7, #20]
24000628:	697b      	ldr	r3, [r7, #20]
2400062a:	4b29      	ldr	r3, [pc, #164]	@ (240006d0 <MX_GPIO_Init+0xf8>)
2400062c:	f8d3 30e0 	ldr.w	r3, [r3, #224]	@ 0xe0
24000630:	4a27      	ldr	r2, [pc, #156]	@ (240006d0 <MX_GPIO_Init+0xf8>)
24000632:	f043 0304 	orr.w	r3, r3, #4
24000636:	f8c2 30e0 	str.w	r3, [r2, #224]	@ 0xe0
2400063a:	4b25      	ldr	r3, [pc, #148]	@ (240006d0 <MX_GPIO_Init+0xf8>)
2400063c:	f8d3 30e0 	ldr.w	r3, [r3, #224]	@ 0xe0
24000640:	f003 0304 	and.w	r3, r3, #4
24000644:	613b      	str	r3, [r7, #16]
24000646:	693b      	ldr	r3, [r7, #16]
24000648:	4b21      	ldr	r3, [pc, #132]	@ (240006d0 <MX_GPIO_Init+0xf8>)
2400064a:	f8d3 30e0 	ldr.w	r3, [r3, #224]	@ 0xe0
2400064e:	4a20      	ldr	r2, [pc, #128]	@ (240006d0 <MX_GPIO_Init+0xf8>)
24000650:	f043 0380 	orr.w	r3, r3, #128	@ 0x80
24000654:	f8c2 30e0 	str.w	r3, [r2, #224]	@ 0xe0
24000658:	4b1d      	ldr	r3, [pc, #116]	@ (240006d0 <MX_GPIO_Init+0xf8>)
2400065a:	f8d3 30e0 	ldr.w	r3, [r3, #224]	@ 0xe0
2400065e:	f003 0380 	and.w	r3, r3, #128	@ 0x80
24000662:	60fb      	str	r3, [r7, #12]
24000664:	68fb      	ldr	r3, [r7, #12]
24000666:	4b1a      	ldr	r3, [pc, #104]	@ (240006d0 <MX_GPIO_Init+0xf8>)
24000668:	f8d3 30e0 	ldr.w	r3, [r3, #224]	@ 0xe0
2400066c:	4a18      	ldr	r2, [pc, #96]	@ (240006d0 <MX_GPIO_Init+0xf8>)
2400066e:	f043 0320 	orr.w	r3, r3, #32
24000672:	f8c2 30e0 	str.w	r3, [r2, #224]	@ 0xe0
24000676:	4b16      	ldr	r3, [pc, #88]	@ (240006d0 <MX_GPIO_Init+0xf8>)
24000678:	f8d3 30e0 	ldr.w	r3, [r3, #224]	@ 0xe0
2400067c:	f003 0320 	and.w	r3, r3, #32
24000680:	60bb      	str	r3, [r7, #8]
24000682:	68bb      	ldr	r3, [r7, #8]
24000684:	4b12      	ldr	r3, [pc, #72]	@ (240006d0 <MX_GPIO_Init+0xf8>)
24000686:	f8d3 30e0 	ldr.w	r3, [r3, #224]	@ 0xe0
2400068a:	4a11      	ldr	r2, [pc, #68]	@ (240006d0 <MX_GPIO_Init+0xf8>)
2400068c:	f043 0302 	orr.w	r3, r3, #2
24000690:	f8c2 30e0 	str.w	r3, [r2, #224]	@ 0xe0
24000694:	4b0e      	ldr	r3, [pc, #56]	@ (240006d0 <MX_GPIO_Init+0xf8>)
24000696:	f8d3 30e0 	ldr.w	r3, [r3, #224]	@ 0xe0
2400069a:	f003 0302 	and.w	r3, r3, #2
2400069e:	607b      	str	r3, [r7, #4]
240006a0:	687b      	ldr	r3, [r7, #4]
240006a2:	2201      	movs	r2, #1
240006a4:	2130      	movs	r1, #48	@ 0x30
240006a6:	480b      	ldr	r0, [pc, #44]	@ (240006d4 <MX_GPIO_Init+0xfc>)
240006a8:	f000 fe90 	bl	240013cc <HAL_GPIO_WritePin>
240006ac:	2330      	movs	r3, #48	@ 0x30
240006ae:	61fb      	str	r3, [r7, #28]
240006b0:	2301      	movs	r3, #1
240006b2:	623b      	str	r3, [r7, #32]
240006b4:	2300      	movs	r3, #0
240006b6:	627b      	str	r3, [r7, #36]	@ 0x24
240006b8:	2300      	movs	r3, #0
240006ba:	62bb      	str	r3, [r7, #40]	@ 0x28
240006bc:	f107 031c 	add.w	r3, r7, #28
240006c0:	4619      	mov	r1, r3
240006c2:	4804      	ldr	r0, [pc, #16]	@ (240006d4 <MX_GPIO_Init+0xfc>)
240006c4:	f000 fbc8 	bl	24000e58 <HAL_GPIO_Init>
240006c8:	bf00      	nop
240006ca:	3730      	adds	r7, #48	@ 0x30
240006cc:	46bd      	mov	sp, r7
240006ce:	bd80      	pop	{r7, pc}
240006d0:	58024400 	.word	0x58024400
240006d4:	58020c00 	.word	0x58020c00

240006d8 <HAL_InitTick>:
240006d8:	b480      	push	{r7}
240006da:	b083      	sub	sp, #12
240006dc:	af00      	add	r7, sp, #0
240006de:	6078      	str	r0, [r7, #4]
240006e0:	2300      	movs	r3, #0
240006e2:	4618      	mov	r0, r3
240006e4:	370c      	adds	r7, #12
240006e6:	46bd      	mov	sp, r7
240006e8:	f85d 7b04 	ldr.w	r7, [sp], #4
240006ec:	4770      	bx	lr
	...

240006f0 <HAL_GetTick>:
240006f0:	b480      	push	{r7}
240006f2:	b083      	sub	sp, #12
240006f4:	af00      	add	r7, sp, #0
240006f6:	2300      	movs	r3, #0
240006f8:	607b      	str	r3, [r7, #4]
240006fa:	e002      	b.n	24000702 <HAL_GetTick+0x12>
240006fc:	687b      	ldr	r3, [r7, #4]
240006fe:	3301      	adds	r3, #1
24000700:	607b      	str	r3, [r7, #4]
24000702:	687b      	ldr	r3, [r7, #4]
24000704:	f5b3 7f00 	cmp.w	r3, #512	@ 0x200
24000708:	dbf8      	blt.n	240006fc <HAL_GetTick+0xc>
2400070a:	4b06      	ldr	r3, [pc, #24]	@ (24000724 <HAL_GetTick+0x34>)
2400070c:	681b      	ldr	r3, [r3, #0]
2400070e:	3301      	adds	r3, #1
24000710:	4a04      	ldr	r2, [pc, #16]	@ (24000724 <HAL_GetTick+0x34>)
24000712:	6013      	str	r3, [r2, #0]
24000714:	4b03      	ldr	r3, [pc, #12]	@ (24000724 <HAL_GetTick+0x34>)
24000716:	681b      	ldr	r3, [r3, #0]
24000718:	4618      	mov	r0, r3
2400071a:	370c      	adds	r7, #12
2400071c:	46bd      	mov	sp, r7
2400071e:	f85d 7b04 	ldr.w	r7, [sp], #4
24000722:	4770      	bx	lr
24000724:	24004368 	.word	0x24004368

24000728 <SystemClock_Config>:
24000728:	b580      	push	{r7, lr}
2400072a:	b09e      	sub	sp, #120	@ 0x78
2400072c:	af00      	add	r7, sp, #0
2400072e:	f107 032c 	add.w	r3, r7, #44	@ 0x2c
24000732:	224c      	movs	r2, #76	@ 0x4c
24000734:	2100      	movs	r1, #0
24000736:	4618      	mov	r0, r3
24000738:	f003 fdbc 	bl	240042b4 <memset>
2400073c:	f107 030c 	add.w	r3, r7, #12
24000740:	2220      	movs	r2, #32
24000742:	2100      	movs	r1, #0
24000744:	4618      	mov	r0, r3
24000746:	f003 fdb5 	bl	240042b4 <memset>
2400074a:	2002      	movs	r0, #2
2400074c:	f000 fe58 	bl	24001400 <HAL_PWREx_ConfigSupply>
24000750:	2300      	movs	r3, #0
24000752:	60bb      	str	r3, [r7, #8]
24000754:	4b48      	ldr	r3, [pc, #288]	@ (24000878 <SystemClock_Config+0x150>)
24000756:	6adb      	ldr	r3, [r3, #44]	@ 0x2c
24000758:	4a47      	ldr	r2, [pc, #284]	@ (24000878 <SystemClock_Config+0x150>)
2400075a:	f023 0301 	bic.w	r3, r3, #1
2400075e:	62d3      	str	r3, [r2, #44]	@ 0x2c
24000760:	4b45      	ldr	r3, [pc, #276]	@ (24000878 <SystemClock_Config+0x150>)
24000762:	6adb      	ldr	r3, [r3, #44]	@ 0x2c
24000764:	f003 0301 	and.w	r3, r3, #1
24000768:	60bb      	str	r3, [r7, #8]
2400076a:	4b44      	ldr	r3, [pc, #272]	@ (2400087c <SystemClock_Config+0x154>)
2400076c:	699b      	ldr	r3, [r3, #24]
2400076e:	4a43      	ldr	r2, [pc, #268]	@ (2400087c <SystemClock_Config+0x154>)
24000770:	f443 4340 	orr.w	r3, r3, #49152	@ 0xc000
24000774:	6193      	str	r3, [r2, #24]
24000776:	4b41      	ldr	r3, [pc, #260]	@ (2400087c <SystemClock_Config+0x154>)
24000778:	699b      	ldr	r3, [r3, #24]
2400077a:	f403 4340 	and.w	r3, r3, #49152	@ 0xc000
2400077e:	60bb      	str	r3, [r7, #8]
24000780:	68bb      	ldr	r3, [r7, #8]
24000782:	bf00      	nop
24000784:	4b3d      	ldr	r3, [pc, #244]	@ (2400087c <SystemClock_Config+0x154>)
24000786:	699b      	ldr	r3, [r3, #24]
24000788:	f403 5300 	and.w	r3, r3, #8192	@ 0x2000
2400078c:	f5b3 5f00 	cmp.w	r3, #8192	@ 0x2000
24000790:	d1f8      	bne.n	24000784 <SystemClock_Config+0x5c>
24000792:	4b3b      	ldr	r3, [pc, #236]	@ (24000880 <SystemClock_Config+0x158>)
24000794:	f8d3 30f4 	ldr.w	r3, [r3, #244]	@ 0xf4
24000798:	4a39      	ldr	r2, [pc, #228]	@ (24000880 <SystemClock_Config+0x158>)
2400079a:	f043 0302 	orr.w	r3, r3, #2
2400079e:	f8c2 30f4 	str.w	r3, [r2, #244]	@ 0xf4
240007a2:	4b37      	ldr	r3, [pc, #220]	@ (24000880 <SystemClock_Config+0x158>)
240007a4:	f8d3 30f4 	ldr.w	r3, [r3, #244]	@ 0xf4
240007a8:	f003 0302 	and.w	r3, r3, #2
240007ac:	607b      	str	r3, [r7, #4]
240007ae:	687b      	ldr	r3, [r7, #4]
240007b0:	2300      	movs	r3, #0
240007b2:	603b      	str	r3, [r7, #0]
240007b4:	4b31      	ldr	r3, [pc, #196]	@ (2400087c <SystemClock_Config+0x154>)
240007b6:	699b      	ldr	r3, [r3, #24]
240007b8:	4a30      	ldr	r2, [pc, #192]	@ (2400087c <SystemClock_Config+0x154>)
240007ba:	f443 4340 	orr.w	r3, r3, #49152	@ 0xc000
240007be:	6193      	str	r3, [r2, #24]
240007c0:	4b2e      	ldr	r3, [pc, #184]	@ (2400087c <SystemClock_Config+0x154>)
240007c2:	699b      	ldr	r3, [r3, #24]
240007c4:	f403 4340 	and.w	r3, r3, #49152	@ 0xc000
240007c8:	603b      	str	r3, [r7, #0]
240007ca:	4b2b      	ldr	r3, [pc, #172]	@ (24000878 <SystemClock_Config+0x150>)
240007cc:	6adb      	ldr	r3, [r3, #44]	@ 0x2c
240007ce:	4a2a      	ldr	r2, [pc, #168]	@ (24000878 <SystemClock_Config+0x150>)
240007d0:	f043 0301 	orr.w	r3, r3, #1
240007d4:	62d3      	str	r3, [r2, #44]	@ 0x2c
240007d6:	4b28      	ldr	r3, [pc, #160]	@ (24000878 <SystemClock_Config+0x150>)
240007d8:	6adb      	ldr	r3, [r3, #44]	@ 0x2c
240007da:	f003 0301 	and.w	r3, r3, #1
240007de:	603b      	str	r3, [r7, #0]
240007e0:	683b      	ldr	r3, [r7, #0]
240007e2:	bf00      	nop
240007e4:	4b25      	ldr	r3, [pc, #148]	@ (2400087c <SystemClock_Config+0x154>)
240007e6:	699b      	ldr	r3, [r3, #24]
240007e8:	f403 5300 	and.w	r3, r3, #8192	@ 0x2000
240007ec:	f5b3 5f00 	cmp.w	r3, #8192	@ 0x2000
240007f0:	d1f8      	bne.n	240007e4 <SystemClock_Config+0xbc>
240007f2:	2301      	movs	r3, #1
240007f4:	62fb      	str	r3, [r7, #44]	@ 0x2c
240007f6:	f44f 3380 	mov.w	r3, #65536	@ 0x10000
240007fa:	633b      	str	r3, [r7, #48]	@ 0x30
240007fc:	2302      	movs	r3, #2
240007fe:	653b      	str	r3, [r7, #80]	@ 0x50
24000800:	2302      	movs	r3, #2
24000802:	657b      	str	r3, [r7, #84]	@ 0x54
24000804:	2305      	movs	r3, #5
24000806:	65bb      	str	r3, [r7, #88]	@ 0x58
24000808:	23c0      	movs	r3, #192	@ 0xc0
2400080a:	65fb      	str	r3, [r7, #92]	@ 0x5c
2400080c:	2302      	movs	r3, #2
2400080e:	663b      	str	r3, [r7, #96]	@ 0x60
24000810:	2302      	movs	r3, #2
24000812:	667b      	str	r3, [r7, #100]	@ 0x64
24000814:	2302      	movs	r3, #2
24000816:	66bb      	str	r3, [r7, #104]	@ 0x68
24000818:	2308      	movs	r3, #8
2400081a:	66fb      	str	r3, [r7, #108]	@ 0x6c
2400081c:	2300      	movs	r3, #0
2400081e:	673b      	str	r3, [r7, #112]	@ 0x70
24000820:	2300      	movs	r3, #0
24000822:	677b      	str	r3, [r7, #116]	@ 0x74
24000824:	f107 032c 	add.w	r3, r7, #44	@ 0x2c
24000828:	4618      	mov	r0, r3
2400082a:	f001 fa4b 	bl	24001cc4 <HAL_RCC_OscConfig>
2400082e:	4603      	mov	r3, r0
24000830:	2b00      	cmp	r3, #0
24000832:	d001      	beq.n	24000838 <SystemClock_Config+0x110>
24000834:	f000 f826 	bl	24000884 <Error_Handler>
24000838:	233f      	movs	r3, #63	@ 0x3f
2400083a:	60fb      	str	r3, [r7, #12]
2400083c:	2303      	movs	r3, #3
2400083e:	613b      	str	r3, [r7, #16]
24000840:	2300      	movs	r3, #0
24000842:	617b      	str	r3, [r7, #20]
24000844:	2308      	movs	r3, #8
24000846:	61bb      	str	r3, [r7, #24]
24000848:	2340      	movs	r3, #64	@ 0x40
2400084a:	61fb      	str	r3, [r7, #28]
2400084c:	2340      	movs	r3, #64	@ 0x40
2400084e:	623b      	str	r3, [r7, #32]
24000850:	f44f 6380 	mov.w	r3, #1024	@ 0x400
24000854:	627b      	str	r3, [r7, #36]	@ 0x24
24000856:	2340      	movs	r3, #64	@ 0x40
24000858:	62bb      	str	r3, [r7, #40]	@ 0x28
2400085a:	f107 030c 	add.w	r3, r7, #12
2400085e:	2104      	movs	r1, #4
24000860:	4618      	mov	r0, r3
24000862:	f001 fe89 	bl	24002578 <HAL_RCC_ClockConfig>
24000866:	4603      	mov	r3, r0
24000868:	2b00      	cmp	r3, #0
2400086a:	d001      	beq.n	24000870 <SystemClock_Config+0x148>
2400086c:	f000 f80a 	bl	24000884 <Error_Handler>
24000870:	bf00      	nop
24000872:	3778      	adds	r7, #120	@ 0x78
24000874:	46bd      	mov	sp, r7
24000876:	bd80      	pop	{r7, pc}
24000878:	58000400 	.word	0x58000400
2400087c:	58024800 	.word	0x58024800
24000880:	58024400 	.word	0x58024400

24000884 <Error_Handler>:
24000884:	b480      	push	{r7}
24000886:	af00      	add	r7, sp, #0
24000888:	b672      	cpsid	i
2400088a:	bf00      	nop
2400088c:	bf00      	nop
2400088e:	e7fd      	b.n	2400088c <Error_Handler+0x8>

24000890 <MX_QUADSPI_Init>:
24000890:	b580      	push	{r7, lr}
24000892:	af00      	add	r7, sp, #0
24000894:	4b11      	ldr	r3, [pc, #68]	@ (240008dc <MX_QUADSPI_Init+0x4c>)
24000896:	4a12      	ldr	r2, [pc, #72]	@ (240008e0 <MX_QUADSPI_Init+0x50>)
24000898:	601a      	str	r2, [r3, #0]
2400089a:	4b10      	ldr	r3, [pc, #64]	@ (240008dc <MX_QUADSPI_Init+0x4c>)
2400089c:	2203      	movs	r2, #3
2400089e:	605a      	str	r2, [r3, #4]
240008a0:	4b0e      	ldr	r3, [pc, #56]	@ (240008dc <MX_QUADSPI_Init+0x4c>)
240008a2:	2220      	movs	r2, #32
240008a4:	609a      	str	r2, [r3, #8]
240008a6:	4b0d      	ldr	r3, [pc, #52]	@ (240008dc <MX_QUADSPI_Init+0x4c>)
240008a8:	2200      	movs	r2, #0
240008aa:	60da      	str	r2, [r3, #12]
240008ac:	4b0b      	ldr	r3, [pc, #44]	@ (240008dc <MX_QUADSPI_Init+0x4c>)
240008ae:	221b      	movs	r2, #27
240008b0:	611a      	str	r2, [r3, #16]
240008b2:	4b0a      	ldr	r3, [pc, #40]	@ (240008dc <MX_QUADSPI_Init+0x4c>)
240008b4:	f44f 62e0 	mov.w	r2, #1792	@ 0x700
240008b8:	615a      	str	r2, [r3, #20]
240008ba:	4b08      	ldr	r3, [pc, #32]	@ (240008dc <MX_QUADSPI_Init+0x4c>)
240008bc:	2200      	movs	r2, #0
240008be:	619a      	str	r2, [r3, #24]
240008c0:	4b06      	ldr	r3, [pc, #24]	@ (240008dc <MX_QUADSPI_Init+0x4c>)
240008c2:	2240      	movs	r2, #64	@ 0x40
240008c4:	621a      	str	r2, [r3, #32]
240008c6:	4805      	ldr	r0, [pc, #20]	@ (240008dc <MX_QUADSPI_Init+0x4c>)
240008c8:	f000 fdd4 	bl	24001474 <HAL_QSPI_Init>
240008cc:	4603      	mov	r3, r0
240008ce:	2b00      	cmp	r3, #0
240008d0:	d001      	beq.n	240008d6 <MX_QUADSPI_Init+0x46>
240008d2:	f7ff ffd7 	bl	24000884 <Error_Handler>
240008d6:	bf00      	nop
240008d8:	bd80      	pop	{r7, pc}
240008da:	bf00      	nop
240008dc:	2400431c 	.word	0x2400431c
240008e0:	52005000 	.word	0x52005000

240008e4 <HAL_QSPI_MspInit>:
240008e4:	b580      	push	{r7, lr}
240008e6:	b0be      	sub	sp, #248	@ 0xf8
240008e8:	af00      	add	r7, sp, #0
240008ea:	6078      	str	r0, [r7, #4]
240008ec:	f107 03e4 	add.w	r3, r7, #228	@ 0xe4
240008f0:	2200      	movs	r2, #0
240008f2:	601a      	str	r2, [r3, #0]
240008f4:	605a      	str	r2, [r3, #4]
240008f6:	609a      	str	r2, [r3, #8]
240008f8:	60da      	str	r2, [r3, #12]
240008fa:	611a      	str	r2, [r3, #16]
240008fc:	f107 0320 	add.w	r3, r7, #32
24000900:	22c0      	movs	r2, #192	@ 0xc0
24000902:	2100      	movs	r1, #0
24000904:	4618      	mov	r0, r3
24000906:	f003 fcd5 	bl	240042b4 <memset>
2400090a:	687b      	ldr	r3, [r7, #4]
2400090c:	681b      	ldr	r3, [r3, #0]
2400090e:	4a72      	ldr	r2, [pc, #456]	@ (24000ad8 <HAL_QSPI_MspInit+0x1f4>)
24000910:	4293      	cmp	r3, r2
24000912:	f040 80dd 	bne.w	24000ad0 <HAL_QSPI_MspInit+0x1ec>
24000916:	f04f 7200 	mov.w	r2, #33554432	@ 0x2000000
2400091a:	f04f 0300 	mov.w	r3, #0
2400091e:	e9c7 2308 	strd	r2, r3, [r7, #32]
24000922:	2300      	movs	r3, #0
24000924:	66fb      	str	r3, [r7, #108]	@ 0x6c
24000926:	f107 0320 	add.w	r3, r7, #32
2400092a:	4618      	mov	r0, r3
2400092c:	f002 f954 	bl	24002bd8 <HAL_RCCEx_PeriphCLKConfig>
24000930:	4603      	mov	r3, r0
24000932:	2b00      	cmp	r3, #0
24000934:	d001      	beq.n	2400093a <HAL_QSPI_MspInit+0x56>
24000936:	f7ff ffa5 	bl	24000884 <Error_Handler>
2400093a:	4b68      	ldr	r3, [pc, #416]	@ (24000adc <HAL_QSPI_MspInit+0x1f8>)
2400093c:	f8d3 30d4 	ldr.w	r3, [r3, #212]	@ 0xd4
24000940:	4a66      	ldr	r2, [pc, #408]	@ (24000adc <HAL_QSPI_MspInit+0x1f8>)
24000942:	f443 4380 	orr.w	r3, r3, #16384	@ 0x4000
24000946:	f8c2 30d4 	str.w	r3, [r2, #212]	@ 0xd4
2400094a:	4b64      	ldr	r3, [pc, #400]	@ (24000adc <HAL_QSPI_MspInit+0x1f8>)
2400094c:	f8d3 30d4 	ldr.w	r3, [r3, #212]	@ 0xd4
24000950:	f403 4380 	and.w	r3, r3, #16384	@ 0x4000
24000954:	61fb      	str	r3, [r7, #28]
24000956:	69fb      	ldr	r3, [r7, #28]
24000958:	4b60      	ldr	r3, [pc, #384]	@ (24000adc <HAL_QSPI_MspInit+0x1f8>)
2400095a:	f8d3 30e0 	ldr.w	r3, [r3, #224]	@ 0xe0
2400095e:	4a5f      	ldr	r2, [pc, #380]	@ (24000adc <HAL_QSPI_MspInit+0x1f8>)
24000960:	f043 0340 	orr.w	r3, r3, #64	@ 0x40
24000964:	f8c2 30e0 	str.w	r3, [r2, #224]	@ 0xe0
24000968:	4b5c      	ldr	r3, [pc, #368]	@ (24000adc <HAL_QSPI_MspInit+0x1f8>)
2400096a:	f8d3 30e0 	ldr.w	r3, [r3, #224]	@ 0xe0
2400096e:	f003 0340 	and.w	r3, r3, #64	@ 0x40
24000972:	61bb      	str	r3, [r7, #24]
24000974:	69bb      	ldr	r3, [r7, #24]
24000976:	4b59      	ldr	r3, [pc, #356]	@ (24000adc <HAL_QSPI_MspInit+0x1f8>)
24000978:	f8d3 30e0 	ldr.w	r3, [r3, #224]	@ 0xe0
2400097c:	4a57      	ldr	r2, [pc, #348]	@ (24000adc <HAL_QSPI_MspInit+0x1f8>)
2400097e:	f043 0320 	orr.w	r3, r3, #32
24000982:	f8c2 30e0 	str.w	r3, [r2, #224]	@ 0xe0
24000986:	4b55      	ldr	r3, [pc, #340]	@ (24000adc <HAL_QSPI_MspInit+0x1f8>)
24000988:	f8d3 30e0 	ldr.w	r3, [r3, #224]	@ 0xe0
2400098c:	f003 0320 	and.w	r3, r3, #32
24000990:	617b      	str	r3, [r7, #20]
24000992:	697b      	ldr	r3, [r7, #20]
24000994:	4b51      	ldr	r3, [pc, #324]	@ (24000adc <HAL_QSPI_MspInit+0x1f8>)
24000996:	f8d3 30e0 	ldr.w	r3, [r3, #224]	@ 0xe0
2400099a:	4a50      	ldr	r2, [pc, #320]	@ (24000adc <HAL_QSPI_MspInit+0x1f8>)
2400099c:	f043 0380 	orr.w	r3, r3, #128	@ 0x80
240009a0:	f8c2 30e0 	str.w	r3, [r2, #224]	@ 0xe0
240009a4:	4b4d      	ldr	r3, [pc, #308]	@ (24000adc <HAL_QSPI_MspInit+0x1f8>)
240009a6:	f8d3 30e0 	ldr.w	r3, [r3, #224]	@ 0xe0
240009aa:	f003 0380 	and.w	r3, r3, #128	@ 0x80
240009ae:	613b      	str	r3, [r7, #16]
240009b0:	693b      	ldr	r3, [r7, #16]
240009b2:	4b4a      	ldr	r3, [pc, #296]	@ (24000adc <HAL_QSPI_MspInit+0x1f8>)
240009b4:	f8d3 30e0 	ldr.w	r3, [r3, #224]	@ 0xe0
240009b8:	4a48      	ldr	r2, [pc, #288]	@ (24000adc <HAL_QSPI_MspInit+0x1f8>)
240009ba:	f043 0302 	orr.w	r3, r3, #2
240009be:	f8c2 30e0 	str.w	r3, [r2, #224]	@ 0xe0
240009c2:	4b46      	ldr	r3, [pc, #280]	@ (24000adc <HAL_QSPI_MspInit+0x1f8>)
240009c4:	f8d3 30e0 	ldr.w	r3, [r3, #224]	@ 0xe0
240009c8:	f003 0302 	and.w	r3, r3, #2
240009cc:	60fb      	str	r3, [r7, #12]
240009ce:	68fb      	ldr	r3, [r7, #12]
240009d0:	f44f 4384 	mov.w	r3, #16896	@ 0x4200
240009d4:	f8c7 30e4 	str.w	r3, [r7, #228]	@ 0xe4
240009d8:	2302      	movs	r3, #2
240009da:	f8c7 30e8 	str.w	r3, [r7, #232]	@ 0xe8
240009de:	2300      	movs	r3, #0
240009e0:	f8c7 30ec 	str.w	r3, [r7, #236]	@ 0xec
240009e4:	2303      	movs	r3, #3
240009e6:	f8c7 30f0 	str.w	r3, [r7, #240]	@ 0xf0
240009ea:	2309      	movs	r3, #9
240009ec:	f8c7 30f4 	str.w	r3, [r7, #244]	@ 0xf4
240009f0:	f107 03e4 	add.w	r3, r7, #228	@ 0xe4
240009f4:	4619      	mov	r1, r3
240009f6:	483a      	ldr	r0, [pc, #232]	@ (24000ae0 <HAL_QSPI_MspInit+0x1fc>)
240009f8:	f000 fa2e 	bl	24000e58 <HAL_GPIO_Init>
240009fc:	2340      	movs	r3, #64	@ 0x40
240009fe:	f8c7 30e4 	str.w	r3, [r7, #228]	@ 0xe4
24000a02:	2302      	movs	r3, #2
24000a04:	f8c7 30e8 	str.w	r3, [r7, #232]	@ 0xe8
24000a08:	2300      	movs	r3, #0
24000a0a:	f8c7 30ec 	str.w	r3, [r7, #236]	@ 0xec
24000a0e:	2303      	movs	r3, #3
24000a10:	f8c7 30f0 	str.w	r3, [r7, #240]	@ 0xf0
24000a14:	230a      	movs	r3, #10
24000a16:	f8c7 30f4 	str.w	r3, [r7, #244]	@ 0xf4
24000a1a:	f107 03e4 	add.w	r3, r7, #228	@ 0xe4
24000a1e:	4619      	mov	r1, r3
24000a20:	482f      	ldr	r0, [pc, #188]	@ (24000ae0 <HAL_QSPI_MspInit+0x1fc>)
24000a22:	f000 fa19 	bl	24000e58 <HAL_GPIO_Init>
24000a26:	23c0      	movs	r3, #192	@ 0xc0
24000a28:	f8c7 30e4 	str.w	r3, [r7, #228]	@ 0xe4
24000a2c:	2302      	movs	r3, #2
24000a2e:	f8c7 30e8 	str.w	r3, [r7, #232]	@ 0xe8
24000a32:	2300      	movs	r3, #0
24000a34:	f8c7 30ec 	str.w	r3, [r7, #236]	@ 0xec
24000a38:	2303      	movs	r3, #3
24000a3a:	f8c7 30f0 	str.w	r3, [r7, #240]	@ 0xf0
24000a3e:	2309      	movs	r3, #9
24000a40:	f8c7 30f4 	str.w	r3, [r7, #244]	@ 0xf4
24000a44:	f107 03e4 	add.w	r3, r7, #228	@ 0xe4
24000a48:	4619      	mov	r1, r3
24000a4a:	4826      	ldr	r0, [pc, #152]	@ (24000ae4 <HAL_QSPI_MspInit+0x200>)
24000a4c:	f000 fa04 	bl	24000e58 <HAL_GPIO_Init>
24000a50:	f44f 7340 	mov.w	r3, #768	@ 0x300
24000a54:	f8c7 30e4 	str.w	r3, [r7, #228]	@ 0xe4
24000a58:	2302      	movs	r3, #2
24000a5a:	f8c7 30e8 	str.w	r3, [r7, #232]	@ 0xe8
24000a5e:	2300      	movs	r3, #0
24000a60:	f8c7 30ec 	str.w	r3, [r7, #236]	@ 0xec
24000a64:	2303      	movs	r3, #3
24000a66:	f8c7 30f0 	str.w	r3, [r7, #240]	@ 0xf0
24000a6a:	230a      	movs	r3, #10
24000a6c:	f8c7 30f4 	str.w	r3, [r7, #244]	@ 0xf4
24000a70:	f107 03e4 	add.w	r3, r7, #228	@ 0xe4
24000a74:	4619      	mov	r1, r3
24000a76:	481b      	ldr	r0, [pc, #108]	@ (24000ae4 <HAL_QSPI_MspInit+0x200>)
24000a78:	f000 f9ee 	bl	24000e58 <HAL_GPIO_Init>
24000a7c:	230c      	movs	r3, #12
24000a7e:	f8c7 30e4 	str.w	r3, [r7, #228]	@ 0xe4
24000a82:	2302      	movs	r3, #2
24000a84:	f8c7 30e8 	str.w	r3, [r7, #232]	@ 0xe8
24000a88:	2300      	movs	r3, #0
24000a8a:	f8c7 30ec 	str.w	r3, [r7, #236]	@ 0xec
24000a8e:	2303      	movs	r3, #3
24000a90:	f8c7 30f0 	str.w	r3, [r7, #240]	@ 0xf0
24000a94:	2309      	movs	r3, #9
24000a96:	f8c7 30f4 	str.w	r3, [r7, #244]	@ 0xf4
24000a9a:	f107 03e4 	add.w	r3, r7, #228	@ 0xe4
24000a9e:	4619      	mov	r1, r3
24000aa0:	4811      	ldr	r0, [pc, #68]	@ (24000ae8 <HAL_QSPI_MspInit+0x204>)
24000aa2:	f000 f9d9 	bl	24000e58 <HAL_GPIO_Init>
24000aa6:	2304      	movs	r3, #4
24000aa8:	f8c7 30e4 	str.w	r3, [r7, #228]	@ 0xe4
24000aac:	2302      	movs	r3, #2
24000aae:	f8c7 30e8 	str.w	r3, [r7, #232]	@ 0xe8
24000ab2:	2300      	movs	r3, #0
24000ab4:	f8c7 30ec 	str.w	r3, [r7, #236]	@ 0xec
24000ab8:	2303      	movs	r3, #3
24000aba:	f8c7 30f0 	str.w	r3, [r7, #240]	@ 0xf0
24000abe:	2309      	movs	r3, #9
24000ac0:	f8c7 30f4 	str.w	r3, [r7, #244]	@ 0xf4
24000ac4:	f107 03e4 	add.w	r3, r7, #228	@ 0xe4
24000ac8:	4619      	mov	r1, r3
24000aca:	4808      	ldr	r0, [pc, #32]	@ (24000aec <HAL_QSPI_MspInit+0x208>)
24000acc:	f000 f9c4 	bl	24000e58 <HAL_GPIO_Init>
24000ad0:	bf00      	nop
24000ad2:	37f8      	adds	r7, #248	@ 0xf8
24000ad4:	46bd      	mov	sp, r7
24000ad6:	bd80      	pop	{r7, pc}
24000ad8:	52005000 	.word	0x52005000
24000adc:	58024400 	.word	0x58024400
24000ae0:	58021800 	.word	0x58021800
24000ae4:	58021400 	.word	0x58021400
24000ae8:	58021c00 	.word	0x58021c00
24000aec:	58020400 	.word	0x58020400

24000af0 <HAL_QSPI_MspDeInit>:
24000af0:	b580      	push	{r7, lr}
24000af2:	b082      	sub	sp, #8
24000af4:	af00      	add	r7, sp, #0
24000af6:	6078      	str	r0, [r7, #4]
24000af8:	687b      	ldr	r3, [r7, #4]
24000afa:	681b      	ldr	r3, [r3, #0]
24000afc:	4a10      	ldr	r2, [pc, #64]	@ (24000b40 <HAL_QSPI_MspDeInit+0x50>)
24000afe:	4293      	cmp	r3, r2
24000b00:	d119      	bne.n	24000b36 <HAL_QSPI_MspDeInit+0x46>
24000b02:	4b10      	ldr	r3, [pc, #64]	@ (24000b44 <HAL_QSPI_MspDeInit+0x54>)
24000b04:	f8d3 30d4 	ldr.w	r3, [r3, #212]	@ 0xd4
24000b08:	4a0e      	ldr	r2, [pc, #56]	@ (24000b44 <HAL_QSPI_MspDeInit+0x54>)
24000b0a:	f423 4380 	bic.w	r3, r3, #16384	@ 0x4000
24000b0e:	f8c2 30d4 	str.w	r3, [r2, #212]	@ 0xd4
24000b12:	f244 2140 	movw	r1, #16960	@ 0x4240
24000b16:	480c      	ldr	r0, [pc, #48]	@ (24000b48 <HAL_QSPI_MspDeInit+0x58>)
24000b18:	f000 fb4e 	bl	240011b8 <HAL_GPIO_DeInit>
24000b1c:	f44f 7170 	mov.w	r1, #960	@ 0x3c0
24000b20:	480a      	ldr	r0, [pc, #40]	@ (24000b4c <HAL_QSPI_MspDeInit+0x5c>)
24000b22:	f000 fb49 	bl	240011b8 <HAL_GPIO_DeInit>
24000b26:	210c      	movs	r1, #12
24000b28:	4809      	ldr	r0, [pc, #36]	@ (24000b50 <HAL_QSPI_MspDeInit+0x60>)
24000b2a:	f000 fb45 	bl	240011b8 <HAL_GPIO_DeInit>
24000b2e:	2104      	movs	r1, #4
24000b30:	4808      	ldr	r0, [pc, #32]	@ (24000b54 <HAL_QSPI_MspDeInit+0x64>)
24000b32:	f000 fb41 	bl	240011b8 <HAL_GPIO_DeInit>
24000b36:	bf00      	nop
24000b38:	3708      	adds	r7, #8
24000b3a:	46bd      	mov	sp, r7
24000b3c:	bd80      	pop	{r7, pc}
24000b3e:	bf00      	nop
24000b40:	52005000 	.word	0x52005000
24000b44:	58024400 	.word	0x58024400
24000b48:	58021800 	.word	0x58021800
24000b4c:	58021400 	.word	0x58021400
24000b50:	58021c00 	.word	0x58021c00
24000b54:	58020400 	.word	0x58020400

24000b58 <HAL_MspInit>:
24000b58:	b480      	push	{r7}
24000b5a:	b083      	sub	sp, #12
24000b5c:	af00      	add	r7, sp, #0
24000b5e:	4b0a      	ldr	r3, [pc, #40]	@ (24000b88 <HAL_MspInit+0x30>)
24000b60:	f8d3 30f4 	ldr.w	r3, [r3, #244]	@ 0xf4
24000b64:	4a08      	ldr	r2, [pc, #32]	@ (24000b88 <HAL_MspInit+0x30>)
24000b66:	f043 0302 	orr.w	r3, r3, #2
24000b6a:	f8c2 30f4 	str.w	r3, [r2, #244]	@ 0xf4
24000b6e:	4b06      	ldr	r3, [pc, #24]	@ (24000b88 <HAL_MspInit+0x30>)
24000b70:	f8d3 30f4 	ldr.w	r3, [r3, #244]	@ 0xf4
24000b74:	f003 0302 	and.w	r3, r3, #2
24000b78:	607b      	str	r3, [r7, #4]
24000b7a:	687b      	ldr	r3, [r7, #4]
24000b7c:	bf00      	nop
24000b7e:	370c      	adds	r7, #12
24000b80:	46bd      	mov	sp, r7
24000b82:	f85d 7b04 	ldr.w	r7, [sp], #4
24000b86:	4770      	bx	lr
24000b88:	58024400 	.word	0x58024400

24000b8c <SystemInit>:
24000b8c:	b480      	push	{r7}
24000b8e:	af00      	add	r7, sp, #0
24000b90:	4b37      	ldr	r3, [pc, #220]	@ (24000c70 <SystemInit+0xe4>)
24000b92:	f8d3 3088 	ldr.w	r3, [r3, #136]	@ 0x88
24000b96:	4a36      	ldr	r2, [pc, #216]	@ (24000c70 <SystemInit+0xe4>)
24000b98:	f443 0370 	orr.w	r3, r3, #15728640	@ 0xf00000
24000b9c:	f8c2 3088 	str.w	r3, [r2, #136]	@ 0x88
24000ba0:	4b34      	ldr	r3, [pc, #208]	@ (24000c74 <SystemInit+0xe8>)
24000ba2:	681b      	ldr	r3, [r3, #0]
24000ba4:	f003 030f 	and.w	r3, r3, #15
24000ba8:	2b06      	cmp	r3, #6
24000baa:	d807      	bhi.n	24000bbc <SystemInit+0x30>
24000bac:	4b31      	ldr	r3, [pc, #196]	@ (24000c74 <SystemInit+0xe8>)
24000bae:	681b      	ldr	r3, [r3, #0]
24000bb0:	f023 030f 	bic.w	r3, r3, #15
24000bb4:	4a2f      	ldr	r2, [pc, #188]	@ (24000c74 <SystemInit+0xe8>)
24000bb6:	f043 0307 	orr.w	r3, r3, #7
24000bba:	6013      	str	r3, [r2, #0]
24000bbc:	4b2e      	ldr	r3, [pc, #184]	@ (24000c78 <SystemInit+0xec>)
24000bbe:	681b      	ldr	r3, [r3, #0]
24000bc0:	4a2d      	ldr	r2, [pc, #180]	@ (24000c78 <SystemInit+0xec>)
24000bc2:	f043 0301 	orr.w	r3, r3, #1
24000bc6:	6013      	str	r3, [r2, #0]
24000bc8:	4b2b      	ldr	r3, [pc, #172]	@ (24000c78 <SystemInit+0xec>)
24000bca:	2200      	movs	r2, #0
24000bcc:	611a      	str	r2, [r3, #16]
24000bce:	4b2a      	ldr	r3, [pc, #168]	@ (24000c78 <SystemInit+0xec>)
24000bd0:	681a      	ldr	r2, [r3, #0]
24000bd2:	4929      	ldr	r1, [pc, #164]	@ (24000c78 <SystemInit+0xec>)
24000bd4:	4b29      	ldr	r3, [pc, #164]	@ (24000c7c <SystemInit+0xf0>)
24000bd6:	4013      	ands	r3, r2
24000bd8:	600b      	str	r3, [r1, #0]
24000bda:	4b26      	ldr	r3, [pc, #152]	@ (24000c74 <SystemInit+0xe8>)
24000bdc:	681b      	ldr	r3, [r3, #0]
24000bde:	f003 0308 	and.w	r3, r3, #8
24000be2:	2b00      	cmp	r3, #0
24000be4:	d007      	beq.n	24000bf6 <SystemInit+0x6a>
24000be6:	4b23      	ldr	r3, [pc, #140]	@ (24000c74 <SystemInit+0xe8>)
24000be8:	681b      	ldr	r3, [r3, #0]
24000bea:	f023 030f 	bic.w	r3, r3, #15
24000bee:	4a21      	ldr	r2, [pc, #132]	@ (24000c74 <SystemInit+0xe8>)
24000bf0:	f043 0307 	orr.w	r3, r3, #7
24000bf4:	6013      	str	r3, [r2, #0]
24000bf6:	4b20      	ldr	r3, [pc, #128]	@ (24000c78 <SystemInit+0xec>)
24000bf8:	2200      	movs	r2, #0
24000bfa:	619a      	str	r2, [r3, #24]
24000bfc:	4b1e      	ldr	r3, [pc, #120]	@ (24000c78 <SystemInit+0xec>)
24000bfe:	2200      	movs	r2, #0
24000c00:	61da      	str	r2, [r3, #28]
24000c02:	4b1d      	ldr	r3, [pc, #116]	@ (24000c78 <SystemInit+0xec>)
24000c04:	2200      	movs	r2, #0
24000c06:	621a      	str	r2, [r3, #32]
24000c08:	4b1b      	ldr	r3, [pc, #108]	@ (24000c78 <SystemInit+0xec>)
24000c0a:	4a1d      	ldr	r2, [pc, #116]	@ (24000c80 <SystemInit+0xf4>)
24000c0c:	629a      	str	r2, [r3, #40]	@ 0x28
24000c0e:	4b1a      	ldr	r3, [pc, #104]	@ (24000c78 <SystemInit+0xec>)
24000c10:	4a1c      	ldr	r2, [pc, #112]	@ (24000c84 <SystemInit+0xf8>)
24000c12:	62da      	str	r2, [r3, #44]	@ 0x2c
24000c14:	4b18      	ldr	r3, [pc, #96]	@ (24000c78 <SystemInit+0xec>)
24000c16:	4a1c      	ldr	r2, [pc, #112]	@ (24000c88 <SystemInit+0xfc>)
24000c18:	631a      	str	r2, [r3, #48]	@ 0x30
24000c1a:	4b17      	ldr	r3, [pc, #92]	@ (24000c78 <SystemInit+0xec>)
24000c1c:	2200      	movs	r2, #0
24000c1e:	635a      	str	r2, [r3, #52]	@ 0x34
24000c20:	4b15      	ldr	r3, [pc, #84]	@ (24000c78 <SystemInit+0xec>)
24000c22:	4a19      	ldr	r2, [pc, #100]	@ (24000c88 <SystemInit+0xfc>)
24000c24:	639a      	str	r2, [r3, #56]	@ 0x38
24000c26:	4b14      	ldr	r3, [pc, #80]	@ (24000c78 <SystemInit+0xec>)
24000c28:	2200      	movs	r2, #0
24000c2a:	63da      	str	r2, [r3, #60]	@ 0x3c
24000c2c:	4b12      	ldr	r3, [pc, #72]	@ (24000c78 <SystemInit+0xec>)
24000c2e:	4a16      	ldr	r2, [pc, #88]	@ (24000c88 <SystemInit+0xfc>)
24000c30:	641a      	str	r2, [r3, #64]	@ 0x40
24000c32:	4b11      	ldr	r3, [pc, #68]	@ (24000c78 <SystemInit+0xec>)
24000c34:	2200      	movs	r2, #0
24000c36:	645a      	str	r2, [r3, #68]	@ 0x44
24000c38:	4b0f      	ldr	r3, [pc, #60]	@ (24000c78 <SystemInit+0xec>)
24000c3a:	681b      	ldr	r3, [r3, #0]
24000c3c:	4a0e      	ldr	r2, [pc, #56]	@ (24000c78 <SystemInit+0xec>)
24000c3e:	f423 2380 	bic.w	r3, r3, #262144	@ 0x40000
24000c42:	6013      	str	r3, [r2, #0]
24000c44:	4b0c      	ldr	r3, [pc, #48]	@ (24000c78 <SystemInit+0xec>)
24000c46:	2200      	movs	r2, #0
24000c48:	661a      	str	r2, [r3, #96]	@ 0x60
24000c4a:	4b10      	ldr	r3, [pc, #64]	@ (24000c8c <SystemInit+0x100>)
24000c4c:	681a      	ldr	r2, [r3, #0]
24000c4e:	4b10      	ldr	r3, [pc, #64]	@ (24000c90 <SystemInit+0x104>)
24000c50:	4013      	ands	r3, r2
24000c52:	f1b3 5f00 	cmp.w	r3, #536870912	@ 0x20000000
24000c56:	d202      	bcs.n	24000c5e <SystemInit+0xd2>
24000c58:	4b0e      	ldr	r3, [pc, #56]	@ (24000c94 <SystemInit+0x108>)
24000c5a:	2201      	movs	r2, #1
24000c5c:	601a      	str	r2, [r3, #0]
24000c5e:	4b0e      	ldr	r3, [pc, #56]	@ (24000c98 <SystemInit+0x10c>)
24000c60:	f243 02d2 	movw	r2, #12498	@ 0x30d2
24000c64:	601a      	str	r2, [r3, #0]
24000c66:	bf00      	nop
24000c68:	46bd      	mov	sp, r7
24000c6a:	f85d 7b04 	ldr.w	r7, [sp], #4
24000c6e:	4770      	bx	lr
24000c70:	e000ed00 	.word	0xe000ed00
24000c74:	52002000 	.word	0x52002000
24000c78:	58024400 	.word	0x58024400
24000c7c:	eaf6ed7f 	.word	0xeaf6ed7f
24000c80:	02020200 	.word	0x02020200
24000c84:	01ff0000 	.word	0x01ff0000
24000c88:	01010280 	.word	0x01010280
24000c8c:	5c001000 	.word	0x5c001000
24000c90:	ffff0000 	.word	0xffff0000
24000c94:	51008108 	.word	0x51008108
24000c98:	52004000 	.word	0x52004000

24000c9c <HAL_Init>:
24000c9c:	b580      	push	{r7, lr}
24000c9e:	b082      	sub	sp, #8
24000ca0:	af00      	add	r7, sp, #0
24000ca2:	2003      	movs	r0, #3
24000ca4:	f000 f8cc 	bl	24000e40 <HAL_NVIC_SetPriorityGrouping>
24000ca8:	f001 fe1c 	bl	240028e4 <HAL_RCC_GetSysClockFreq>
24000cac:	4602      	mov	r2, r0
24000cae:	4b15      	ldr	r3, [pc, #84]	@ (24000d04 <HAL_Init+0x68>)
24000cb0:	699b      	ldr	r3, [r3, #24]
24000cb2:	0a1b      	lsrs	r3, r3, #8
24000cb4:	f003 030f 	and.w	r3, r3, #15
24000cb8:	4913      	ldr	r1, [pc, #76]	@ (24000d08 <HAL_Init+0x6c>)
24000cba:	5ccb      	ldrb	r3, [r1, r3]
24000cbc:	f003 031f 	and.w	r3, r3, #31
24000cc0:	fa22 f303 	lsr.w	r3, r2, r3
24000cc4:	607b      	str	r3, [r7, #4]
24000cc6:	4b0f      	ldr	r3, [pc, #60]	@ (24000d04 <HAL_Init+0x68>)
24000cc8:	699b      	ldr	r3, [r3, #24]
24000cca:	f003 030f 	and.w	r3, r3, #15
24000cce:	4a0e      	ldr	r2, [pc, #56]	@ (24000d08 <HAL_Init+0x6c>)
24000cd0:	5cd3      	ldrb	r3, [r2, r3]
24000cd2:	f003 031f 	and.w	r3, r3, #31
24000cd6:	687a      	ldr	r2, [r7, #4]
24000cd8:	fa22 f303 	lsr.w	r3, r2, r3
24000cdc:	4a0b      	ldr	r2, [pc, #44]	@ (24000d0c <HAL_Init+0x70>)
24000cde:	6013      	str	r3, [r2, #0]
24000ce0:	4a0b      	ldr	r2, [pc, #44]	@ (24000d10 <HAL_Init+0x74>)
24000ce2:	687b      	ldr	r3, [r7, #4]
24000ce4:	6013      	str	r3, [r2, #0]
24000ce6:	200f      	movs	r0, #15
24000ce8:	f7ff fcf6 	bl	240006d8 <HAL_InitTick>
24000cec:	4603      	mov	r3, r0
24000cee:	2b00      	cmp	r3, #0
24000cf0:	d001      	beq.n	24000cf6 <HAL_Init+0x5a>
24000cf2:	2301      	movs	r3, #1
24000cf4:	e002      	b.n	24000cfc <HAL_Init+0x60>
24000cf6:	f7ff ff2f 	bl	24000b58 <HAL_MspInit>
24000cfa:	2300      	movs	r3, #0
24000cfc:	4618      	mov	r0, r3
24000cfe:	3708      	adds	r7, #8
24000d00:	46bd      	mov	sp, r7
24000d02:	bd80      	pop	{r7, pc}
24000d04:	58024400 	.word	0x58024400
24000d08:	240042dc 	.word	0x240042dc
24000d0c:	240042f8 	.word	0x240042f8
24000d10:	240042f4 	.word	0x240042f4

24000d14 <HAL_DeInit>:
24000d14:	b580      	push	{r7, lr}
24000d16:	af00      	add	r7, sp, #0
24000d18:	4b26      	ldr	r3, [pc, #152]	@ (24000db4 <HAL_DeInit+0xa0>)
24000d1a:	4a27      	ldr	r2, [pc, #156]	@ (24000db8 <HAL_DeInit+0xa4>)
24000d1c:	67da      	str	r2, [r3, #124]	@ 0x7c
24000d1e:	4b25      	ldr	r3, [pc, #148]	@ (24000db4 <HAL_DeInit+0xa0>)
24000d20:	2200      	movs	r2, #0
24000d22:	67da      	str	r2, [r3, #124]	@ 0x7c
24000d24:	4b23      	ldr	r3, [pc, #140]	@ (24000db4 <HAL_DeInit+0xa0>)
24000d26:	4a25      	ldr	r2, [pc, #148]	@ (24000dbc <HAL_DeInit+0xa8>)
24000d28:	f8c3 2080 	str.w	r2, [r3, #128]	@ 0x80
24000d2c:	4b21      	ldr	r3, [pc, #132]	@ (24000db4 <HAL_DeInit+0xa0>)
24000d2e:	2200      	movs	r2, #0
24000d30:	f8c3 2080 	str.w	r2, [r3, #128]	@ 0x80
24000d34:	4b1f      	ldr	r3, [pc, #124]	@ (24000db4 <HAL_DeInit+0xa0>)
24000d36:	f240 2271 	movw	r2, #625	@ 0x271
24000d3a:	f8c3 2084 	str.w	r2, [r3, #132]	@ 0x84
24000d3e:	4b1d      	ldr	r3, [pc, #116]	@ (24000db4 <HAL_DeInit+0xa0>)
24000d40:	2200      	movs	r2, #0
24000d42:	f8c3 2084 	str.w	r2, [r3, #132]	@ 0x84
24000d46:	4b1b      	ldr	r3, [pc, #108]	@ (24000db4 <HAL_DeInit+0xa0>)
24000d48:	4a1d      	ldr	r2, [pc, #116]	@ (24000dc0 <HAL_DeInit+0xac>)
24000d4a:	f8c3 2088 	str.w	r2, [r3, #136]	@ 0x88
24000d4e:	4b19      	ldr	r3, [pc, #100]	@ (24000db4 <HAL_DeInit+0xa0>)
24000d50:	2200      	movs	r2, #0
24000d52:	f8c3 2088 	str.w	r2, [r3, #136]	@ 0x88
24000d56:	4b17      	ldr	r3, [pc, #92]	@ (24000db4 <HAL_DeInit+0xa0>)
24000d58:	2218      	movs	r2, #24
24000d5a:	f8c3 208c 	str.w	r2, [r3, #140]	@ 0x8c
24000d5e:	4b15      	ldr	r3, [pc, #84]	@ (24000db4 <HAL_DeInit+0xa0>)
24000d60:	2200      	movs	r2, #0
24000d62:	f8c3 208c 	str.w	r2, [r3, #140]	@ 0x8c
24000d66:	4b13      	ldr	r3, [pc, #76]	@ (24000db4 <HAL_DeInit+0xa0>)
24000d68:	4a16      	ldr	r2, [pc, #88]	@ (24000dc4 <HAL_DeInit+0xb0>)
24000d6a:	f8c3 2090 	str.w	r2, [r3, #144]	@ 0x90
24000d6e:	4b11      	ldr	r3, [pc, #68]	@ (24000db4 <HAL_DeInit+0xa0>)
24000d70:	2200      	movs	r2, #0
24000d72:	f8c3 2090 	str.w	r2, [r3, #144]	@ 0x90
24000d76:	4b0f      	ldr	r3, [pc, #60]	@ (24000db4 <HAL_DeInit+0xa0>)
24000d78:	f44f 729b 	mov.w	r2, #310	@ 0x136
24000d7c:	f8c3 2094 	str.w	r2, [r3, #148]	@ 0x94
24000d80:	4b0c      	ldr	r3, [pc, #48]	@ (24000db4 <HAL_DeInit+0xa0>)
24000d82:	2200      	movs	r2, #0
24000d84:	f8c3 2094 	str.w	r2, [r3, #148]	@ 0x94
24000d88:	4b0a      	ldr	r3, [pc, #40]	@ (24000db4 <HAL_DeInit+0xa0>)
24000d8a:	4a0f      	ldr	r2, [pc, #60]	@ (24000dc8 <HAL_DeInit+0xb4>)
24000d8c:	f8c3 2098 	str.w	r2, [r3, #152]	@ 0x98
24000d90:	4b08      	ldr	r3, [pc, #32]	@ (24000db4 <HAL_DeInit+0xa0>)
24000d92:	2200      	movs	r2, #0
24000d94:	f8c3 2098 	str.w	r2, [r3, #152]	@ 0x98
24000d98:	4b06      	ldr	r3, [pc, #24]	@ (24000db4 <HAL_DeInit+0xa0>)
24000d9a:	4a0c      	ldr	r2, [pc, #48]	@ (24000dcc <HAL_DeInit+0xb8>)
24000d9c:	f8c3 209c 	str.w	r2, [r3, #156]	@ 0x9c
24000da0:	4b04      	ldr	r3, [pc, #16]	@ (24000db4 <HAL_DeInit+0xa0>)
24000da2:	2200      	movs	r2, #0
24000da4:	f8c3 209c 	str.w	r2, [r3, #156]	@ 0x9c
24000da8:	f000 f812 	bl	24000dd0 <HAL_MspDeInit>
24000dac:	2300      	movs	r3, #0
24000dae:	4618      	mov	r0, r3
24000db0:	bd80      	pop	{r7, pc}
24000db2:	bf00      	nop
24000db4:	58024400 	.word	0x58024400
24000db8:	00015031 	.word	0x00015031
24000dbc:	0a00c023 	.word	0x0a00c023
24000dc0:	032807ff 	.word	0x032807ff
24000dc4:	e8ffc3ff 	.word	0xe8ffc3ff
24000dc8:	31d73033 	.word	0x31d73033
24000dcc:	0020deaa 	.word	0x0020deaa

24000dd0 <HAL_MspDeInit>:
24000dd0:	b480      	push	{r7}
24000dd2:	af00      	add	r7, sp, #0
24000dd4:	bf00      	nop
24000dd6:	46bd      	mov	sp, r7
24000dd8:	f85d 7b04 	ldr.w	r7, [sp], #4
24000ddc:	4770      	bx	lr
	...

24000de0 <HAL_GetREVID>:
24000de0:	b480      	push	{r7}
24000de2:	af00      	add	r7, sp, #0
24000de4:	4b03      	ldr	r3, [pc, #12]	@ (24000df4 <HAL_GetREVID+0x14>)
24000de6:	681b      	ldr	r3, [r3, #0]
24000de8:	0c1b      	lsrs	r3, r3, #16
24000dea:	4618      	mov	r0, r3
24000dec:	46bd      	mov	sp, r7
24000dee:	f85d 7b04 	ldr.w	r7, [sp], #4
24000df2:	4770      	bx	lr
24000df4:	5c001000 	.word	0x5c001000

24000df8 <__NVIC_SetPriorityGrouping>:
24000df8:	b480      	push	{r7}
24000dfa:	b085      	sub	sp, #20
24000dfc:	af00      	add	r7, sp, #0
24000dfe:	6078      	str	r0, [r7, #4]
24000e00:	687b      	ldr	r3, [r7, #4]
24000e02:	f003 0307 	and.w	r3, r3, #7
24000e06:	60fb      	str	r3, [r7, #12]
24000e08:	4b0b      	ldr	r3, [pc, #44]	@ (24000e38 <__NVIC_SetPriorityGrouping+0x40>)
24000e0a:	68db      	ldr	r3, [r3, #12]
24000e0c:	60bb      	str	r3, [r7, #8]
24000e0e:	68ba      	ldr	r2, [r7, #8]
24000e10:	f64f 03ff 	movw	r3, #63743	@ 0xf8ff
24000e14:	4013      	ands	r3, r2
24000e16:	60bb      	str	r3, [r7, #8]
24000e18:	68fb      	ldr	r3, [r7, #12]
24000e1a:	021a      	lsls	r2, r3, #8
24000e1c:	68bb      	ldr	r3, [r7, #8]
24000e1e:	431a      	orrs	r2, r3
24000e20:	4b06      	ldr	r3, [pc, #24]	@ (24000e3c <__NVIC_SetPriorityGrouping+0x44>)
24000e22:	4313      	orrs	r3, r2
24000e24:	60bb      	str	r3, [r7, #8]
24000e26:	4a04      	ldr	r2, [pc, #16]	@ (24000e38 <__NVIC_SetPriorityGrouping+0x40>)
24000e28:	68bb      	ldr	r3, [r7, #8]
24000e2a:	60d3      	str	r3, [r2, #12]
24000e2c:	bf00      	nop
24000e2e:	3714      	adds	r7, #20
24000e30:	46bd      	mov	sp, r7
24000e32:	f85d 7b04 	ldr.w	r7, [sp], #4
24000e36:	4770      	bx	lr
24000e38:	e000ed00 	.word	0xe000ed00
24000e3c:	05fa0000 	.word	0x05fa0000

24000e40 <HAL_NVIC_SetPriorityGrouping>:
24000e40:	b580      	push	{r7, lr}
24000e42:	b082      	sub	sp, #8
24000e44:	af00      	add	r7, sp, #0
24000e46:	6078      	str	r0, [r7, #4]
24000e48:	6878      	ldr	r0, [r7, #4]
24000e4a:	f7ff ffd5 	bl	24000df8 <__NVIC_SetPriorityGrouping>
24000e4e:	bf00      	nop
24000e50:	3708      	adds	r7, #8
24000e52:	46bd      	mov	sp, r7
24000e54:	bd80      	pop	{r7, pc}
	...

24000e58 <HAL_GPIO_Init>:
24000e58:	b480      	push	{r7}
24000e5a:	b089      	sub	sp, #36	@ 0x24
24000e5c:	af00      	add	r7, sp, #0
24000e5e:	6078      	str	r0, [r7, #4]
24000e60:	6039      	str	r1, [r7, #0]
24000e62:	2300      	movs	r3, #0
24000e64:	61fb      	str	r3, [r7, #28]
24000e66:	4b89      	ldr	r3, [pc, #548]	@ (2400108c <HAL_GPIO_Init+0x234>)
24000e68:	617b      	str	r3, [r7, #20]
24000e6a:	e194      	b.n	24001196 <HAL_GPIO_Init+0x33e>
24000e6c:	683b      	ldr	r3, [r7, #0]
24000e6e:	681a      	ldr	r2, [r3, #0]
24000e70:	2101      	movs	r1, #1
24000e72:	69fb      	ldr	r3, [r7, #28]
24000e74:	fa01 f303 	lsl.w	r3, r1, r3
24000e78:	4013      	ands	r3, r2
24000e7a:	613b      	str	r3, [r7, #16]
24000e7c:	693b      	ldr	r3, [r7, #16]
24000e7e:	2b00      	cmp	r3, #0
24000e80:	f000 8186 	beq.w	24001190 <HAL_GPIO_Init+0x338>
24000e84:	683b      	ldr	r3, [r7, #0]
24000e86:	685b      	ldr	r3, [r3, #4]
24000e88:	f003 0303 	and.w	r3, r3, #3
24000e8c:	2b01      	cmp	r3, #1
24000e8e:	d005      	beq.n	24000e9c <HAL_GPIO_Init+0x44>
24000e90:	683b      	ldr	r3, [r7, #0]
24000e92:	685b      	ldr	r3, [r3, #4]
24000e94:	f003 0303 	and.w	r3, r3, #3
24000e98:	2b02      	cmp	r3, #2
24000e9a:	d130      	bne.n	24000efe <HAL_GPIO_Init+0xa6>
24000e9c:	687b      	ldr	r3, [r7, #4]
24000e9e:	689b      	ldr	r3, [r3, #8]
24000ea0:	61bb      	str	r3, [r7, #24]
24000ea2:	69fb      	ldr	r3, [r7, #28]
24000ea4:	005b      	lsls	r3, r3, #1
24000ea6:	2203      	movs	r2, #3
24000ea8:	fa02 f303 	lsl.w	r3, r2, r3
24000eac:	43db      	mvns	r3, r3
24000eae:	69ba      	ldr	r2, [r7, #24]
24000eb0:	4013      	ands	r3, r2
24000eb2:	61bb      	str	r3, [r7, #24]
24000eb4:	683b      	ldr	r3, [r7, #0]
24000eb6:	68da      	ldr	r2, [r3, #12]
24000eb8:	69fb      	ldr	r3, [r7, #28]
24000eba:	005b      	lsls	r3, r3, #1
24000ebc:	fa02 f303 	lsl.w	r3, r2, r3
24000ec0:	69ba      	ldr	r2, [r7, #24]
24000ec2:	4313      	orrs	r3, r2
24000ec4:	61bb      	str	r3, [r7, #24]
24000ec6:	687b      	ldr	r3, [r7, #4]
24000ec8:	69ba      	ldr	r2, [r7, #24]
24000eca:	609a      	str	r2, [r3, #8]
24000ecc:	687b      	ldr	r3, [r7, #4]
24000ece:	685b      	ldr	r3, [r3, #4]
24000ed0:	61bb      	str	r3, [r7, #24]
24000ed2:	2201      	movs	r2, #1
24000ed4:	69fb      	ldr	r3, [r7, #28]
24000ed6:	fa02 f303 	lsl.w	r3, r2, r3
24000eda:	43db      	mvns	r3, r3
24000edc:	69ba      	ldr	r2, [r7, #24]
24000ede:	4013      	ands	r3, r2
24000ee0:	61bb      	str	r3, [r7, #24]
24000ee2:	683b      	ldr	r3, [r7, #0]
24000ee4:	685b      	ldr	r3, [r3, #4]
24000ee6:	091b      	lsrs	r3, r3, #4
24000ee8:	f003 0201 	and.w	r2, r3, #1
24000eec:	69fb      	ldr	r3, [r7, #28]
24000eee:	fa02 f303 	lsl.w	r3, r2, r3
24000ef2:	69ba      	ldr	r2, [r7, #24]
24000ef4:	4313      	orrs	r3, r2
24000ef6:	61bb      	str	r3, [r7, #24]
24000ef8:	687b      	ldr	r3, [r7, #4]
24000efa:	69ba      	ldr	r2, [r7, #24]
24000efc:	605a      	str	r2, [r3, #4]
24000efe:	683b      	ldr	r3, [r7, #0]
24000f00:	685b      	ldr	r3, [r3, #4]
24000f02:	f003 0303 	and.w	r3, r3, #3
24000f06:	2b03      	cmp	r3, #3
24000f08:	d017      	beq.n	24000f3a <HAL_GPIO_Init+0xe2>
24000f0a:	687b      	ldr	r3, [r7, #4]
24000f0c:	68db      	ldr	r3, [r3, #12]
24000f0e:	61bb      	str	r3, [r7, #24]
24000f10:	69fb      	ldr	r3, [r7, #28]
24000f12:	005b      	lsls	r3, r3, #1
24000f14:	2203      	movs	r2, #3
24000f16:	fa02 f303 	lsl.w	r3, r2, r3
24000f1a:	43db      	mvns	r3, r3
24000f1c:	69ba      	ldr	r2, [r7, #24]
24000f1e:	4013      	ands	r3, r2
24000f20:	61bb      	str	r3, [r7, #24]
24000f22:	683b      	ldr	r3, [r7, #0]
24000f24:	689a      	ldr	r2, [r3, #8]
24000f26:	69fb      	ldr	r3, [r7, #28]
24000f28:	005b      	lsls	r3, r3, #1
24000f2a:	fa02 f303 	lsl.w	r3, r2, r3
24000f2e:	69ba      	ldr	r2, [r7, #24]
24000f30:	4313      	orrs	r3, r2
24000f32:	61bb      	str	r3, [r7, #24]
24000f34:	687b      	ldr	r3, [r7, #4]
24000f36:	69ba      	ldr	r2, [r7, #24]
24000f38:	60da      	str	r2, [r3, #12]
24000f3a:	683b      	ldr	r3, [r7, #0]
24000f3c:	685b      	ldr	r3, [r3, #4]
24000f3e:	f003 0303 	and.w	r3, r3, #3
24000f42:	2b02      	cmp	r3, #2
24000f44:	d123      	bne.n	24000f8e <HAL_GPIO_Init+0x136>
24000f46:	69fb      	ldr	r3, [r7, #28]
24000f48:	08da      	lsrs	r2, r3, #3
24000f4a:	687b      	ldr	r3, [r7, #4]
24000f4c:	3208      	adds	r2, #8
24000f4e:	f853 3022 	ldr.w	r3, [r3, r2, lsl #2]
24000f52:	61bb      	str	r3, [r7, #24]
24000f54:	69fb      	ldr	r3, [r7, #28]
24000f56:	f003 0307 	and.w	r3, r3, #7
24000f5a:	009b      	lsls	r3, r3, #2
24000f5c:	220f      	movs	r2, #15
24000f5e:	fa02 f303 	lsl.w	r3, r2, r3
24000f62:	43db      	mvns	r3, r3
24000f64:	69ba      	ldr	r2, [r7, #24]
24000f66:	4013      	ands	r3, r2
24000f68:	61bb      	str	r3, [r7, #24]
24000f6a:	683b      	ldr	r3, [r7, #0]
24000f6c:	691a      	ldr	r2, [r3, #16]
24000f6e:	69fb      	ldr	r3, [r7, #28]
24000f70:	f003 0307 	and.w	r3, r3, #7
24000f74:	009b      	lsls	r3, r3, #2
24000f76:	fa02 f303 	lsl.w	r3, r2, r3
24000f7a:	69ba      	ldr	r2, [r7, #24]
24000f7c:	4313      	orrs	r3, r2
24000f7e:	61bb      	str	r3, [r7, #24]
24000f80:	69fb      	ldr	r3, [r7, #28]
24000f82:	08da      	lsrs	r2, r3, #3
24000f84:	687b      	ldr	r3, [r7, #4]
24000f86:	3208      	adds	r2, #8
24000f88:	69b9      	ldr	r1, [r7, #24]
24000f8a:	f843 1022 	str.w	r1, [r3, r2, lsl #2]
24000f8e:	687b      	ldr	r3, [r7, #4]
24000f90:	681b      	ldr	r3, [r3, #0]
24000f92:	61bb      	str	r3, [r7, #24]
24000f94:	69fb      	ldr	r3, [r7, #28]
24000f96:	005b      	lsls	r3, r3, #1
24000f98:	2203      	movs	r2, #3
24000f9a:	fa02 f303 	lsl.w	r3, r2, r3
24000f9e:	43db      	mvns	r3, r3
24000fa0:	69ba      	ldr	r2, [r7, #24]
24000fa2:	4013      	ands	r3, r2
24000fa4:	61bb      	str	r3, [r7, #24]
24000fa6:	683b      	ldr	r3, [r7, #0]
24000fa8:	685b      	ldr	r3, [r3, #4]
24000faa:	f003 0203 	and.w	r2, r3, #3
24000fae:	69fb      	ldr	r3, [r7, #28]
24000fb0:	005b      	lsls	r3, r3, #1
24000fb2:	fa02 f303 	lsl.w	r3, r2, r3
24000fb6:	69ba      	ldr	r2, [r7, #24]
24000fb8:	4313      	orrs	r3, r2
24000fba:	61bb      	str	r3, [r7, #24]
24000fbc:	687b      	ldr	r3, [r7, #4]
24000fbe:	69ba      	ldr	r2, [r7, #24]
24000fc0:	601a      	str	r2, [r3, #0]
24000fc2:	683b      	ldr	r3, [r7, #0]
24000fc4:	685b      	ldr	r3, [r3, #4]
24000fc6:	f403 3340 	and.w	r3, r3, #196608	@ 0x30000
24000fca:	2b00      	cmp	r3, #0
24000fcc:	f000 80e0 	beq.w	24001190 <HAL_GPIO_Init+0x338>
24000fd0:	4b2f      	ldr	r3, [pc, #188]	@ (24001090 <HAL_GPIO_Init+0x238>)
24000fd2:	f8d3 30f4 	ldr.w	r3, [r3, #244]	@ 0xf4
24000fd6:	4a2e      	ldr	r2, [pc, #184]	@ (24001090 <HAL_GPIO_Init+0x238>)
24000fd8:	f043 0302 	orr.w	r3, r3, #2
24000fdc:	f8c2 30f4 	str.w	r3, [r2, #244]	@ 0xf4
24000fe0:	4b2b      	ldr	r3, [pc, #172]	@ (24001090 <HAL_GPIO_Init+0x238>)
24000fe2:	f8d3 30f4 	ldr.w	r3, [r3, #244]	@ 0xf4
24000fe6:	f003 0302 	and.w	r3, r3, #2
24000fea:	60fb      	str	r3, [r7, #12]
24000fec:	68fb      	ldr	r3, [r7, #12]
24000fee:	4a29      	ldr	r2, [pc, #164]	@ (24001094 <HAL_GPIO_Init+0x23c>)
24000ff0:	69fb      	ldr	r3, [r7, #28]
24000ff2:	089b      	lsrs	r3, r3, #2
24000ff4:	3302      	adds	r3, #2
24000ff6:	f852 3023 	ldr.w	r3, [r2, r3, lsl #2]
24000ffa:	61bb      	str	r3, [r7, #24]
24000ffc:	69fb      	ldr	r3, [r7, #28]
24000ffe:	f003 0303 	and.w	r3, r3, #3
24001002:	009b      	lsls	r3, r3, #2
24001004:	220f      	movs	r2, #15
24001006:	fa02 f303 	lsl.w	r3, r2, r3
2400100a:	43db      	mvns	r3, r3
2400100c:	69ba      	ldr	r2, [r7, #24]
2400100e:	4013      	ands	r3, r2
24001010:	61bb      	str	r3, [r7, #24]
24001012:	687b      	ldr	r3, [r7, #4]
24001014:	4a20      	ldr	r2, [pc, #128]	@ (24001098 <HAL_GPIO_Init+0x240>)
24001016:	4293      	cmp	r3, r2
24001018:	d052      	beq.n	240010c0 <HAL_GPIO_Init+0x268>
2400101a:	687b      	ldr	r3, [r7, #4]
2400101c:	4a1f      	ldr	r2, [pc, #124]	@ (2400109c <HAL_GPIO_Init+0x244>)
2400101e:	4293      	cmp	r3, r2
24001020:	d031      	beq.n	24001086 <HAL_GPIO_Init+0x22e>
24001022:	687b      	ldr	r3, [r7, #4]
24001024:	4a1e      	ldr	r2, [pc, #120]	@ (240010a0 <HAL_GPIO_Init+0x248>)
24001026:	4293      	cmp	r3, r2
24001028:	d02b      	beq.n	24001082 <HAL_GPIO_Init+0x22a>
2400102a:	687b      	ldr	r3, [r7, #4]
2400102c:	4a1d      	ldr	r2, [pc, #116]	@ (240010a4 <HAL_GPIO_Init+0x24c>)
2400102e:	4293      	cmp	r3, r2
24001030:	d025      	beq.n	2400107e <HAL_GPIO_Init+0x226>
24001032:	687b      	ldr	r3, [r7, #4]
24001034:	4a1c      	ldr	r2, [pc, #112]	@ (240010a8 <HAL_GPIO_Init+0x250>)
24001036:	4293      	cmp	r3, r2
24001038:	d01f      	beq.n	2400107a <HAL_GPIO_Init+0x222>
2400103a:	687b      	ldr	r3, [r7, #4]
2400103c:	4a1b      	ldr	r2, [pc, #108]	@ (240010ac <HAL_GPIO_Init+0x254>)
2400103e:	4293      	cmp	r3, r2
24001040:	d019      	beq.n	24001076 <HAL_GPIO_Init+0x21e>
24001042:	687b      	ldr	r3, [r7, #4]
24001044:	4a1a      	ldr	r2, [pc, #104]	@ (240010b0 <HAL_GPIO_Init+0x258>)
24001046:	4293      	cmp	r3, r2
24001048:	d013      	beq.n	24001072 <HAL_GPIO_Init+0x21a>
2400104a:	687b      	ldr	r3, [r7, #4]
2400104c:	4a19      	ldr	r2, [pc, #100]	@ (240010b4 <HAL_GPIO_Init+0x25c>)
2400104e:	4293      	cmp	r3, r2
24001050:	d00d      	beq.n	2400106e <HAL_GPIO_Init+0x216>
24001052:	687b      	ldr	r3, [r7, #4]
24001054:	4a18      	ldr	r2, [pc, #96]	@ (240010b8 <HAL_GPIO_Init+0x260>)
24001056:	4293      	cmp	r3, r2
24001058:	d007      	beq.n	2400106a <HAL_GPIO_Init+0x212>
2400105a:	687b      	ldr	r3, [r7, #4]
2400105c:	4a17      	ldr	r2, [pc, #92]	@ (240010bc <HAL_GPIO_Init+0x264>)
2400105e:	4293      	cmp	r3, r2
24001060:	d101      	bne.n	24001066 <HAL_GPIO_Init+0x20e>
24001062:	2309      	movs	r3, #9
24001064:	e02d      	b.n	240010c2 <HAL_GPIO_Init+0x26a>
24001066:	230a      	movs	r3, #10
24001068:	e02b      	b.n	240010c2 <HAL_GPIO_Init+0x26a>
2400106a:	2308      	movs	r3, #8
2400106c:	e029      	b.n	240010c2 <HAL_GPIO_Init+0x26a>
2400106e:	2307      	movs	r3, #7
24001070:	e027      	b.n	240010c2 <HAL_GPIO_Init+0x26a>
24001072:	2306      	movs	r3, #6
24001074:	e025      	b.n	240010c2 <HAL_GPIO_Init+0x26a>
24001076:	2305      	movs	r3, #5
24001078:	e023      	b.n	240010c2 <HAL_GPIO_Init+0x26a>
2400107a:	2304      	movs	r3, #4
2400107c:	e021      	b.n	240010c2 <HAL_GPIO_Init+0x26a>
2400107e:	2303      	movs	r3, #3
24001080:	e01f      	b.n	240010c2 <HAL_GPIO_Init+0x26a>
24001082:	2302      	movs	r3, #2
24001084:	e01d      	b.n	240010c2 <HAL_GPIO_Init+0x26a>
24001086:	2301      	movs	r3, #1
24001088:	e01b      	b.n	240010c2 <HAL_GPIO_Init+0x26a>
2400108a:	bf00      	nop
2400108c:	58000080 	.word	0x58000080
24001090:	58024400 	.word	0x58024400
24001094:	58000400 	.word	0x58000400
24001098:	58020000 	.word	0x58020000
2400109c:	58020400 	.word	0x58020400
240010a0:	58020800 	.word	0x58020800
240010a4:	58020c00 	.word	0x58020c00
240010a8:	58021000 	.word	0x58021000
240010ac:	58021400 	.word	0x58021400
240010b0:	58021800 	.word	0x58021800
240010b4:	58021c00 	.word	0x58021c00
240010b8:	58022000 	.word	0x58022000
240010bc:	58022400 	.word	0x58022400
240010c0:	2300      	movs	r3, #0
240010c2:	69fa      	ldr	r2, [r7, #28]
240010c4:	f002 0203 	and.w	r2, r2, #3
240010c8:	0092      	lsls	r2, r2, #2
240010ca:	4093      	lsls	r3, r2
240010cc:	69ba      	ldr	r2, [r7, #24]
240010ce:	4313      	orrs	r3, r2
240010d0:	61bb      	str	r3, [r7, #24]
240010d2:	4938      	ldr	r1, [pc, #224]	@ (240011b4 <HAL_GPIO_Init+0x35c>)
240010d4:	69fb      	ldr	r3, [r7, #28]
240010d6:	089b      	lsrs	r3, r3, #2
240010d8:	3302      	adds	r3, #2
240010da:	69ba      	ldr	r2, [r7, #24]
240010dc:	f841 2023 	str.w	r2, [r1, r3, lsl #2]
240010e0:	f04f 43b0 	mov.w	r3, #1476395008	@ 0x58000000
240010e4:	681b      	ldr	r3, [r3, #0]
240010e6:	61bb      	str	r3, [r7, #24]
240010e8:	693b      	ldr	r3, [r7, #16]
240010ea:	43db      	mvns	r3, r3
240010ec:	69ba      	ldr	r2, [r7, #24]
240010ee:	4013      	ands	r3, r2
240010f0:	61bb      	str	r3, [r7, #24]
240010f2:	683b      	ldr	r3, [r7, #0]
240010f4:	685b      	ldr	r3, [r3, #4]
240010f6:	f403 1380 	and.w	r3, r3, #1048576	@ 0x100000
240010fa:	2b00      	cmp	r3, #0
240010fc:	d003      	beq.n	24001106 <HAL_GPIO_Init+0x2ae>
240010fe:	69ba      	ldr	r2, [r7, #24]
24001100:	693b      	ldr	r3, [r7, #16]
24001102:	4313      	orrs	r3, r2
24001104:	61bb      	str	r3, [r7, #24]
24001106:	f04f 42b0 	mov.w	r2, #1476395008	@ 0x58000000
2400110a:	69bb      	ldr	r3, [r7, #24]
2400110c:	6013      	str	r3, [r2, #0]
2400110e:	f04f 43b0 	mov.w	r3, #1476395008	@ 0x58000000
24001112:	685b      	ldr	r3, [r3, #4]
24001114:	61bb      	str	r3, [r7, #24]
24001116:	693b      	ldr	r3, [r7, #16]
24001118:	43db      	mvns	r3, r3
2400111a:	69ba      	ldr	r2, [r7, #24]
2400111c:	4013      	ands	r3, r2
2400111e:	61bb      	str	r3, [r7, #24]
24001120:	683b      	ldr	r3, [r7, #0]
24001122:	685b      	ldr	r3, [r3, #4]
24001124:	f403 1300 	and.w	r3, r3, #2097152	@ 0x200000
24001128:	2b00      	cmp	r3, #0
2400112a:	d003      	beq.n	24001134 <HAL_GPIO_Init+0x2dc>
2400112c:	69ba      	ldr	r2, [r7, #24]
2400112e:	693b      	ldr	r3, [r7, #16]
24001130:	4313      	orrs	r3, r2
24001132:	61bb      	str	r3, [r7, #24]
24001134:	f04f 42b0 	mov.w	r2, #1476395008	@ 0x58000000
24001138:	69bb      	ldr	r3, [r7, #24]
2400113a:	6053      	str	r3, [r2, #4]
2400113c:	697b      	ldr	r3, [r7, #20]
2400113e:	685b      	ldr	r3, [r3, #4]
24001140:	61bb      	str	r3, [r7, #24]
24001142:	693b      	ldr	r3, [r7, #16]
24001144:	43db      	mvns	r3, r3
24001146:	69ba      	ldr	r2, [r7, #24]
24001148:	4013      	ands	r3, r2
2400114a:	61bb      	str	r3, [r7, #24]
2400114c:	683b      	ldr	r3, [r7, #0]
2400114e:	685b      	ldr	r3, [r3, #4]
24001150:	f403 3300 	and.w	r3, r3, #131072	@ 0x20000
24001154:	2b00      	cmp	r3, #0
24001156:	d003      	beq.n	24001160 <HAL_GPIO_Init+0x308>
24001158:	69ba      	ldr	r2, [r7, #24]
2400115a:	693b      	ldr	r3, [r7, #16]
2400115c:	4313      	orrs	r3, r2
2400115e:	61bb      	str	r3, [r7, #24]
24001160:	697b      	ldr	r3, [r7, #20]
24001162:	69ba      	ldr	r2, [r7, #24]
24001164:	605a      	str	r2, [r3, #4]
24001166:	697b      	ldr	r3, [r7, #20]
24001168:	681b      	ldr	r3, [r3, #0]
2400116a:	61bb      	str	r3, [r7, #24]
2400116c:	693b      	ldr	r3, [r7, #16]
2400116e:	43db      	mvns	r3, r3
24001170:	69ba      	ldr	r2, [r7, #24]
24001172:	4013      	ands	r3, r2
24001174:	61bb      	str	r3, [r7, #24]
24001176:	683b      	ldr	r3, [r7, #0]
24001178:	685b      	ldr	r3, [r3, #4]
2400117a:	f403 3380 	and.w	r3, r3, #65536	@ 0x10000
2400117e:	2b00      	cmp	r3, #0
24001180:	d003      	beq.n	2400118a <HAL_GPIO_Init+0x332>
24001182:	69ba      	ldr	r2, [r7, #24]
24001184:	693b      	ldr	r3, [r7, #16]
24001186:	4313      	orrs	r3, r2
24001188:	61bb      	str	r3, [r7, #24]
2400118a:	697b      	ldr	r3, [r7, #20]
2400118c:	69ba      	ldr	r2, [r7, #24]
2400118e:	601a      	str	r2, [r3, #0]
24001190:	69fb      	ldr	r3, [r7, #28]
24001192:	3301      	adds	r3, #1
24001194:	61fb      	str	r3, [r7, #28]
24001196:	683b      	ldr	r3, [r7, #0]
24001198:	681a      	ldr	r2, [r3, #0]
2400119a:	69fb      	ldr	r3, [r7, #28]
2400119c:	fa22 f303 	lsr.w	r3, r2, r3
240011a0:	2b00      	cmp	r3, #0
240011a2:	f47f ae63 	bne.w	24000e6c <HAL_GPIO_Init+0x14>
240011a6:	bf00      	nop
240011a8:	bf00      	nop
240011aa:	3724      	adds	r7, #36	@ 0x24
240011ac:	46bd      	mov	sp, r7
240011ae:	f85d 7b04 	ldr.w	r7, [sp], #4
240011b2:	4770      	bx	lr
240011b4:	58000400 	.word	0x58000400

240011b8 <HAL_GPIO_DeInit>:
240011b8:	b480      	push	{r7}
240011ba:	b087      	sub	sp, #28
240011bc:	af00      	add	r7, sp, #0
240011be:	6078      	str	r0, [r7, #4]
240011c0:	6039      	str	r1, [r7, #0]
240011c2:	2300      	movs	r3, #0
240011c4:	617b      	str	r3, [r7, #20]
240011c6:	4b75      	ldr	r3, [pc, #468]	@ (2400139c <HAL_GPIO_DeInit+0x1e4>)
240011c8:	613b      	str	r3, [r7, #16]
240011ca:	e0d9      	b.n	24001380 <HAL_GPIO_DeInit+0x1c8>
240011cc:	2201      	movs	r2, #1
240011ce:	697b      	ldr	r3, [r7, #20]
240011d0:	fa02 f303 	lsl.w	r3, r2, r3
240011d4:	683a      	ldr	r2, [r7, #0]
240011d6:	4013      	ands	r3, r2
240011d8:	60fb      	str	r3, [r7, #12]
240011da:	68fb      	ldr	r3, [r7, #12]
240011dc:	2b00      	cmp	r3, #0
240011de:	f000 80cc 	beq.w	2400137a <HAL_GPIO_DeInit+0x1c2>
240011e2:	4a6f      	ldr	r2, [pc, #444]	@ (240013a0 <HAL_GPIO_DeInit+0x1e8>)
240011e4:	697b      	ldr	r3, [r7, #20]
240011e6:	089b      	lsrs	r3, r3, #2
240011e8:	3302      	adds	r3, #2
240011ea:	f852 3023 	ldr.w	r3, [r2, r3, lsl #2]
240011ee:	60bb      	str	r3, [r7, #8]
240011f0:	697b      	ldr	r3, [r7, #20]
240011f2:	f003 0303 	and.w	r3, r3, #3
240011f6:	009b      	lsls	r3, r3, #2
240011f8:	220f      	movs	r2, #15
240011fa:	fa02 f303 	lsl.w	r3, r2, r3
240011fe:	68ba      	ldr	r2, [r7, #8]
24001200:	4013      	ands	r3, r2
24001202:	60bb      	str	r3, [r7, #8]
24001204:	687b      	ldr	r3, [r7, #4]
24001206:	4a67      	ldr	r2, [pc, #412]	@ (240013a4 <HAL_GPIO_DeInit+0x1ec>)
24001208:	4293      	cmp	r3, r2
2400120a:	d037      	beq.n	2400127c <HAL_GPIO_DeInit+0xc4>
2400120c:	687b      	ldr	r3, [r7, #4]
2400120e:	4a66      	ldr	r2, [pc, #408]	@ (240013a8 <HAL_GPIO_DeInit+0x1f0>)
24001210:	4293      	cmp	r3, r2
24001212:	d031      	beq.n	24001278 <HAL_GPIO_DeInit+0xc0>
24001214:	687b      	ldr	r3, [r7, #4]
24001216:	4a65      	ldr	r2, [pc, #404]	@ (240013ac <HAL_GPIO_DeInit+0x1f4>)
24001218:	4293      	cmp	r3, r2
2400121a:	d02b      	beq.n	24001274 <HAL_GPIO_DeInit+0xbc>
2400121c:	687b      	ldr	r3, [r7, #4]
2400121e:	4a64      	ldr	r2, [pc, #400]	@ (240013b0 <HAL_GPIO_DeInit+0x1f8>)
24001220:	4293      	cmp	r3, r2
24001222:	d025      	beq.n	24001270 <HAL_GPIO_DeInit+0xb8>
24001224:	687b      	ldr	r3, [r7, #4]
24001226:	4a63      	ldr	r2, [pc, #396]	@ (240013b4 <HAL_GPIO_DeInit+0x1fc>)
24001228:	4293      	cmp	r3, r2
2400122a:	d01f      	beq.n	2400126c <HAL_GPIO_DeInit+0xb4>
2400122c:	687b      	ldr	r3, [r7, #4]
2400122e:	4a62      	ldr	r2, [pc, #392]	@ (240013b8 <HAL_GPIO_DeInit+0x200>)
24001230:	4293      	cmp	r3, r2
24001232:	d019      	beq.n	24001268 <HAL_GPIO_DeInit+0xb0>
24001234:	687b      	ldr	r3, [r7, #4]
24001236:	4a61      	ldr	r2, [pc, #388]	@ (240013bc <HAL_GPIO_DeInit+0x204>)
24001238:	4293      	cmp	r3, r2
2400123a:	d013      	beq.n	24001264 <HAL_GPIO_DeInit+0xac>
2400123c:	687b      	ldr	r3, [r7, #4]
2400123e:	4a60      	ldr	r2, [pc, #384]	@ (240013c0 <HAL_GPIO_DeInit+0x208>)
24001240:	4293      	cmp	r3, r2
24001242:	d00d      	beq.n	24001260 <HAL_GPIO_DeInit+0xa8>
24001244:	687b      	ldr	r3, [r7, #4]
24001246:	4a5f      	ldr	r2, [pc, #380]	@ (240013c4 <HAL_GPIO_DeInit+0x20c>)
24001248:	4293      	cmp	r3, r2
2400124a:	d007      	beq.n	2400125c <HAL_GPIO_DeInit+0xa4>
2400124c:	687b      	ldr	r3, [r7, #4]
2400124e:	4a5e      	ldr	r2, [pc, #376]	@ (240013c8 <HAL_GPIO_DeInit+0x210>)
24001250:	4293      	cmp	r3, r2
24001252:	d101      	bne.n	24001258 <HAL_GPIO_DeInit+0xa0>
24001254:	2309      	movs	r3, #9
24001256:	e012      	b.n	2400127e <HAL_GPIO_DeInit+0xc6>
24001258:	230a      	movs	r3, #10
2400125a:	e010      	b.n	2400127e <HAL_GPIO_DeInit+0xc6>
2400125c:	2308      	movs	r3, #8
2400125e:	e00e      	b.n	2400127e <HAL_GPIO_DeInit+0xc6>
24001260:	2307      	movs	r3, #7
24001262:	e00c      	b.n	2400127e <HAL_GPIO_DeInit+0xc6>
24001264:	2306      	movs	r3, #6
24001266:	e00a      	b.n	2400127e <HAL_GPIO_DeInit+0xc6>
24001268:	2305      	movs	r3, #5
2400126a:	e008      	b.n	2400127e <HAL_GPIO_DeInit+0xc6>
2400126c:	2304      	movs	r3, #4
2400126e:	e006      	b.n	2400127e <HAL_GPIO_DeInit+0xc6>
24001270:	2303      	movs	r3, #3
24001272:	e004      	b.n	2400127e <HAL_GPIO_DeInit+0xc6>
24001274:	2302      	movs	r3, #2
24001276:	e002      	b.n	2400127e <HAL_GPIO_DeInit+0xc6>
24001278:	2301      	movs	r3, #1
2400127a:	e000      	b.n	2400127e <HAL_GPIO_DeInit+0xc6>
2400127c:	2300      	movs	r3, #0
2400127e:	697a      	ldr	r2, [r7, #20]
24001280:	f002 0203 	and.w	r2, r2, #3
24001284:	0092      	lsls	r2, r2, #2
24001286:	4093      	lsls	r3, r2
24001288:	68ba      	ldr	r2, [r7, #8]
2400128a:	429a      	cmp	r2, r3
2400128c:	d136      	bne.n	240012fc <HAL_GPIO_DeInit+0x144>
2400128e:	693b      	ldr	r3, [r7, #16]
24001290:	681a      	ldr	r2, [r3, #0]
24001292:	68fb      	ldr	r3, [r7, #12]
24001294:	43db      	mvns	r3, r3
24001296:	401a      	ands	r2, r3
24001298:	693b      	ldr	r3, [r7, #16]
2400129a:	601a      	str	r2, [r3, #0]
2400129c:	693b      	ldr	r3, [r7, #16]
2400129e:	685a      	ldr	r2, [r3, #4]
240012a0:	68fb      	ldr	r3, [r7, #12]
240012a2:	43db      	mvns	r3, r3
240012a4:	401a      	ands	r2, r3
240012a6:	693b      	ldr	r3, [r7, #16]
240012a8:	605a      	str	r2, [r3, #4]
240012aa:	f04f 43b0 	mov.w	r3, #1476395008	@ 0x58000000
240012ae:	685a      	ldr	r2, [r3, #4]
240012b0:	68fb      	ldr	r3, [r7, #12]
240012b2:	43db      	mvns	r3, r3
240012b4:	f04f 41b0 	mov.w	r1, #1476395008	@ 0x58000000
240012b8:	4013      	ands	r3, r2
240012ba:	604b      	str	r3, [r1, #4]
240012bc:	f04f 43b0 	mov.w	r3, #1476395008	@ 0x58000000
240012c0:	681a      	ldr	r2, [r3, #0]
240012c2:	68fb      	ldr	r3, [r7, #12]
240012c4:	43db      	mvns	r3, r3
240012c6:	f04f 41b0 	mov.w	r1, #1476395008	@ 0x58000000
240012ca:	4013      	ands	r3, r2
240012cc:	600b      	str	r3, [r1, #0]
240012ce:	697b      	ldr	r3, [r7, #20]
240012d0:	f003 0303 	and.w	r3, r3, #3
240012d4:	009b      	lsls	r3, r3, #2
240012d6:	220f      	movs	r2, #15
240012d8:	fa02 f303 	lsl.w	r3, r2, r3
240012dc:	60bb      	str	r3, [r7, #8]
240012de:	4a30      	ldr	r2, [pc, #192]	@ (240013a0 <HAL_GPIO_DeInit+0x1e8>)
240012e0:	697b      	ldr	r3, [r7, #20]
240012e2:	089b      	lsrs	r3, r3, #2
240012e4:	3302      	adds	r3, #2
240012e6:	f852 1023 	ldr.w	r1, [r2, r3, lsl #2]
240012ea:	68bb      	ldr	r3, [r7, #8]
240012ec:	43da      	mvns	r2, r3
240012ee:	482c      	ldr	r0, [pc, #176]	@ (240013a0 <HAL_GPIO_DeInit+0x1e8>)
240012f0:	697b      	ldr	r3, [r7, #20]
240012f2:	089b      	lsrs	r3, r3, #2
240012f4:	400a      	ands	r2, r1
240012f6:	3302      	adds	r3, #2
240012f8:	f840 2023 	str.w	r2, [r0, r3, lsl #2]
240012fc:	687b      	ldr	r3, [r7, #4]
240012fe:	681a      	ldr	r2, [r3, #0]
24001300:	697b      	ldr	r3, [r7, #20]
24001302:	005b      	lsls	r3, r3, #1
24001304:	2103      	movs	r1, #3
24001306:	fa01 f303 	lsl.w	r3, r1, r3
2400130a:	431a      	orrs	r2, r3
2400130c:	687b      	ldr	r3, [r7, #4]
2400130e:	601a      	str	r2, [r3, #0]
24001310:	697b      	ldr	r3, [r7, #20]
24001312:	08da      	lsrs	r2, r3, #3
24001314:	687b      	ldr	r3, [r7, #4]
24001316:	3208      	adds	r2, #8
24001318:	f853 1022 	ldr.w	r1, [r3, r2, lsl #2]
2400131c:	697b      	ldr	r3, [r7, #20]
2400131e:	f003 0307 	and.w	r3, r3, #7
24001322:	009b      	lsls	r3, r3, #2
24001324:	220f      	movs	r2, #15
24001326:	fa02 f303 	lsl.w	r3, r2, r3
2400132a:	43db      	mvns	r3, r3
2400132c:	697a      	ldr	r2, [r7, #20]
2400132e:	08d2      	lsrs	r2, r2, #3
24001330:	4019      	ands	r1, r3
24001332:	687b      	ldr	r3, [r7, #4]
24001334:	3208      	adds	r2, #8
24001336:	f843 1022 	str.w	r1, [r3, r2, lsl #2]
2400133a:	687b      	ldr	r3, [r7, #4]
2400133c:	68da      	ldr	r2, [r3, #12]
2400133e:	697b      	ldr	r3, [r7, #20]
24001340:	005b      	lsls	r3, r3, #1
24001342:	2103      	movs	r1, #3
24001344:	fa01 f303 	lsl.w	r3, r1, r3
24001348:	43db      	mvns	r3, r3
2400134a:	401a      	ands	r2, r3
2400134c:	687b      	ldr	r3, [r7, #4]
2400134e:	60da      	str	r2, [r3, #12]
24001350:	687b      	ldr	r3, [r7, #4]
24001352:	685a      	ldr	r2, [r3, #4]
24001354:	2101      	movs	r1, #1
24001356:	697b      	ldr	r3, [r7, #20]
24001358:	fa01 f303 	lsl.w	r3, r1, r3
2400135c:	43db      	mvns	r3, r3
2400135e:	401a      	ands	r2, r3
24001360:	687b      	ldr	r3, [r7, #4]
24001362:	605a      	str	r2, [r3, #4]
24001364:	687b      	ldr	r3, [r7, #4]
24001366:	689a      	ldr	r2, [r3, #8]
24001368:	697b      	ldr	r3, [r7, #20]
2400136a:	005b      	lsls	r3, r3, #1
2400136c:	2103      	movs	r1, #3
2400136e:	fa01 f303 	lsl.w	r3, r1, r3
24001372:	43db      	mvns	r3, r3
24001374:	401a      	ands	r2, r3
24001376:	687b      	ldr	r3, [r7, #4]
24001378:	609a      	str	r2, [r3, #8]
2400137a:	697b      	ldr	r3, [r7, #20]
2400137c:	3301      	adds	r3, #1
2400137e:	617b      	str	r3, [r7, #20]
24001380:	683a      	ldr	r2, [r7, #0]
24001382:	697b      	ldr	r3, [r7, #20]
24001384:	fa22 f303 	lsr.w	r3, r2, r3
24001388:	2b00      	cmp	r3, #0
2400138a:	f47f af1f 	bne.w	240011cc <HAL_GPIO_DeInit+0x14>
2400138e:	bf00      	nop
24001390:	bf00      	nop
24001392:	371c      	adds	r7, #28
24001394:	46bd      	mov	sp, r7
24001396:	f85d 7b04 	ldr.w	r7, [sp], #4
2400139a:	4770      	bx	lr
2400139c:	58000080 	.word	0x58000080
240013a0:	58000400 	.word	0x58000400
240013a4:	58020000 	.word	0x58020000
240013a8:	58020400 	.word	0x58020400
240013ac:	58020800 	.word	0x58020800
240013b0:	58020c00 	.word	0x58020c00
240013b4:	58021000 	.word	0x58021000
240013b8:	58021400 	.word	0x58021400
240013bc:	58021800 	.word	0x58021800
240013c0:	58021c00 	.word	0x58021c00
240013c4:	58022000 	.word	0x58022000
240013c8:	58022400 	.word	0x58022400

240013cc <HAL_GPIO_WritePin>:
240013cc:	b480      	push	{r7}
240013ce:	b083      	sub	sp, #12
240013d0:	af00      	add	r7, sp, #0
240013d2:	6078      	str	r0, [r7, #4]
240013d4:	460b      	mov	r3, r1
240013d6:	807b      	strh	r3, [r7, #2]
240013d8:	4613      	mov	r3, r2
240013da:	707b      	strb	r3, [r7, #1]
240013dc:	787b      	ldrb	r3, [r7, #1]
240013de:	2b00      	cmp	r3, #0
240013e0:	d003      	beq.n	240013ea <HAL_GPIO_WritePin+0x1e>
240013e2:	887a      	ldrh	r2, [r7, #2]
240013e4:	687b      	ldr	r3, [r7, #4]
240013e6:	619a      	str	r2, [r3, #24]
240013e8:	e003      	b.n	240013f2 <HAL_GPIO_WritePin+0x26>
240013ea:	887b      	ldrh	r3, [r7, #2]
240013ec:	041a      	lsls	r2, r3, #16
240013ee:	687b      	ldr	r3, [r7, #4]
240013f0:	619a      	str	r2, [r3, #24]
240013f2:	bf00      	nop
240013f4:	370c      	adds	r7, #12
240013f6:	46bd      	mov	sp, r7
240013f8:	f85d 7b04 	ldr.w	r7, [sp], #4
240013fc:	4770      	bx	lr
	...

24001400 <HAL_PWREx_ConfigSupply>:
24001400:	b580      	push	{r7, lr}
24001402:	b084      	sub	sp, #16
24001404:	af00      	add	r7, sp, #0
24001406:	6078      	str	r0, [r7, #4]
24001408:	4b19      	ldr	r3, [pc, #100]	@ (24001470 <HAL_PWREx_ConfigSupply+0x70>)
2400140a:	68db      	ldr	r3, [r3, #12]
2400140c:	f003 0304 	and.w	r3, r3, #4
24001410:	2b04      	cmp	r3, #4
24001412:	d00a      	beq.n	2400142a <HAL_PWREx_ConfigSupply+0x2a>
24001414:	4b16      	ldr	r3, [pc, #88]	@ (24001470 <HAL_PWREx_ConfigSupply+0x70>)
24001416:	68db      	ldr	r3, [r3, #12]
24001418:	f003 0307 	and.w	r3, r3, #7
2400141c:	687a      	ldr	r2, [r7, #4]
2400141e:	429a      	cmp	r2, r3
24001420:	d001      	beq.n	24001426 <HAL_PWREx_ConfigSupply+0x26>
24001422:	2301      	movs	r3, #1
24001424:	e01f      	b.n	24001466 <HAL_PWREx_ConfigSupply+0x66>
24001426:	2300      	movs	r3, #0
24001428:	e01d      	b.n	24001466 <HAL_PWREx_ConfigSupply+0x66>
2400142a:	4b11      	ldr	r3, [pc, #68]	@ (24001470 <HAL_PWREx_ConfigSupply+0x70>)
2400142c:	68db      	ldr	r3, [r3, #12]
2400142e:	f023 0207 	bic.w	r2, r3, #7
24001432:	490f      	ldr	r1, [pc, #60]	@ (24001470 <HAL_PWREx_ConfigSupply+0x70>)
24001434:	687b      	ldr	r3, [r7, #4]
24001436:	4313      	orrs	r3, r2
24001438:	60cb      	str	r3, [r1, #12]
2400143a:	f7ff f959 	bl	240006f0 <HAL_GetTick>
2400143e:	60f8      	str	r0, [r7, #12]
24001440:	e009      	b.n	24001456 <HAL_PWREx_ConfigSupply+0x56>
24001442:	f7ff f955 	bl	240006f0 <HAL_GetTick>
24001446:	4602      	mov	r2, r0
24001448:	68fb      	ldr	r3, [r7, #12]
2400144a:	1ad3      	subs	r3, r2, r3
2400144c:	f5b3 7f7a 	cmp.w	r3, #1000	@ 0x3e8
24001450:	d901      	bls.n	24001456 <HAL_PWREx_ConfigSupply+0x56>
24001452:	2301      	movs	r3, #1
24001454:	e007      	b.n	24001466 <HAL_PWREx_ConfigSupply+0x66>
24001456:	4b06      	ldr	r3, [pc, #24]	@ (24001470 <HAL_PWREx_ConfigSupply+0x70>)
24001458:	685b      	ldr	r3, [r3, #4]
2400145a:	f403 5300 	and.w	r3, r3, #8192	@ 0x2000
2400145e:	f5b3 5f00 	cmp.w	r3, #8192	@ 0x2000
24001462:	d1ee      	bne.n	24001442 <HAL_PWREx_ConfigSupply+0x42>
24001464:	2300      	movs	r3, #0
24001466:	4618      	mov	r0, r3
24001468:	3710      	adds	r7, #16
2400146a:	46bd      	mov	sp, r7
2400146c:	bd80      	pop	{r7, pc}
2400146e:	bf00      	nop
24001470:	58024800 	.word	0x58024800

24001474 <HAL_QSPI_Init>:
24001474:	b580      	push	{r7, lr}
24001476:	b086      	sub	sp, #24
24001478:	af02      	add	r7, sp, #8
2400147a:	6078      	str	r0, [r7, #4]
2400147c:	f7ff f938 	bl	240006f0 <HAL_GetTick>
24001480:	60f8      	str	r0, [r7, #12]
24001482:	687b      	ldr	r3, [r7, #4]
24001484:	2b00      	cmp	r3, #0
24001486:	d101      	bne.n	2400148c <HAL_QSPI_Init+0x18>
24001488:	2301      	movs	r3, #1
2400148a:	e05f      	b.n	2400154c <HAL_QSPI_Init+0xd8>
2400148c:	687b      	ldr	r3, [r7, #4]
2400148e:	f893 3041 	ldrb.w	r3, [r3, #65]	@ 0x41
24001492:	b2db      	uxtb	r3, r3
24001494:	2b00      	cmp	r3, #0
24001496:	d107      	bne.n	240014a8 <HAL_QSPI_Init+0x34>
24001498:	6878      	ldr	r0, [r7, #4]
2400149a:	f7ff fa23 	bl	240008e4 <HAL_QSPI_MspInit>
2400149e:	f241 3188 	movw	r1, #5000	@ 0x1388
240014a2:	6878      	ldr	r0, [r7, #4]
240014a4:	f000 fa43 	bl	2400192e <HAL_QSPI_SetTimeout>
240014a8:	687b      	ldr	r3, [r7, #4]
240014aa:	681b      	ldr	r3, [r3, #0]
240014ac:	681b      	ldr	r3, [r3, #0]
240014ae:	f423 51f8 	bic.w	r1, r3, #7936	@ 0x1f00
240014b2:	687b      	ldr	r3, [r7, #4]
240014b4:	689b      	ldr	r3, [r3, #8]
240014b6:	3b01      	subs	r3, #1
240014b8:	021a      	lsls	r2, r3, #8
240014ba:	687b      	ldr	r3, [r7, #4]
240014bc:	681b      	ldr	r3, [r3, #0]
240014be:	430a      	orrs	r2, r1
240014c0:	601a      	str	r2, [r3, #0]
240014c2:	687b      	ldr	r3, [r7, #4]
240014c4:	6c9b      	ldr	r3, [r3, #72]	@ 0x48
240014c6:	9300      	str	r3, [sp, #0]
240014c8:	68fb      	ldr	r3, [r7, #12]
240014ca:	2200      	movs	r2, #0
240014cc:	2120      	movs	r1, #32
240014ce:	6878      	ldr	r0, [r7, #4]
240014d0:	f000 fa3b 	bl	2400194a <QSPI_WaitFlagStateUntilTimeout>
240014d4:	4603      	mov	r3, r0
240014d6:	72fb      	strb	r3, [r7, #11]
240014d8:	7afb      	ldrb	r3, [r7, #11]
240014da:	2b00      	cmp	r3, #0
240014dc:	d135      	bne.n	2400154a <HAL_QSPI_Init+0xd6>
240014de:	687b      	ldr	r3, [r7, #4]
240014e0:	681b      	ldr	r3, [r3, #0]
240014e2:	681a      	ldr	r2, [r3, #0]
240014e4:	4b1b      	ldr	r3, [pc, #108]	@ (24001554 <HAL_QSPI_Init+0xe0>)
240014e6:	4013      	ands	r3, r2
240014e8:	687a      	ldr	r2, [r7, #4]
240014ea:	6852      	ldr	r2, [r2, #4]
240014ec:	0611      	lsls	r1, r2, #24
240014ee:	687a      	ldr	r2, [r7, #4]
240014f0:	68d2      	ldr	r2, [r2, #12]
240014f2:	4311      	orrs	r1, r2
240014f4:	687a      	ldr	r2, [r7, #4]
240014f6:	69d2      	ldr	r2, [r2, #28]
240014f8:	4311      	orrs	r1, r2
240014fa:	687a      	ldr	r2, [r7, #4]
240014fc:	6a12      	ldr	r2, [r2, #32]
240014fe:	4311      	orrs	r1, r2
24001500:	687a      	ldr	r2, [r7, #4]
24001502:	6812      	ldr	r2, [r2, #0]
24001504:	430b      	orrs	r3, r1
24001506:	6013      	str	r3, [r2, #0]
24001508:	687b      	ldr	r3, [r7, #4]
2400150a:	681b      	ldr	r3, [r3, #0]
2400150c:	685a      	ldr	r2, [r3, #4]
2400150e:	4b12      	ldr	r3, [pc, #72]	@ (24001558 <HAL_QSPI_Init+0xe4>)
24001510:	4013      	ands	r3, r2
24001512:	687a      	ldr	r2, [r7, #4]
24001514:	6912      	ldr	r2, [r2, #16]
24001516:	0411      	lsls	r1, r2, #16
24001518:	687a      	ldr	r2, [r7, #4]
2400151a:	6952      	ldr	r2, [r2, #20]
2400151c:	4311      	orrs	r1, r2
2400151e:	687a      	ldr	r2, [r7, #4]
24001520:	6992      	ldr	r2, [r2, #24]
24001522:	4311      	orrs	r1, r2
24001524:	687a      	ldr	r2, [r7, #4]
24001526:	6812      	ldr	r2, [r2, #0]
24001528:	430b      	orrs	r3, r1
2400152a:	6053      	str	r3, [r2, #4]
2400152c:	687b      	ldr	r3, [r7, #4]
2400152e:	681b      	ldr	r3, [r3, #0]
24001530:	681a      	ldr	r2, [r3, #0]
24001532:	687b      	ldr	r3, [r7, #4]
24001534:	681b      	ldr	r3, [r3, #0]
24001536:	f042 0201 	orr.w	r2, r2, #1
2400153a:	601a      	str	r2, [r3, #0]
2400153c:	687b      	ldr	r3, [r7, #4]
2400153e:	2200      	movs	r2, #0
24001540:	645a      	str	r2, [r3, #68]	@ 0x44
24001542:	687b      	ldr	r3, [r7, #4]
24001544:	2201      	movs	r2, #1
24001546:	f883 2041 	strb.w	r2, [r3, #65]	@ 0x41
2400154a:	7afb      	ldrb	r3, [r7, #11]
2400154c:	4618      	mov	r0, r3
2400154e:	3710      	adds	r7, #16
24001550:	46bd      	mov	sp, r7
24001552:	bd80      	pop	{r7, pc}
24001554:	00ffff2f 	.word	0x00ffff2f
24001558:	ffe0f8fe 	.word	0xffe0f8fe

2400155c <HAL_QSPI_DeInit>:
2400155c:	b580      	push	{r7, lr}
2400155e:	b082      	sub	sp, #8
24001560:	af00      	add	r7, sp, #0
24001562:	6078      	str	r0, [r7, #4]
24001564:	687b      	ldr	r3, [r7, #4]
24001566:	2b00      	cmp	r3, #0
24001568:	d101      	bne.n	2400156e <HAL_QSPI_DeInit+0x12>
2400156a:	2301      	movs	r3, #1
2400156c:	e012      	b.n	24001594 <HAL_QSPI_DeInit+0x38>
2400156e:	687b      	ldr	r3, [r7, #4]
24001570:	681b      	ldr	r3, [r3, #0]
24001572:	681a      	ldr	r2, [r3, #0]
24001574:	687b      	ldr	r3, [r7, #4]
24001576:	681b      	ldr	r3, [r3, #0]
24001578:	f022 0201 	bic.w	r2, r2, #1
2400157c:	601a      	str	r2, [r3, #0]
2400157e:	6878      	ldr	r0, [r7, #4]
24001580:	f7ff fab6 	bl	24000af0 <HAL_QSPI_MspDeInit>
24001584:	687b      	ldr	r3, [r7, #4]
24001586:	2200      	movs	r2, #0
24001588:	645a      	str	r2, [r3, #68]	@ 0x44
2400158a:	687b      	ldr	r3, [r7, #4]
2400158c:	2200      	movs	r2, #0
2400158e:	f883 2041 	strb.w	r2, [r3, #65]	@ 0x41
24001592:	2300      	movs	r3, #0
24001594:	4618      	mov	r0, r3
24001596:	3708      	adds	r7, #8
24001598:	46bd      	mov	sp, r7
2400159a:	bd80      	pop	{r7, pc}

2400159c <HAL_QSPI_Command>:
2400159c:	b580      	push	{r7, lr}
2400159e:	b088      	sub	sp, #32
240015a0:	af02      	add	r7, sp, #8
240015a2:	60f8      	str	r0, [r7, #12]
240015a4:	60b9      	str	r1, [r7, #8]
240015a6:	607a      	str	r2, [r7, #4]
240015a8:	f7ff f8a2 	bl	240006f0 <HAL_GetTick>
240015ac:	6138      	str	r0, [r7, #16]
240015ae:	68fb      	ldr	r3, [r7, #12]
240015b0:	f893 3040 	ldrb.w	r3, [r3, #64]	@ 0x40
240015b4:	b2db      	uxtb	r3, r3
240015b6:	2b01      	cmp	r3, #1
240015b8:	d101      	bne.n	240015be <HAL_QSPI_Command+0x22>
240015ba:	2302      	movs	r3, #2
240015bc:	e048      	b.n	24001650 <HAL_QSPI_Command+0xb4>
240015be:	68fb      	ldr	r3, [r7, #12]
240015c0:	2201      	movs	r2, #1
240015c2:	f883 2040 	strb.w	r2, [r3, #64]	@ 0x40
240015c6:	68fb      	ldr	r3, [r7, #12]
240015c8:	f893 3041 	ldrb.w	r3, [r3, #65]	@ 0x41
240015cc:	b2db      	uxtb	r3, r3
240015ce:	2b01      	cmp	r3, #1
240015d0:	d137      	bne.n	24001642 <HAL_QSPI_Command+0xa6>
240015d2:	68fb      	ldr	r3, [r7, #12]
240015d4:	2200      	movs	r2, #0
240015d6:	645a      	str	r2, [r3, #68]	@ 0x44
240015d8:	68fb      	ldr	r3, [r7, #12]
240015da:	2202      	movs	r2, #2
240015dc:	f883 2041 	strb.w	r2, [r3, #65]	@ 0x41
240015e0:	687b      	ldr	r3, [r7, #4]
240015e2:	9300      	str	r3, [sp, #0]
240015e4:	693b      	ldr	r3, [r7, #16]
240015e6:	2200      	movs	r2, #0
240015e8:	2120      	movs	r1, #32
240015ea:	68f8      	ldr	r0, [r7, #12]
240015ec:	f000 f9ad 	bl	2400194a <QSPI_WaitFlagStateUntilTimeout>
240015f0:	4603      	mov	r3, r0
240015f2:	75fb      	strb	r3, [r7, #23]
240015f4:	7dfb      	ldrb	r3, [r7, #23]
240015f6:	2b00      	cmp	r3, #0
240015f8:	d125      	bne.n	24001646 <HAL_QSPI_Command+0xaa>
240015fa:	2200      	movs	r2, #0
240015fc:	68b9      	ldr	r1, [r7, #8]
240015fe:	68f8      	ldr	r0, [r7, #12]
24001600:	f000 f9da 	bl	240019b8 <QSPI_Config>
24001604:	68bb      	ldr	r3, [r7, #8]
24001606:	6a5b      	ldr	r3, [r3, #36]	@ 0x24
24001608:	2b00      	cmp	r3, #0
2400160a:	d115      	bne.n	24001638 <HAL_QSPI_Command+0x9c>
2400160c:	687b      	ldr	r3, [r7, #4]
2400160e:	9300      	str	r3, [sp, #0]
24001610:	693b      	ldr	r3, [r7, #16]
24001612:	2201      	movs	r2, #1
24001614:	2102      	movs	r1, #2
24001616:	68f8      	ldr	r0, [r7, #12]
24001618:	f000 f997 	bl	2400194a <QSPI_WaitFlagStateUntilTimeout>
2400161c:	4603      	mov	r3, r0
2400161e:	75fb      	strb	r3, [r7, #23]
24001620:	7dfb      	ldrb	r3, [r7, #23]
24001622:	2b00      	cmp	r3, #0
24001624:	d10f      	bne.n	24001646 <HAL_QSPI_Command+0xaa>
24001626:	68fb      	ldr	r3, [r7, #12]
24001628:	681b      	ldr	r3, [r3, #0]
2400162a:	2202      	movs	r2, #2
2400162c:	60da      	str	r2, [r3, #12]
2400162e:	68fb      	ldr	r3, [r7, #12]
24001630:	2201      	movs	r2, #1
24001632:	f883 2041 	strb.w	r2, [r3, #65]	@ 0x41
24001636:	e006      	b.n	24001646 <HAL_QSPI_Command+0xaa>
24001638:	68fb      	ldr	r3, [r7, #12]
2400163a:	2201      	movs	r2, #1
2400163c:	f883 2041 	strb.w	r2, [r3, #65]	@ 0x41
24001640:	e001      	b.n	24001646 <HAL_QSPI_Command+0xaa>
24001642:	2302      	movs	r3, #2
24001644:	75fb      	strb	r3, [r7, #23]
24001646:	68fb      	ldr	r3, [r7, #12]
24001648:	2200      	movs	r2, #0
2400164a:	f883 2040 	strb.w	r2, [r3, #64]	@ 0x40
2400164e:	7dfb      	ldrb	r3, [r7, #23]
24001650:	4618      	mov	r0, r3
24001652:	3718      	adds	r7, #24
24001654:	46bd      	mov	sp, r7
24001656:	bd80      	pop	{r7, pc}

24001658 <HAL_QSPI_Transmit>:
24001658:	b580      	push	{r7, lr}
2400165a:	b08a      	sub	sp, #40	@ 0x28
2400165c:	af02      	add	r7, sp, #8
2400165e:	60f8      	str	r0, [r7, #12]
24001660:	60b9      	str	r1, [r7, #8]
24001662:	607a      	str	r2, [r7, #4]
24001664:	2300      	movs	r3, #0
24001666:	77fb      	strb	r3, [r7, #31]
24001668:	f7ff f842 	bl	240006f0 <HAL_GetTick>
2400166c:	61b8      	str	r0, [r7, #24]
2400166e:	68fb      	ldr	r3, [r7, #12]
24001670:	681b      	ldr	r3, [r3, #0]
24001672:	3320      	adds	r3, #32
24001674:	617b      	str	r3, [r7, #20]
24001676:	68fb      	ldr	r3, [r7, #12]
24001678:	f893 3040 	ldrb.w	r3, [r3, #64]	@ 0x40
2400167c:	b2db      	uxtb	r3, r3
2400167e:	2b01      	cmp	r3, #1
24001680:	d101      	bne.n	24001686 <HAL_QSPI_Transmit+0x2e>
24001682:	2302      	movs	r3, #2
24001684:	e076      	b.n	24001774 <HAL_QSPI_Transmit+0x11c>
24001686:	68fb      	ldr	r3, [r7, #12]
24001688:	2201      	movs	r2, #1
2400168a:	f883 2040 	strb.w	r2, [r3, #64]	@ 0x40
2400168e:	68fb      	ldr	r3, [r7, #12]
24001690:	f893 3041 	ldrb.w	r3, [r3, #65]	@ 0x41
24001694:	b2db      	uxtb	r3, r3
24001696:	2b01      	cmp	r3, #1
24001698:	d165      	bne.n	24001766 <HAL_QSPI_Transmit+0x10e>
2400169a:	68fb      	ldr	r3, [r7, #12]
2400169c:	2200      	movs	r2, #0
2400169e:	645a      	str	r2, [r3, #68]	@ 0x44
240016a0:	68bb      	ldr	r3, [r7, #8]
240016a2:	2b00      	cmp	r3, #0
240016a4:	d056      	beq.n	24001754 <HAL_QSPI_Transmit+0xfc>
240016a6:	68fb      	ldr	r3, [r7, #12]
240016a8:	2212      	movs	r2, #18
240016aa:	f883 2041 	strb.w	r2, [r3, #65]	@ 0x41
240016ae:	68fb      	ldr	r3, [r7, #12]
240016b0:	681b      	ldr	r3, [r3, #0]
240016b2:	691b      	ldr	r3, [r3, #16]
240016b4:	1c5a      	adds	r2, r3, #1
240016b6:	68fb      	ldr	r3, [r7, #12]
240016b8:	62da      	str	r2, [r3, #44]	@ 0x2c
240016ba:	68fb      	ldr	r3, [r7, #12]
240016bc:	681b      	ldr	r3, [r3, #0]
240016be:	691b      	ldr	r3, [r3, #16]
240016c0:	1c5a      	adds	r2, r3, #1
240016c2:	68fb      	ldr	r3, [r7, #12]
240016c4:	629a      	str	r2, [r3, #40]	@ 0x28
240016c6:	68fb      	ldr	r3, [r7, #12]
240016c8:	68ba      	ldr	r2, [r7, #8]
240016ca:	625a      	str	r2, [r3, #36]	@ 0x24
240016cc:	68fb      	ldr	r3, [r7, #12]
240016ce:	681b      	ldr	r3, [r3, #0]
240016d0:	695a      	ldr	r2, [r3, #20]
240016d2:	68fb      	ldr	r3, [r7, #12]
240016d4:	681b      	ldr	r3, [r3, #0]
240016d6:	f022 6240 	bic.w	r2, r2, #201326592	@ 0xc000000
240016da:	615a      	str	r2, [r3, #20]
240016dc:	e01b      	b.n	24001716 <HAL_QSPI_Transmit+0xbe>
240016de:	687b      	ldr	r3, [r7, #4]
240016e0:	9300      	str	r3, [sp, #0]
240016e2:	69bb      	ldr	r3, [r7, #24]
240016e4:	2201      	movs	r2, #1
240016e6:	2104      	movs	r1, #4
240016e8:	68f8      	ldr	r0, [r7, #12]
240016ea:	f000 f92e 	bl	2400194a <QSPI_WaitFlagStateUntilTimeout>
240016ee:	4603      	mov	r3, r0
240016f0:	77fb      	strb	r3, [r7, #31]
240016f2:	7ffb      	ldrb	r3, [r7, #31]
240016f4:	2b00      	cmp	r3, #0
240016f6:	d113      	bne.n	24001720 <HAL_QSPI_Transmit+0xc8>
240016f8:	68fb      	ldr	r3, [r7, #12]
240016fa:	6a5b      	ldr	r3, [r3, #36]	@ 0x24
240016fc:	781a      	ldrb	r2, [r3, #0]
240016fe:	697b      	ldr	r3, [r7, #20]
24001700:	701a      	strb	r2, [r3, #0]
24001702:	68fb      	ldr	r3, [r7, #12]
24001704:	6a5b      	ldr	r3, [r3, #36]	@ 0x24
24001706:	1c5a      	adds	r2, r3, #1
24001708:	68fb      	ldr	r3, [r7, #12]
2400170a:	625a      	str	r2, [r3, #36]	@ 0x24
2400170c:	68fb      	ldr	r3, [r7, #12]
2400170e:	6adb      	ldr	r3, [r3, #44]	@ 0x2c
24001710:	1e5a      	subs	r2, r3, #1
24001712:	68fb      	ldr	r3, [r7, #12]
24001714:	62da      	str	r2, [r3, #44]	@ 0x2c
24001716:	68fb      	ldr	r3, [r7, #12]
24001718:	6adb      	ldr	r3, [r3, #44]	@ 0x2c
2400171a:	2b00      	cmp	r3, #0
2400171c:	d1df      	bne.n	240016de <HAL_QSPI_Transmit+0x86>
2400171e:	e000      	b.n	24001722 <HAL_QSPI_Transmit+0xca>
24001720:	bf00      	nop
24001722:	7ffb      	ldrb	r3, [r7, #31]
24001724:	2b00      	cmp	r3, #0
24001726:	d110      	bne.n	2400174a <HAL_QSPI_Transmit+0xf2>
24001728:	687b      	ldr	r3, [r7, #4]
2400172a:	9300      	str	r3, [sp, #0]
2400172c:	69bb      	ldr	r3, [r7, #24]
2400172e:	2201      	movs	r2, #1
24001730:	2102      	movs	r1, #2
24001732:	68f8      	ldr	r0, [r7, #12]
24001734:	f000 f909 	bl	2400194a <QSPI_WaitFlagStateUntilTimeout>
24001738:	4603      	mov	r3, r0
2400173a:	77fb      	strb	r3, [r7, #31]
2400173c:	7ffb      	ldrb	r3, [r7, #31]
2400173e:	2b00      	cmp	r3, #0
24001740:	d103      	bne.n	2400174a <HAL_QSPI_Transmit+0xf2>
24001742:	68fb      	ldr	r3, [r7, #12]
24001744:	681b      	ldr	r3, [r3, #0]
24001746:	2202      	movs	r2, #2
24001748:	60da      	str	r2, [r3, #12]
2400174a:	68fb      	ldr	r3, [r7, #12]
2400174c:	2201      	movs	r2, #1
2400174e:	f883 2041 	strb.w	r2, [r3, #65]	@ 0x41
24001752:	e00a      	b.n	2400176a <HAL_QSPI_Transmit+0x112>
24001754:	68fb      	ldr	r3, [r7, #12]
24001756:	6c5b      	ldr	r3, [r3, #68]	@ 0x44
24001758:	f043 0208 	orr.w	r2, r3, #8
2400175c:	68fb      	ldr	r3, [r7, #12]
2400175e:	645a      	str	r2, [r3, #68]	@ 0x44
24001760:	2301      	movs	r3, #1
24001762:	77fb      	strb	r3, [r7, #31]
24001764:	e001      	b.n	2400176a <HAL_QSPI_Transmit+0x112>
24001766:	2302      	movs	r3, #2
24001768:	77fb      	strb	r3, [r7, #31]
2400176a:	68fb      	ldr	r3, [r7, #12]
2400176c:	2200      	movs	r2, #0
2400176e:	f883 2040 	strb.w	r2, [r3, #64]	@ 0x40
24001772:	7ffb      	ldrb	r3, [r7, #31]
24001774:	4618      	mov	r0, r3
24001776:	3720      	adds	r7, #32
24001778:	46bd      	mov	sp, r7
2400177a:	bd80      	pop	{r7, pc}

2400177c <HAL_QSPI_AutoPolling>:
2400177c:	b580      	push	{r7, lr}
2400177e:	b088      	sub	sp, #32
24001780:	af02      	add	r7, sp, #8
24001782:	60f8      	str	r0, [r7, #12]
24001784:	60b9      	str	r1, [r7, #8]
24001786:	607a      	str	r2, [r7, #4]
24001788:	603b      	str	r3, [r7, #0]
2400178a:	f7fe ffb1 	bl	240006f0 <HAL_GetTick>
2400178e:	6138      	str	r0, [r7, #16]
24001790:	68fb      	ldr	r3, [r7, #12]
24001792:	f893 3040 	ldrb.w	r3, [r3, #64]	@ 0x40
24001796:	b2db      	uxtb	r3, r3
24001798:	2b01      	cmp	r3, #1
2400179a:	d101      	bne.n	240017a0 <HAL_QSPI_AutoPolling+0x24>
2400179c:	2302      	movs	r3, #2
2400179e:	e060      	b.n	24001862 <HAL_QSPI_AutoPolling+0xe6>
240017a0:	68fb      	ldr	r3, [r7, #12]
240017a2:	2201      	movs	r2, #1
240017a4:	f883 2040 	strb.w	r2, [r3, #64]	@ 0x40
240017a8:	68fb      	ldr	r3, [r7, #12]
240017aa:	f893 3041 	ldrb.w	r3, [r3, #65]	@ 0x41
240017ae:	b2db      	uxtb	r3, r3
240017b0:	2b01      	cmp	r3, #1
240017b2:	d14f      	bne.n	24001854 <HAL_QSPI_AutoPolling+0xd8>
240017b4:	68fb      	ldr	r3, [r7, #12]
240017b6:	2200      	movs	r2, #0
240017b8:	645a      	str	r2, [r3, #68]	@ 0x44
240017ba:	68fb      	ldr	r3, [r7, #12]
240017bc:	2242      	movs	r2, #66	@ 0x42
240017be:	f883 2041 	strb.w	r2, [r3, #65]	@ 0x41
240017c2:	683b      	ldr	r3, [r7, #0]
240017c4:	9300      	str	r3, [sp, #0]
240017c6:	693b      	ldr	r3, [r7, #16]
240017c8:	2200      	movs	r2, #0
240017ca:	2120      	movs	r1, #32
240017cc:	68f8      	ldr	r0, [r7, #12]
240017ce:	f000 f8bc 	bl	2400194a <QSPI_WaitFlagStateUntilTimeout>
240017d2:	4603      	mov	r3, r0
240017d4:	75fb      	strb	r3, [r7, #23]
240017d6:	7dfb      	ldrb	r3, [r7, #23]
240017d8:	2b00      	cmp	r3, #0
240017da:	d13d      	bne.n	24001858 <HAL_QSPI_AutoPolling+0xdc>
240017dc:	68fb      	ldr	r3, [r7, #12]
240017de:	681b      	ldr	r3, [r3, #0]
240017e0:	687a      	ldr	r2, [r7, #4]
240017e2:	6812      	ldr	r2, [r2, #0]
240017e4:	629a      	str	r2, [r3, #40]	@ 0x28
240017e6:	68fb      	ldr	r3, [r7, #12]
240017e8:	681b      	ldr	r3, [r3, #0]
240017ea:	687a      	ldr	r2, [r7, #4]
240017ec:	6852      	ldr	r2, [r2, #4]
240017ee:	625a      	str	r2, [r3, #36]	@ 0x24
240017f0:	68fb      	ldr	r3, [r7, #12]
240017f2:	681b      	ldr	r3, [r3, #0]
240017f4:	687a      	ldr	r2, [r7, #4]
240017f6:	6892      	ldr	r2, [r2, #8]
240017f8:	62da      	str	r2, [r3, #44]	@ 0x2c
240017fa:	68fb      	ldr	r3, [r7, #12]
240017fc:	681b      	ldr	r3, [r3, #0]
240017fe:	681b      	ldr	r3, [r3, #0]
24001800:	f423 0240 	bic.w	r2, r3, #12582912	@ 0xc00000
24001804:	687b      	ldr	r3, [r7, #4]
24001806:	691b      	ldr	r3, [r3, #16]
24001808:	431a      	orrs	r2, r3
2400180a:	68fb      	ldr	r3, [r7, #12]
2400180c:	681b      	ldr	r3, [r3, #0]
2400180e:	f442 0280 	orr.w	r2, r2, #4194304	@ 0x400000
24001812:	601a      	str	r2, [r3, #0]
24001814:	687b      	ldr	r3, [r7, #4]
24001816:	68da      	ldr	r2, [r3, #12]
24001818:	68bb      	ldr	r3, [r7, #8]
2400181a:	629a      	str	r2, [r3, #40]	@ 0x28
2400181c:	f04f 6200 	mov.w	r2, #134217728	@ 0x8000000
24001820:	68b9      	ldr	r1, [r7, #8]
24001822:	68f8      	ldr	r0, [r7, #12]
24001824:	f000 f8c8 	bl	240019b8 <QSPI_Config>
24001828:	683b      	ldr	r3, [r7, #0]
2400182a:	9300      	str	r3, [sp, #0]
2400182c:	693b      	ldr	r3, [r7, #16]
2400182e:	2201      	movs	r2, #1
24001830:	2108      	movs	r1, #8
24001832:	68f8      	ldr	r0, [r7, #12]
24001834:	f000 f889 	bl	2400194a <QSPI_WaitFlagStateUntilTimeout>
24001838:	4603      	mov	r3, r0
2400183a:	75fb      	strb	r3, [r7, #23]
2400183c:	7dfb      	ldrb	r3, [r7, #23]
2400183e:	2b00      	cmp	r3, #0
24001840:	d10a      	bne.n	24001858 <HAL_QSPI_AutoPolling+0xdc>
24001842:	68fb      	ldr	r3, [r7, #12]
24001844:	681b      	ldr	r3, [r3, #0]
24001846:	2208      	movs	r2, #8
24001848:	60da      	str	r2, [r3, #12]
2400184a:	68fb      	ldr	r3, [r7, #12]
2400184c:	2201      	movs	r2, #1
2400184e:	f883 2041 	strb.w	r2, [r3, #65]	@ 0x41
24001852:	e001      	b.n	24001858 <HAL_QSPI_AutoPolling+0xdc>
24001854:	2302      	movs	r3, #2
24001856:	75fb      	strb	r3, [r7, #23]
24001858:	68fb      	ldr	r3, [r7, #12]
2400185a:	2200      	movs	r2, #0
2400185c:	f883 2040 	strb.w	r2, [r3, #64]	@ 0x40
24001860:	7dfb      	ldrb	r3, [r7, #23]
24001862:	4618      	mov	r0, r3
24001864:	3718      	adds	r7, #24
24001866:	46bd      	mov	sp, r7
24001868:	bd80      	pop	{r7, pc}

2400186a <HAL_QSPI_MemoryMapped>:
2400186a:	b580      	push	{r7, lr}
2400186c:	b088      	sub	sp, #32
2400186e:	af02      	add	r7, sp, #8
24001870:	60f8      	str	r0, [r7, #12]
24001872:	60b9      	str	r1, [r7, #8]
24001874:	607a      	str	r2, [r7, #4]
24001876:	f7fe ff3b 	bl	240006f0 <HAL_GetTick>
2400187a:	6138      	str	r0, [r7, #16]
2400187c:	68fb      	ldr	r3, [r7, #12]
2400187e:	f893 3040 	ldrb.w	r3, [r3, #64]	@ 0x40
24001882:	b2db      	uxtb	r3, r3
24001884:	2b01      	cmp	r3, #1
24001886:	d101      	bne.n	2400188c <HAL_QSPI_MemoryMapped+0x22>
24001888:	2302      	movs	r3, #2
2400188a:	e04c      	b.n	24001926 <HAL_QSPI_MemoryMapped+0xbc>
2400188c:	68fb      	ldr	r3, [r7, #12]
2400188e:	2201      	movs	r2, #1
24001890:	f883 2040 	strb.w	r2, [r3, #64]	@ 0x40
24001894:	68fb      	ldr	r3, [r7, #12]
24001896:	f893 3041 	ldrb.w	r3, [r3, #65]	@ 0x41
2400189a:	b2db      	uxtb	r3, r3
2400189c:	2b01      	cmp	r3, #1
2400189e:	d13b      	bne.n	24001918 <HAL_QSPI_MemoryMapped+0xae>
240018a0:	68fb      	ldr	r3, [r7, #12]
240018a2:	2200      	movs	r2, #0
240018a4:	645a      	str	r2, [r3, #68]	@ 0x44
240018a6:	68fb      	ldr	r3, [r7, #12]
240018a8:	2282      	movs	r2, #130	@ 0x82
240018aa:	f883 2041 	strb.w	r2, [r3, #65]	@ 0x41
240018ae:	68fb      	ldr	r3, [r7, #12]
240018b0:	6c9b      	ldr	r3, [r3, #72]	@ 0x48
240018b2:	9300      	str	r3, [sp, #0]
240018b4:	693b      	ldr	r3, [r7, #16]
240018b6:	2200      	movs	r2, #0
240018b8:	2120      	movs	r1, #32
240018ba:	68f8      	ldr	r0, [r7, #12]
240018bc:	f000 f845 	bl	2400194a <QSPI_WaitFlagStateUntilTimeout>
240018c0:	4603      	mov	r3, r0
240018c2:	75fb      	strb	r3, [r7, #23]
240018c4:	7dfb      	ldrb	r3, [r7, #23]
240018c6:	2b00      	cmp	r3, #0
240018c8:	d128      	bne.n	2400191c <HAL_QSPI_MemoryMapped+0xb2>
240018ca:	68fb      	ldr	r3, [r7, #12]
240018cc:	681b      	ldr	r3, [r3, #0]
240018ce:	681b      	ldr	r3, [r3, #0]
240018d0:	f023 0108 	bic.w	r1, r3, #8
240018d4:	687b      	ldr	r3, [r7, #4]
240018d6:	685a      	ldr	r2, [r3, #4]
240018d8:	68fb      	ldr	r3, [r7, #12]
240018da:	681b      	ldr	r3, [r3, #0]
240018dc:	430a      	orrs	r2, r1
240018de:	601a      	str	r2, [r3, #0]
240018e0:	687b      	ldr	r3, [r7, #4]
240018e2:	685b      	ldr	r3, [r3, #4]
240018e4:	2b08      	cmp	r3, #8
240018e6:	d110      	bne.n	2400190a <HAL_QSPI_MemoryMapped+0xa0>
240018e8:	68fb      	ldr	r3, [r7, #12]
240018ea:	681b      	ldr	r3, [r3, #0]
240018ec:	687a      	ldr	r2, [r7, #4]
240018ee:	6812      	ldr	r2, [r2, #0]
240018f0:	631a      	str	r2, [r3, #48]	@ 0x30
240018f2:	68fb      	ldr	r3, [r7, #12]
240018f4:	681b      	ldr	r3, [r3, #0]
240018f6:	2210      	movs	r2, #16
240018f8:	60da      	str	r2, [r3, #12]
240018fa:	68fb      	ldr	r3, [r7, #12]
240018fc:	681b      	ldr	r3, [r3, #0]
240018fe:	681a      	ldr	r2, [r3, #0]
24001900:	68fb      	ldr	r3, [r7, #12]
24001902:	681b      	ldr	r3, [r3, #0]
24001904:	f442 1280 	orr.w	r2, r2, #1048576	@ 0x100000
24001908:	601a      	str	r2, [r3, #0]
2400190a:	f04f 6240 	mov.w	r2, #201326592	@ 0xc000000
2400190e:	68b9      	ldr	r1, [r7, #8]
24001910:	68f8      	ldr	r0, [r7, #12]
24001912:	f000 f851 	bl	240019b8 <QSPI_Config>
24001916:	e001      	b.n	2400191c <HAL_QSPI_MemoryMapped+0xb2>
24001918:	2302      	movs	r3, #2
2400191a:	75fb      	strb	r3, [r7, #23]
2400191c:	68fb      	ldr	r3, [r7, #12]
2400191e:	2200      	movs	r2, #0
24001920:	f883 2040 	strb.w	r2, [r3, #64]	@ 0x40
24001924:	7dfb      	ldrb	r3, [r7, #23]
24001926:	4618      	mov	r0, r3
24001928:	3718      	adds	r7, #24
2400192a:	46bd      	mov	sp, r7
2400192c:	bd80      	pop	{r7, pc}

2400192e <HAL_QSPI_SetTimeout>:
2400192e:	b480      	push	{r7}
24001930:	b083      	sub	sp, #12
24001932:	af00      	add	r7, sp, #0
24001934:	6078      	str	r0, [r7, #4]
24001936:	6039      	str	r1, [r7, #0]
24001938:	687b      	ldr	r3, [r7, #4]
2400193a:	683a      	ldr	r2, [r7, #0]
2400193c:	649a      	str	r2, [r3, #72]	@ 0x48
2400193e:	bf00      	nop
24001940:	370c      	adds	r7, #12
24001942:	46bd      	mov	sp, r7
24001944:	f85d 7b04 	ldr.w	r7, [sp], #4
24001948:	4770      	bx	lr

2400194a <QSPI_WaitFlagStateUntilTimeout>:
2400194a:	b580      	push	{r7, lr}
2400194c:	b084      	sub	sp, #16
2400194e:	af00      	add	r7, sp, #0
24001950:	60f8      	str	r0, [r7, #12]
24001952:	60b9      	str	r1, [r7, #8]
24001954:	603b      	str	r3, [r7, #0]
24001956:	4613      	mov	r3, r2
24001958:	71fb      	strb	r3, [r7, #7]
2400195a:	e01a      	b.n	24001992 <QSPI_WaitFlagStateUntilTimeout+0x48>
2400195c:	69bb      	ldr	r3, [r7, #24]
2400195e:	f1b3 3fff 	cmp.w	r3, #4294967295
24001962:	d016      	beq.n	24001992 <QSPI_WaitFlagStateUntilTimeout+0x48>
24001964:	f7fe fec4 	bl	240006f0 <HAL_GetTick>
24001968:	4602      	mov	r2, r0
2400196a:	683b      	ldr	r3, [r7, #0]
2400196c:	1ad3      	subs	r3, r2, r3
2400196e:	69ba      	ldr	r2, [r7, #24]
24001970:	429a      	cmp	r2, r3
24001972:	d302      	bcc.n	2400197a <QSPI_WaitFlagStateUntilTimeout+0x30>
24001974:	69bb      	ldr	r3, [r7, #24]
24001976:	2b00      	cmp	r3, #0
24001978:	d10b      	bne.n	24001992 <QSPI_WaitFlagStateUntilTimeout+0x48>
2400197a:	68fb      	ldr	r3, [r7, #12]
2400197c:	2204      	movs	r2, #4
2400197e:	f883 2041 	strb.w	r2, [r3, #65]	@ 0x41
24001982:	68fb      	ldr	r3, [r7, #12]
24001984:	6c5b      	ldr	r3, [r3, #68]	@ 0x44
24001986:	f043 0201 	orr.w	r2, r3, #1
2400198a:	68fb      	ldr	r3, [r7, #12]
2400198c:	645a      	str	r2, [r3, #68]	@ 0x44
2400198e:	2301      	movs	r3, #1
24001990:	e00e      	b.n	240019b0 <QSPI_WaitFlagStateUntilTimeout+0x66>
24001992:	68fb      	ldr	r3, [r7, #12]
24001994:	681b      	ldr	r3, [r3, #0]
24001996:	689a      	ldr	r2, [r3, #8]
24001998:	68bb      	ldr	r3, [r7, #8]
2400199a:	4013      	ands	r3, r2
2400199c:	2b00      	cmp	r3, #0
2400199e:	bf14      	ite	ne
240019a0:	2301      	movne	r3, #1
240019a2:	2300      	moveq	r3, #0
240019a4:	b2db      	uxtb	r3, r3
240019a6:	461a      	mov	r2, r3
240019a8:	79fb      	ldrb	r3, [r7, #7]
240019aa:	429a      	cmp	r2, r3
240019ac:	d1d6      	bne.n	2400195c <QSPI_WaitFlagStateUntilTimeout+0x12>
240019ae:	2300      	movs	r3, #0
240019b0:	4618      	mov	r0, r3
240019b2:	3710      	adds	r7, #16
240019b4:	46bd      	mov	sp, r7
240019b6:	bd80      	pop	{r7, pc}

240019b8 <QSPI_Config>:
240019b8:	b480      	push	{r7}
240019ba:	b085      	sub	sp, #20
240019bc:	af00      	add	r7, sp, #0
240019be:	60f8      	str	r0, [r7, #12]
240019c0:	60b9      	str	r1, [r7, #8]
240019c2:	607a      	str	r2, [r7, #4]
240019c4:	68bb      	ldr	r3, [r7, #8]
240019c6:	6a5b      	ldr	r3, [r3, #36]	@ 0x24
240019c8:	2b00      	cmp	r3, #0
240019ca:	d009      	beq.n	240019e0 <QSPI_Config+0x28>
240019cc:	687b      	ldr	r3, [r7, #4]
240019ce:	f1b3 6f40 	cmp.w	r3, #201326592	@ 0xc000000
240019d2:	d005      	beq.n	240019e0 <QSPI_Config+0x28>
240019d4:	68bb      	ldr	r3, [r7, #8]
240019d6:	6a9a      	ldr	r2, [r3, #40]	@ 0x28
240019d8:	68fb      	ldr	r3, [r7, #12]
240019da:	681b      	ldr	r3, [r3, #0]
240019dc:	3a01      	subs	r2, #1
240019de:	611a      	str	r2, [r3, #16]
240019e0:	68bb      	ldr	r3, [r7, #8]
240019e2:	699b      	ldr	r3, [r3, #24]
240019e4:	2b00      	cmp	r3, #0
240019e6:	f000 80b9 	beq.w	24001b5c <QSPI_Config+0x1a4>
240019ea:	68bb      	ldr	r3, [r7, #8]
240019ec:	6a1b      	ldr	r3, [r3, #32]
240019ee:	2b00      	cmp	r3, #0
240019f0:	d05f      	beq.n	24001ab2 <QSPI_Config+0xfa>
240019f2:	68fb      	ldr	r3, [r7, #12]
240019f4:	681b      	ldr	r3, [r3, #0]
240019f6:	68ba      	ldr	r2, [r7, #8]
240019f8:	6892      	ldr	r2, [r2, #8]
240019fa:	61da      	str	r2, [r3, #28]
240019fc:	68bb      	ldr	r3, [r7, #8]
240019fe:	69db      	ldr	r3, [r3, #28]
24001a00:	2b00      	cmp	r3, #0
24001a02:	d031      	beq.n	24001a68 <QSPI_Config+0xb0>
24001a04:	68bb      	ldr	r3, [r7, #8]
24001a06:	6ada      	ldr	r2, [r3, #44]	@ 0x2c
24001a08:	68bb      	ldr	r3, [r7, #8]
24001a0a:	6b1b      	ldr	r3, [r3, #48]	@ 0x30
24001a0c:	431a      	orrs	r2, r3
24001a0e:	68bb      	ldr	r3, [r7, #8]
24001a10:	6b5b      	ldr	r3, [r3, #52]	@ 0x34
24001a12:	431a      	orrs	r2, r3
24001a14:	68bb      	ldr	r3, [r7, #8]
24001a16:	6a5b      	ldr	r3, [r3, #36]	@ 0x24
24001a18:	431a      	orrs	r2, r3
24001a1a:	68bb      	ldr	r3, [r7, #8]
24001a1c:	695b      	ldr	r3, [r3, #20]
24001a1e:	049b      	lsls	r3, r3, #18
24001a20:	431a      	orrs	r2, r3
24001a22:	68bb      	ldr	r3, [r7, #8]
24001a24:	691b      	ldr	r3, [r3, #16]
24001a26:	431a      	orrs	r2, r3
24001a28:	68bb      	ldr	r3, [r7, #8]
24001a2a:	6a1b      	ldr	r3, [r3, #32]
24001a2c:	431a      	orrs	r2, r3
24001a2e:	68bb      	ldr	r3, [r7, #8]
24001a30:	68db      	ldr	r3, [r3, #12]
24001a32:	431a      	orrs	r2, r3
24001a34:	68bb      	ldr	r3, [r7, #8]
24001a36:	69db      	ldr	r3, [r3, #28]
24001a38:	431a      	orrs	r2, r3
24001a3a:	68bb      	ldr	r3, [r7, #8]
24001a3c:	699b      	ldr	r3, [r3, #24]
24001a3e:	431a      	orrs	r2, r3
24001a40:	68bb      	ldr	r3, [r7, #8]
24001a42:	681b      	ldr	r3, [r3, #0]
24001a44:	ea42 0103 	orr.w	r1, r2, r3
24001a48:	68fb      	ldr	r3, [r7, #12]
24001a4a:	681b      	ldr	r3, [r3, #0]
24001a4c:	687a      	ldr	r2, [r7, #4]
24001a4e:	430a      	orrs	r2, r1
24001a50:	615a      	str	r2, [r3, #20]
24001a52:	687b      	ldr	r3, [r7, #4]
24001a54:	f1b3 6f40 	cmp.w	r3, #201326592	@ 0xc000000
24001a58:	f000 812e 	beq.w	24001cb8 <QSPI_Config+0x300>
24001a5c:	68fb      	ldr	r3, [r7, #12]
24001a5e:	681b      	ldr	r3, [r3, #0]
24001a60:	68ba      	ldr	r2, [r7, #8]
24001a62:	6852      	ldr	r2, [r2, #4]
24001a64:	619a      	str	r2, [r3, #24]
24001a66:	e127      	b.n	24001cb8 <QSPI_Config+0x300>
24001a68:	68bb      	ldr	r3, [r7, #8]
24001a6a:	6ada      	ldr	r2, [r3, #44]	@ 0x2c
24001a6c:	68bb      	ldr	r3, [r7, #8]
24001a6e:	6b1b      	ldr	r3, [r3, #48]	@ 0x30
24001a70:	431a      	orrs	r2, r3
24001a72:	68bb      	ldr	r3, [r7, #8]
24001a74:	6b5b      	ldr	r3, [r3, #52]	@ 0x34
24001a76:	431a      	orrs	r2, r3
24001a78:	68bb      	ldr	r3, [r7, #8]
24001a7a:	6a5b      	ldr	r3, [r3, #36]	@ 0x24
24001a7c:	431a      	orrs	r2, r3
24001a7e:	68bb      	ldr	r3, [r7, #8]
24001a80:	695b      	ldr	r3, [r3, #20]
24001a82:	049b      	lsls	r3, r3, #18
24001a84:	431a      	orrs	r2, r3
24001a86:	68bb      	ldr	r3, [r7, #8]
24001a88:	691b      	ldr	r3, [r3, #16]
24001a8a:	431a      	orrs	r2, r3
24001a8c:	68bb      	ldr	r3, [r7, #8]
24001a8e:	6a1b      	ldr	r3, [r3, #32]
24001a90:	431a      	orrs	r2, r3
24001a92:	68bb      	ldr	r3, [r7, #8]
24001a94:	69db      	ldr	r3, [r3, #28]
24001a96:	431a      	orrs	r2, r3
24001a98:	68bb      	ldr	r3, [r7, #8]
24001a9a:	699b      	ldr	r3, [r3, #24]
24001a9c:	431a      	orrs	r2, r3
24001a9e:	68bb      	ldr	r3, [r7, #8]
24001aa0:	681b      	ldr	r3, [r3, #0]
24001aa2:	ea42 0103 	orr.w	r1, r2, r3
24001aa6:	68fb      	ldr	r3, [r7, #12]
24001aa8:	681b      	ldr	r3, [r3, #0]
24001aaa:	687a      	ldr	r2, [r7, #4]
24001aac:	430a      	orrs	r2, r1
24001aae:	615a      	str	r2, [r3, #20]
24001ab0:	e102      	b.n	24001cb8 <QSPI_Config+0x300>
24001ab2:	68bb      	ldr	r3, [r7, #8]
24001ab4:	69db      	ldr	r3, [r3, #28]
24001ab6:	2b00      	cmp	r3, #0
24001ab8:	d02e      	beq.n	24001b18 <QSPI_Config+0x160>
24001aba:	68bb      	ldr	r3, [r7, #8]
24001abc:	6ada      	ldr	r2, [r3, #44]	@ 0x2c
24001abe:	68bb      	ldr	r3, [r7, #8]
24001ac0:	6b1b      	ldr	r3, [r3, #48]	@ 0x30
24001ac2:	431a      	orrs	r2, r3
24001ac4:	68bb      	ldr	r3, [r7, #8]
24001ac6:	6b5b      	ldr	r3, [r3, #52]	@ 0x34
24001ac8:	431a      	orrs	r2, r3
24001aca:	68bb      	ldr	r3, [r7, #8]
24001acc:	6a5b      	ldr	r3, [r3, #36]	@ 0x24
24001ace:	431a      	orrs	r2, r3
24001ad0:	68bb      	ldr	r3, [r7, #8]
24001ad2:	695b      	ldr	r3, [r3, #20]
24001ad4:	049b      	lsls	r3, r3, #18
24001ad6:	431a      	orrs	r2, r3
24001ad8:	68bb      	ldr	r3, [r7, #8]
24001ada:	6a1b      	ldr	r3, [r3, #32]
24001adc:	431a      	orrs	r2, r3
24001ade:	68bb      	ldr	r3, [r7, #8]
24001ae0:	68db      	ldr	r3, [r3, #12]
24001ae2:	431a      	orrs	r2, r3
24001ae4:	68bb      	ldr	r3, [r7, #8]
24001ae6:	69db      	ldr	r3, [r3, #28]
24001ae8:	431a      	orrs	r2, r3
24001aea:	68bb      	ldr	r3, [r7, #8]
24001aec:	699b      	ldr	r3, [r3, #24]
24001aee:	431a      	orrs	r2, r3
24001af0:	68bb      	ldr	r3, [r7, #8]
24001af2:	681b      	ldr	r3, [r3, #0]
24001af4:	ea42 0103 	orr.w	r1, r2, r3
24001af8:	68fb      	ldr	r3, [r7, #12]
24001afa:	681b      	ldr	r3, [r3, #0]
24001afc:	687a      	ldr	r2, [r7, #4]
24001afe:	430a      	orrs	r2, r1
24001b00:	615a      	str	r2, [r3, #20]
24001b02:	687b      	ldr	r3, [r7, #4]
24001b04:	f1b3 6f40 	cmp.w	r3, #201326592	@ 0xc000000
24001b08:	f000 80d6 	beq.w	24001cb8 <QSPI_Config+0x300>
24001b0c:	68fb      	ldr	r3, [r7, #12]
24001b0e:	681b      	ldr	r3, [r3, #0]
24001b10:	68ba      	ldr	r2, [r7, #8]
24001b12:	6852      	ldr	r2, [r2, #4]
24001b14:	619a      	str	r2, [r3, #24]
24001b16:	e0cf      	b.n	24001cb8 <QSPI_Config+0x300>
24001b18:	68bb      	ldr	r3, [r7, #8]
24001b1a:	6ada      	ldr	r2, [r3, #44]	@ 0x2c
24001b1c:	68bb      	ldr	r3, [r7, #8]
24001b1e:	6b1b      	ldr	r3, [r3, #48]	@ 0x30
24001b20:	431a      	orrs	r2, r3
24001b22:	68bb      	ldr	r3, [r7, #8]
24001b24:	6b5b      	ldr	r3, [r3, #52]	@ 0x34
24001b26:	431a      	orrs	r2, r3
24001b28:	68bb      	ldr	r3, [r7, #8]
24001b2a:	6a5b      	ldr	r3, [r3, #36]	@ 0x24
24001b2c:	431a      	orrs	r2, r3
24001b2e:	68bb      	ldr	r3, [r7, #8]
24001b30:	695b      	ldr	r3, [r3, #20]
24001b32:	049b      	lsls	r3, r3, #18
24001b34:	431a      	orrs	r2, r3
24001b36:	68bb      	ldr	r3, [r7, #8]
24001b38:	6a1b      	ldr	r3, [r3, #32]
24001b3a:	431a      	orrs	r2, r3
24001b3c:	68bb      	ldr	r3, [r7, #8]
24001b3e:	69db      	ldr	r3, [r3, #28]
24001b40:	431a      	orrs	r2, r3
24001b42:	68bb      	ldr	r3, [r7, #8]
24001b44:	699b      	ldr	r3, [r3, #24]
24001b46:	431a      	orrs	r2, r3
24001b48:	68bb      	ldr	r3, [r7, #8]
24001b4a:	681b      	ldr	r3, [r3, #0]
24001b4c:	ea42 0103 	orr.w	r1, r2, r3
24001b50:	68fb      	ldr	r3, [r7, #12]
24001b52:	681b      	ldr	r3, [r3, #0]
24001b54:	687a      	ldr	r2, [r7, #4]
24001b56:	430a      	orrs	r2, r1
24001b58:	615a      	str	r2, [r3, #20]
24001b5a:	e0ad      	b.n	24001cb8 <QSPI_Config+0x300>
24001b5c:	68bb      	ldr	r3, [r7, #8]
24001b5e:	6a1b      	ldr	r3, [r3, #32]
24001b60:	2b00      	cmp	r3, #0
24001b62:	d058      	beq.n	24001c16 <QSPI_Config+0x25e>
24001b64:	68fb      	ldr	r3, [r7, #12]
24001b66:	681b      	ldr	r3, [r3, #0]
24001b68:	68ba      	ldr	r2, [r7, #8]
24001b6a:	6892      	ldr	r2, [r2, #8]
24001b6c:	61da      	str	r2, [r3, #28]
24001b6e:	68bb      	ldr	r3, [r7, #8]
24001b70:	69db      	ldr	r3, [r3, #28]
24001b72:	2b00      	cmp	r3, #0
24001b74:	d02d      	beq.n	24001bd2 <QSPI_Config+0x21a>
24001b76:	68bb      	ldr	r3, [r7, #8]
24001b78:	6ada      	ldr	r2, [r3, #44]	@ 0x2c
24001b7a:	68bb      	ldr	r3, [r7, #8]
24001b7c:	6b1b      	ldr	r3, [r3, #48]	@ 0x30
24001b7e:	431a      	orrs	r2, r3
24001b80:	68bb      	ldr	r3, [r7, #8]
24001b82:	6b5b      	ldr	r3, [r3, #52]	@ 0x34
24001b84:	431a      	orrs	r2, r3
24001b86:	68bb      	ldr	r3, [r7, #8]
24001b88:	6a5b      	ldr	r3, [r3, #36]	@ 0x24
24001b8a:	431a      	orrs	r2, r3
24001b8c:	68bb      	ldr	r3, [r7, #8]
24001b8e:	695b      	ldr	r3, [r3, #20]
24001b90:	049b      	lsls	r3, r3, #18
24001b92:	431a      	orrs	r2, r3
24001b94:	68bb      	ldr	r3, [r7, #8]
24001b96:	691b      	ldr	r3, [r3, #16]
24001b98:	431a      	orrs	r2, r3
24001b9a:	68bb      	ldr	r3, [r7, #8]
24001b9c:	6a1b      	ldr	r3, [r3, #32]
24001b9e:	431a      	orrs	r2, r3
24001ba0:	68bb      	ldr	r3, [r7, #8]
24001ba2:	68db      	ldr	r3, [r3, #12]
24001ba4:	431a      	orrs	r2, r3
24001ba6:	68bb      	ldr	r3, [r7, #8]
24001ba8:	69db      	ldr	r3, [r3, #28]
24001baa:	431a      	orrs	r2, r3
24001bac:	68bb      	ldr	r3, [r7, #8]
24001bae:	699b      	ldr	r3, [r3, #24]
24001bb0:	ea42 0103 	orr.w	r1, r2, r3
24001bb4:	68fb      	ldr	r3, [r7, #12]
24001bb6:	681b      	ldr	r3, [r3, #0]
24001bb8:	687a      	ldr	r2, [r7, #4]
24001bba:	430a      	orrs	r2, r1
24001bbc:	615a      	str	r2, [r3, #20]
24001bbe:	687b      	ldr	r3, [r7, #4]
24001bc0:	f1b3 6f40 	cmp.w	r3, #201326592	@ 0xc000000
24001bc4:	d078      	beq.n	24001cb8 <QSPI_Config+0x300>
24001bc6:	68fb      	ldr	r3, [r7, #12]
24001bc8:	681b      	ldr	r3, [r3, #0]
24001bca:	68ba      	ldr	r2, [r7, #8]
24001bcc:	6852      	ldr	r2, [r2, #4]
24001bce:	619a      	str	r2, [r3, #24]
24001bd0:	e072      	b.n	24001cb8 <QSPI_Config+0x300>
24001bd2:	68bb      	ldr	r3, [r7, #8]
24001bd4:	6ada      	ldr	r2, [r3, #44]	@ 0x2c
24001bd6:	68bb      	ldr	r3, [r7, #8]
24001bd8:	6b1b      	ldr	r3, [r3, #48]	@ 0x30
24001bda:	431a      	orrs	r2, r3
24001bdc:	68bb      	ldr	r3, [r7, #8]
24001bde:	6b5b      	ldr	r3, [r3, #52]	@ 0x34
24001be0:	431a      	orrs	r2, r3
24001be2:	68bb      	ldr	r3, [r7, #8]
24001be4:	6a5b      	ldr	r3, [r3, #36]	@ 0x24
24001be6:	431a      	orrs	r2, r3
24001be8:	68bb      	ldr	r3, [r7, #8]
24001bea:	695b      	ldr	r3, [r3, #20]
24001bec:	049b      	lsls	r3, r3, #18
24001bee:	431a      	orrs	r2, r3
24001bf0:	68bb      	ldr	r3, [r7, #8]
24001bf2:	691b      	ldr	r3, [r3, #16]
24001bf4:	431a      	orrs	r2, r3
24001bf6:	68bb      	ldr	r3, [r7, #8]
24001bf8:	6a1b      	ldr	r3, [r3, #32]
24001bfa:	431a      	orrs	r2, r3
24001bfc:	68bb      	ldr	r3, [r7, #8]
24001bfe:	69db      	ldr	r3, [r3, #28]
24001c00:	431a      	orrs	r2, r3
24001c02:	68bb      	ldr	r3, [r7, #8]
24001c04:	699b      	ldr	r3, [r3, #24]
24001c06:	ea42 0103 	orr.w	r1, r2, r3
24001c0a:	68fb      	ldr	r3, [r7, #12]
24001c0c:	681b      	ldr	r3, [r3, #0]
24001c0e:	687a      	ldr	r2, [r7, #4]
24001c10:	430a      	orrs	r2, r1
24001c12:	615a      	str	r2, [r3, #20]
24001c14:	e050      	b.n	24001cb8 <QSPI_Config+0x300>
24001c16:	68bb      	ldr	r3, [r7, #8]
24001c18:	69db      	ldr	r3, [r3, #28]
24001c1a:	2b00      	cmp	r3, #0
24001c1c:	d02a      	beq.n	24001c74 <QSPI_Config+0x2bc>
24001c1e:	68bb      	ldr	r3, [r7, #8]
24001c20:	6ada      	ldr	r2, [r3, #44]	@ 0x2c
24001c22:	68bb      	ldr	r3, [r7, #8]
24001c24:	6b1b      	ldr	r3, [r3, #48]	@ 0x30
24001c26:	431a      	orrs	r2, r3
24001c28:	68bb      	ldr	r3, [r7, #8]
24001c2a:	6b5b      	ldr	r3, [r3, #52]	@ 0x34
24001c2c:	431a      	orrs	r2, r3
24001c2e:	68bb      	ldr	r3, [r7, #8]
24001c30:	6a5b      	ldr	r3, [r3, #36]	@ 0x24
24001c32:	431a      	orrs	r2, r3
24001c34:	68bb      	ldr	r3, [r7, #8]
24001c36:	695b      	ldr	r3, [r3, #20]
24001c38:	049b      	lsls	r3, r3, #18
24001c3a:	431a      	orrs	r2, r3
24001c3c:	68bb      	ldr	r3, [r7, #8]
24001c3e:	6a1b      	ldr	r3, [r3, #32]
24001c40:	431a      	orrs	r2, r3
24001c42:	68bb      	ldr	r3, [r7, #8]
24001c44:	68db      	ldr	r3, [r3, #12]
24001c46:	431a      	orrs	r2, r3
24001c48:	68bb      	ldr	r3, [r7, #8]
24001c4a:	69db      	ldr	r3, [r3, #28]
24001c4c:	431a      	orrs	r2, r3
24001c4e:	68bb      	ldr	r3, [r7, #8]
24001c50:	699b      	ldr	r3, [r3, #24]
24001c52:	ea42 0103 	orr.w	r1, r2, r3
24001c56:	68fb      	ldr	r3, [r7, #12]
24001c58:	681b      	ldr	r3, [r3, #0]
24001c5a:	687a      	ldr	r2, [r7, #4]
24001c5c:	430a      	orrs	r2, r1
24001c5e:	615a      	str	r2, [r3, #20]
24001c60:	687b      	ldr	r3, [r7, #4]
24001c62:	f1b3 6f40 	cmp.w	r3, #201326592	@ 0xc000000
24001c66:	d027      	beq.n	24001cb8 <QSPI_Config+0x300>
24001c68:	68fb      	ldr	r3, [r7, #12]
24001c6a:	681b      	ldr	r3, [r3, #0]
24001c6c:	68ba      	ldr	r2, [r7, #8]
24001c6e:	6852      	ldr	r2, [r2, #4]
24001c70:	619a      	str	r2, [r3, #24]
24001c72:	e021      	b.n	24001cb8 <QSPI_Config+0x300>
24001c74:	68bb      	ldr	r3, [r7, #8]
24001c76:	6a5b      	ldr	r3, [r3, #36]	@ 0x24
24001c78:	2b00      	cmp	r3, #0
24001c7a:	d01d      	beq.n	24001cb8 <QSPI_Config+0x300>
24001c7c:	68bb      	ldr	r3, [r7, #8]
24001c7e:	6ada      	ldr	r2, [r3, #44]	@ 0x2c
24001c80:	68bb      	ldr	r3, [r7, #8]
24001c82:	6b1b      	ldr	r3, [r3, #48]	@ 0x30
24001c84:	431a      	orrs	r2, r3
24001c86:	68bb      	ldr	r3, [r7, #8]
24001c88:	6b5b      	ldr	r3, [r3, #52]	@ 0x34
24001c8a:	431a      	orrs	r2, r3
24001c8c:	68bb      	ldr	r3, [r7, #8]
24001c8e:	6a5b      	ldr	r3, [r3, #36]	@ 0x24
24001c90:	431a      	orrs	r2, r3
24001c92:	68bb      	ldr	r3, [r7, #8]
24001c94:	695b      	ldr	r3, [r3, #20]
24001c96:	049b      	lsls	r3, r3, #18
24001c98:	431a      	orrs	r2, r3
24001c9a:	68bb      	ldr	r3, [r7, #8]
24001c9c:	6a1b      	ldr	r3, [r3, #32]
24001c9e:	431a      	orrs	r2, r3
24001ca0:	68bb      	ldr	r3, [r7, #8]
24001ca2:	69db      	ldr	r3, [r3, #28]
24001ca4:	431a      	orrs	r2, r3
24001ca6:	68bb      	ldr	r3, [r7, #8]
24001ca8:	699b      	ldr	r3, [r3, #24]
24001caa:	ea42 0103 	orr.w	r1, r2, r3
24001cae:	68fb      	ldr	r3, [r7, #12]
24001cb0:	681b      	ldr	r3, [r3, #0]
24001cb2:	687a      	ldr	r2, [r7, #4]
24001cb4:	430a      	orrs	r2, r1
24001cb6:	615a      	str	r2, [r3, #20]
24001cb8:	bf00      	nop
24001cba:	3714      	adds	r7, #20
24001cbc:	46bd      	mov	sp, r7
24001cbe:	f85d 7b04 	ldr.w	r7, [sp], #4
24001cc2:	4770      	bx	lr

24001cc4 <HAL_RCC_OscConfig>:
24001cc4:	b580      	push	{r7, lr}
24001cc6:	b08c      	sub	sp, #48	@ 0x30
24001cc8:	af00      	add	r7, sp, #0
24001cca:	6078      	str	r0, [r7, #4]
24001ccc:	687b      	ldr	r3, [r7, #4]
24001cce:	2b00      	cmp	r3, #0
24001cd0:	d102      	bne.n	24001cd8 <HAL_RCC_OscConfig+0x14>
24001cd2:	2301      	movs	r3, #1
24001cd4:	f000 bc48 	b.w	24002568 <HAL_RCC_OscConfig+0x8a4>
24001cd8:	687b      	ldr	r3, [r7, #4]
24001cda:	681b      	ldr	r3, [r3, #0]
24001cdc:	f003 0301 	and.w	r3, r3, #1
24001ce0:	2b00      	cmp	r3, #0
24001ce2:	f000 8088 	beq.w	24001df6 <HAL_RCC_OscConfig+0x132>
24001ce6:	4b99      	ldr	r3, [pc, #612]	@ (24001f4c <HAL_RCC_OscConfig+0x288>)
24001ce8:	691b      	ldr	r3, [r3, #16]
24001cea:	f003 0338 	and.w	r3, r3, #56	@ 0x38
24001cee:	62fb      	str	r3, [r7, #44]	@ 0x2c
24001cf0:	4b96      	ldr	r3, [pc, #600]	@ (24001f4c <HAL_RCC_OscConfig+0x288>)
24001cf2:	6a9b      	ldr	r3, [r3, #40]	@ 0x28
24001cf4:	62bb      	str	r3, [r7, #40]	@ 0x28
24001cf6:	6afb      	ldr	r3, [r7, #44]	@ 0x2c
24001cf8:	2b10      	cmp	r3, #16
24001cfa:	d007      	beq.n	24001d0c <HAL_RCC_OscConfig+0x48>
24001cfc:	6afb      	ldr	r3, [r7, #44]	@ 0x2c
24001cfe:	2b18      	cmp	r3, #24
24001d00:	d111      	bne.n	24001d26 <HAL_RCC_OscConfig+0x62>
24001d02:	6abb      	ldr	r3, [r7, #40]	@ 0x28
24001d04:	f003 0303 	and.w	r3, r3, #3
24001d08:	2b02      	cmp	r3, #2
24001d0a:	d10c      	bne.n	24001d26 <HAL_RCC_OscConfig+0x62>
24001d0c:	4b8f      	ldr	r3, [pc, #572]	@ (24001f4c <HAL_RCC_OscConfig+0x288>)
24001d0e:	681b      	ldr	r3, [r3, #0]
24001d10:	f403 3300 	and.w	r3, r3, #131072	@ 0x20000
24001d14:	2b00      	cmp	r3, #0
24001d16:	d06d      	beq.n	24001df4 <HAL_RCC_OscConfig+0x130>
24001d18:	687b      	ldr	r3, [r7, #4]
24001d1a:	685b      	ldr	r3, [r3, #4]
24001d1c:	2b00      	cmp	r3, #0
24001d1e:	d169      	bne.n	24001df4 <HAL_RCC_OscConfig+0x130>
24001d20:	2301      	movs	r3, #1
24001d22:	f000 bc21 	b.w	24002568 <HAL_RCC_OscConfig+0x8a4>
24001d26:	687b      	ldr	r3, [r7, #4]
24001d28:	685b      	ldr	r3, [r3, #4]
24001d2a:	f5b3 3f80 	cmp.w	r3, #65536	@ 0x10000
24001d2e:	d106      	bne.n	24001d3e <HAL_RCC_OscConfig+0x7a>
24001d30:	4b86      	ldr	r3, [pc, #536]	@ (24001f4c <HAL_RCC_OscConfig+0x288>)
24001d32:	681b      	ldr	r3, [r3, #0]
24001d34:	4a85      	ldr	r2, [pc, #532]	@ (24001f4c <HAL_RCC_OscConfig+0x288>)
24001d36:	f443 3380 	orr.w	r3, r3, #65536	@ 0x10000
24001d3a:	6013      	str	r3, [r2, #0]
24001d3c:	e02e      	b.n	24001d9c <HAL_RCC_OscConfig+0xd8>
24001d3e:	687b      	ldr	r3, [r7, #4]
24001d40:	685b      	ldr	r3, [r3, #4]
24001d42:	2b00      	cmp	r3, #0
24001d44:	d10c      	bne.n	24001d60 <HAL_RCC_OscConfig+0x9c>
24001d46:	4b81      	ldr	r3, [pc, #516]	@ (24001f4c <HAL_RCC_OscConfig+0x288>)
24001d48:	681b      	ldr	r3, [r3, #0]
24001d4a:	4a80      	ldr	r2, [pc, #512]	@ (24001f4c <HAL_RCC_OscConfig+0x288>)
24001d4c:	f423 3380 	bic.w	r3, r3, #65536	@ 0x10000
24001d50:	6013      	str	r3, [r2, #0]
24001d52:	4b7e      	ldr	r3, [pc, #504]	@ (24001f4c <HAL_RCC_OscConfig+0x288>)
24001d54:	681b      	ldr	r3, [r3, #0]
24001d56:	4a7d      	ldr	r2, [pc, #500]	@ (24001f4c <HAL_RCC_OscConfig+0x288>)
24001d58:	f423 2380 	bic.w	r3, r3, #262144	@ 0x40000
24001d5c:	6013      	str	r3, [r2, #0]
24001d5e:	e01d      	b.n	24001d9c <HAL_RCC_OscConfig+0xd8>
24001d60:	687b      	ldr	r3, [r7, #4]
24001d62:	685b      	ldr	r3, [r3, #4]
24001d64:	f5b3 2fa0 	cmp.w	r3, #327680	@ 0x50000
24001d68:	d10c      	bne.n	24001d84 <HAL_RCC_OscConfig+0xc0>
24001d6a:	4b78      	ldr	r3, [pc, #480]	@ (24001f4c <HAL_RCC_OscConfig+0x288>)
24001d6c:	681b      	ldr	r3, [r3, #0]
24001d6e:	4a77      	ldr	r2, [pc, #476]	@ (24001f4c <HAL_RCC_OscConfig+0x288>)
24001d70:	f443 2380 	orr.w	r3, r3, #262144	@ 0x40000
24001d74:	6013      	str	r3, [r2, #0]
24001d76:	4b75      	ldr	r3, [pc, #468]	@ (24001f4c <HAL_RCC_OscConfig+0x288>)
24001d78:	681b      	ldr	r3, [r3, #0]
24001d7a:	4a74      	ldr	r2, [pc, #464]	@ (24001f4c <HAL_RCC_OscConfig+0x288>)
24001d7c:	f443 3380 	orr.w	r3, r3, #65536	@ 0x10000
24001d80:	6013      	str	r3, [r2, #0]
24001d82:	e00b      	b.n	24001d9c <HAL_RCC_OscConfig+0xd8>
24001d84:	4b71      	ldr	r3, [pc, #452]	@ (24001f4c <HAL_RCC_OscConfig+0x288>)
24001d86:	681b      	ldr	r3, [r3, #0]
24001d88:	4a70      	ldr	r2, [pc, #448]	@ (24001f4c <HAL_RCC_OscConfig+0x288>)
24001d8a:	f423 3380 	bic.w	r3, r3, #65536	@ 0x10000
24001d8e:	6013      	str	r3, [r2, #0]
24001d90:	4b6e      	ldr	r3, [pc, #440]	@ (24001f4c <HAL_RCC_OscConfig+0x288>)
24001d92:	681b      	ldr	r3, [r3, #0]
24001d94:	4a6d      	ldr	r2, [pc, #436]	@ (24001f4c <HAL_RCC_OscConfig+0x288>)
24001d96:	f423 2380 	bic.w	r3, r3, #262144	@ 0x40000
24001d9a:	6013      	str	r3, [r2, #0]
24001d9c:	687b      	ldr	r3, [r7, #4]
24001d9e:	685b      	ldr	r3, [r3, #4]
24001da0:	2b00      	cmp	r3, #0
24001da2:	d013      	beq.n	24001dcc <HAL_RCC_OscConfig+0x108>
24001da4:	f7fe fca4 	bl	240006f0 <HAL_GetTick>
24001da8:	6278      	str	r0, [r7, #36]	@ 0x24
24001daa:	e008      	b.n	24001dbe <HAL_RCC_OscConfig+0xfa>
24001dac:	f7fe fca0 	bl	240006f0 <HAL_GetTick>
24001db0:	4602      	mov	r2, r0
24001db2:	6a7b      	ldr	r3, [r7, #36]	@ 0x24
24001db4:	1ad3      	subs	r3, r2, r3
24001db6:	2b64      	cmp	r3, #100	@ 0x64
24001db8:	d901      	bls.n	24001dbe <HAL_RCC_OscConfig+0xfa>
24001dba:	2303      	movs	r3, #3
24001dbc:	e3d4      	b.n	24002568 <HAL_RCC_OscConfig+0x8a4>
24001dbe:	4b63      	ldr	r3, [pc, #396]	@ (24001f4c <HAL_RCC_OscConfig+0x288>)
24001dc0:	681b      	ldr	r3, [r3, #0]
24001dc2:	f403 3300 	and.w	r3, r3, #131072	@ 0x20000
24001dc6:	2b00      	cmp	r3, #0
24001dc8:	d0f0      	beq.n	24001dac <HAL_RCC_OscConfig+0xe8>
24001dca:	e014      	b.n	24001df6 <HAL_RCC_OscConfig+0x132>
24001dcc:	f7fe fc90 	bl	240006f0 <HAL_GetTick>
24001dd0:	6278      	str	r0, [r7, #36]	@ 0x24
24001dd2:	e008      	b.n	24001de6 <HAL_RCC_OscConfig+0x122>
24001dd4:	f7fe fc8c 	bl	240006f0 <HAL_GetTick>
24001dd8:	4602      	mov	r2, r0
24001dda:	6a7b      	ldr	r3, [r7, #36]	@ 0x24
24001ddc:	1ad3      	subs	r3, r2, r3
24001dde:	2b64      	cmp	r3, #100	@ 0x64
24001de0:	d901      	bls.n	24001de6 <HAL_RCC_OscConfig+0x122>
24001de2:	2303      	movs	r3, #3
24001de4:	e3c0      	b.n	24002568 <HAL_RCC_OscConfig+0x8a4>
24001de6:	4b59      	ldr	r3, [pc, #356]	@ (24001f4c <HAL_RCC_OscConfig+0x288>)
24001de8:	681b      	ldr	r3, [r3, #0]
24001dea:	f403 3300 	and.w	r3, r3, #131072	@ 0x20000
24001dee:	2b00      	cmp	r3, #0
24001df0:	d1f0      	bne.n	24001dd4 <HAL_RCC_OscConfig+0x110>
24001df2:	e000      	b.n	24001df6 <HAL_RCC_OscConfig+0x132>
24001df4:	bf00      	nop
24001df6:	687b      	ldr	r3, [r7, #4]
24001df8:	681b      	ldr	r3, [r3, #0]
24001dfa:	f003 0302 	and.w	r3, r3, #2
24001dfe:	2b00      	cmp	r3, #0
24001e00:	f000 80ca 	beq.w	24001f98 <HAL_RCC_OscConfig+0x2d4>
24001e04:	4b51      	ldr	r3, [pc, #324]	@ (24001f4c <HAL_RCC_OscConfig+0x288>)
24001e06:	691b      	ldr	r3, [r3, #16]
24001e08:	f003 0338 	and.w	r3, r3, #56	@ 0x38
24001e0c:	623b      	str	r3, [r7, #32]
24001e0e:	4b4f      	ldr	r3, [pc, #316]	@ (24001f4c <HAL_RCC_OscConfig+0x288>)
24001e10:	6a9b      	ldr	r3, [r3, #40]	@ 0x28
24001e12:	61fb      	str	r3, [r7, #28]
24001e14:	6a3b      	ldr	r3, [r7, #32]
24001e16:	2b00      	cmp	r3, #0
24001e18:	d007      	beq.n	24001e2a <HAL_RCC_OscConfig+0x166>
24001e1a:	6a3b      	ldr	r3, [r7, #32]
24001e1c:	2b18      	cmp	r3, #24
24001e1e:	d156      	bne.n	24001ece <HAL_RCC_OscConfig+0x20a>
24001e20:	69fb      	ldr	r3, [r7, #28]
24001e22:	f003 0303 	and.w	r3, r3, #3
24001e26:	2b00      	cmp	r3, #0
24001e28:	d151      	bne.n	24001ece <HAL_RCC_OscConfig+0x20a>
24001e2a:	4b48      	ldr	r3, [pc, #288]	@ (24001f4c <HAL_RCC_OscConfig+0x288>)
24001e2c:	681b      	ldr	r3, [r3, #0]
24001e2e:	f003 0304 	and.w	r3, r3, #4
24001e32:	2b00      	cmp	r3, #0
24001e34:	d005      	beq.n	24001e42 <HAL_RCC_OscConfig+0x17e>
24001e36:	687b      	ldr	r3, [r7, #4]
24001e38:	68db      	ldr	r3, [r3, #12]
24001e3a:	2b00      	cmp	r3, #0
24001e3c:	d101      	bne.n	24001e42 <HAL_RCC_OscConfig+0x17e>
24001e3e:	2301      	movs	r3, #1
24001e40:	e392      	b.n	24002568 <HAL_RCC_OscConfig+0x8a4>
24001e42:	4b42      	ldr	r3, [pc, #264]	@ (24001f4c <HAL_RCC_OscConfig+0x288>)
24001e44:	681b      	ldr	r3, [r3, #0]
24001e46:	f023 0219 	bic.w	r2, r3, #25
24001e4a:	687b      	ldr	r3, [r7, #4]
24001e4c:	68db      	ldr	r3, [r3, #12]
24001e4e:	493f      	ldr	r1, [pc, #252]	@ (24001f4c <HAL_RCC_OscConfig+0x288>)
24001e50:	4313      	orrs	r3, r2
24001e52:	600b      	str	r3, [r1, #0]
24001e54:	f7fe fc4c 	bl	240006f0 <HAL_GetTick>
24001e58:	6278      	str	r0, [r7, #36]	@ 0x24
24001e5a:	e008      	b.n	24001e6e <HAL_RCC_OscConfig+0x1aa>
24001e5c:	f7fe fc48 	bl	240006f0 <HAL_GetTick>
24001e60:	4602      	mov	r2, r0
24001e62:	6a7b      	ldr	r3, [r7, #36]	@ 0x24
24001e64:	1ad3      	subs	r3, r2, r3
24001e66:	2b02      	cmp	r3, #2
24001e68:	d901      	bls.n	24001e6e <HAL_RCC_OscConfig+0x1aa>
24001e6a:	2303      	movs	r3, #3
24001e6c:	e37c      	b.n	24002568 <HAL_RCC_OscConfig+0x8a4>
24001e6e:	4b37      	ldr	r3, [pc, #220]	@ (24001f4c <HAL_RCC_OscConfig+0x288>)
24001e70:	681b      	ldr	r3, [r3, #0]
24001e72:	f003 0304 	and.w	r3, r3, #4
24001e76:	2b00      	cmp	r3, #0
24001e78:	d0f0      	beq.n	24001e5c <HAL_RCC_OscConfig+0x198>
24001e7a:	f7fe ffb1 	bl	24000de0 <HAL_GetREVID>
24001e7e:	4603      	mov	r3, r0
24001e80:	f241 0203 	movw	r2, #4099	@ 0x1003
24001e84:	4293      	cmp	r3, r2
24001e86:	d817      	bhi.n	24001eb8 <HAL_RCC_OscConfig+0x1f4>
24001e88:	687b      	ldr	r3, [r7, #4]
24001e8a:	691b      	ldr	r3, [r3, #16]
24001e8c:	2b40      	cmp	r3, #64	@ 0x40
24001e8e:	d108      	bne.n	24001ea2 <HAL_RCC_OscConfig+0x1de>
24001e90:	4b2e      	ldr	r3, [pc, #184]	@ (24001f4c <HAL_RCC_OscConfig+0x288>)
24001e92:	685b      	ldr	r3, [r3, #4]
24001e94:	f423 337c 	bic.w	r3, r3, #258048	@ 0x3f000
24001e98:	4a2c      	ldr	r2, [pc, #176]	@ (24001f4c <HAL_RCC_OscConfig+0x288>)
24001e9a:	f443 3300 	orr.w	r3, r3, #131072	@ 0x20000
24001e9e:	6053      	str	r3, [r2, #4]
24001ea0:	e07a      	b.n	24001f98 <HAL_RCC_OscConfig+0x2d4>
24001ea2:	4b2a      	ldr	r3, [pc, #168]	@ (24001f4c <HAL_RCC_OscConfig+0x288>)
24001ea4:	685b      	ldr	r3, [r3, #4]
24001ea6:	f423 327c 	bic.w	r2, r3, #258048	@ 0x3f000
24001eaa:	687b      	ldr	r3, [r7, #4]
24001eac:	691b      	ldr	r3, [r3, #16]
24001eae:	031b      	lsls	r3, r3, #12
24001eb0:	4926      	ldr	r1, [pc, #152]	@ (24001f4c <HAL_RCC_OscConfig+0x288>)
24001eb2:	4313      	orrs	r3, r2
24001eb4:	604b      	str	r3, [r1, #4]
24001eb6:	e06f      	b.n	24001f98 <HAL_RCC_OscConfig+0x2d4>
24001eb8:	4b24      	ldr	r3, [pc, #144]	@ (24001f4c <HAL_RCC_OscConfig+0x288>)
24001eba:	685b      	ldr	r3, [r3, #4]
24001ebc:	f023 42fe 	bic.w	r2, r3, #2130706432	@ 0x7f000000
24001ec0:	687b      	ldr	r3, [r7, #4]
24001ec2:	691b      	ldr	r3, [r3, #16]
24001ec4:	061b      	lsls	r3, r3, #24
24001ec6:	4921      	ldr	r1, [pc, #132]	@ (24001f4c <HAL_RCC_OscConfig+0x288>)
24001ec8:	4313      	orrs	r3, r2
24001eca:	604b      	str	r3, [r1, #4]
24001ecc:	e064      	b.n	24001f98 <HAL_RCC_OscConfig+0x2d4>
24001ece:	687b      	ldr	r3, [r7, #4]
24001ed0:	68db      	ldr	r3, [r3, #12]
24001ed2:	2b00      	cmp	r3, #0
24001ed4:	d047      	beq.n	24001f66 <HAL_RCC_OscConfig+0x2a2>
24001ed6:	4b1d      	ldr	r3, [pc, #116]	@ (24001f4c <HAL_RCC_OscConfig+0x288>)
24001ed8:	681b      	ldr	r3, [r3, #0]
24001eda:	f023 0219 	bic.w	r2, r3, #25
24001ede:	687b      	ldr	r3, [r7, #4]
24001ee0:	68db      	ldr	r3, [r3, #12]
24001ee2:	491a      	ldr	r1, [pc, #104]	@ (24001f4c <HAL_RCC_OscConfig+0x288>)
24001ee4:	4313      	orrs	r3, r2
24001ee6:	600b      	str	r3, [r1, #0]
24001ee8:	f7fe fc02 	bl	240006f0 <HAL_GetTick>
24001eec:	6278      	str	r0, [r7, #36]	@ 0x24
24001eee:	e008      	b.n	24001f02 <HAL_RCC_OscConfig+0x23e>
24001ef0:	f7fe fbfe 	bl	240006f0 <HAL_GetTick>
24001ef4:	4602      	mov	r2, r0
24001ef6:	6a7b      	ldr	r3, [r7, #36]	@ 0x24
24001ef8:	1ad3      	subs	r3, r2, r3
24001efa:	2b02      	cmp	r3, #2
24001efc:	d901      	bls.n	24001f02 <HAL_RCC_OscConfig+0x23e>
24001efe:	2303      	movs	r3, #3
24001f00:	e332      	b.n	24002568 <HAL_RCC_OscConfig+0x8a4>
24001f02:	4b12      	ldr	r3, [pc, #72]	@ (24001f4c <HAL_RCC_OscConfig+0x288>)
24001f04:	681b      	ldr	r3, [r3, #0]
24001f06:	f003 0304 	and.w	r3, r3, #4
24001f0a:	2b00      	cmp	r3, #0
24001f0c:	d0f0      	beq.n	24001ef0 <HAL_RCC_OscConfig+0x22c>
24001f0e:	f7fe ff67 	bl	24000de0 <HAL_GetREVID>
24001f12:	4603      	mov	r3, r0
24001f14:	f241 0203 	movw	r2, #4099	@ 0x1003
24001f18:	4293      	cmp	r3, r2
24001f1a:	d819      	bhi.n	24001f50 <HAL_RCC_OscConfig+0x28c>
24001f1c:	687b      	ldr	r3, [r7, #4]
24001f1e:	691b      	ldr	r3, [r3, #16]
24001f20:	2b40      	cmp	r3, #64	@ 0x40
24001f22:	d108      	bne.n	24001f36 <HAL_RCC_OscConfig+0x272>
24001f24:	4b09      	ldr	r3, [pc, #36]	@ (24001f4c <HAL_RCC_OscConfig+0x288>)
24001f26:	685b      	ldr	r3, [r3, #4]
24001f28:	f423 337c 	bic.w	r3, r3, #258048	@ 0x3f000
24001f2c:	4a07      	ldr	r2, [pc, #28]	@ (24001f4c <HAL_RCC_OscConfig+0x288>)
24001f2e:	f443 3300 	orr.w	r3, r3, #131072	@ 0x20000
24001f32:	6053      	str	r3, [r2, #4]
24001f34:	e030      	b.n	24001f98 <HAL_RCC_OscConfig+0x2d4>
24001f36:	4b05      	ldr	r3, [pc, #20]	@ (24001f4c <HAL_RCC_OscConfig+0x288>)
24001f38:	685b      	ldr	r3, [r3, #4]
24001f3a:	f423 327c 	bic.w	r2, r3, #258048	@ 0x3f000
24001f3e:	687b      	ldr	r3, [r7, #4]
24001f40:	691b      	ldr	r3, [r3, #16]
24001f42:	031b      	lsls	r3, r3, #12
24001f44:	4901      	ldr	r1, [pc, #4]	@ (24001f4c <HAL_RCC_OscConfig+0x288>)
24001f46:	4313      	orrs	r3, r2
24001f48:	604b      	str	r3, [r1, #4]
24001f4a:	e025      	b.n	24001f98 <HAL_RCC_OscConfig+0x2d4>
24001f4c:	58024400 	.word	0x58024400
24001f50:	4b9a      	ldr	r3, [pc, #616]	@ (240021bc <HAL_RCC_OscConfig+0x4f8>)
24001f52:	685b      	ldr	r3, [r3, #4]
24001f54:	f023 42fe 	bic.w	r2, r3, #2130706432	@ 0x7f000000
24001f58:	687b      	ldr	r3, [r7, #4]
24001f5a:	691b      	ldr	r3, [r3, #16]
24001f5c:	061b      	lsls	r3, r3, #24
24001f5e:	4997      	ldr	r1, [pc, #604]	@ (240021bc <HAL_RCC_OscConfig+0x4f8>)
24001f60:	4313      	orrs	r3, r2
24001f62:	604b      	str	r3, [r1, #4]
24001f64:	e018      	b.n	24001f98 <HAL_RCC_OscConfig+0x2d4>
24001f66:	4b95      	ldr	r3, [pc, #596]	@ (240021bc <HAL_RCC_OscConfig+0x4f8>)
24001f68:	681b      	ldr	r3, [r3, #0]
24001f6a:	4a94      	ldr	r2, [pc, #592]	@ (240021bc <HAL_RCC_OscConfig+0x4f8>)
24001f6c:	f023 0301 	bic.w	r3, r3, #1
24001f70:	6013      	str	r3, [r2, #0]
24001f72:	f7fe fbbd 	bl	240006f0 <HAL_GetTick>
24001f76:	6278      	str	r0, [r7, #36]	@ 0x24
24001f78:	e008      	b.n	24001f8c <HAL_RCC_OscConfig+0x2c8>
24001f7a:	f7fe fbb9 	bl	240006f0 <HAL_GetTick>
24001f7e:	4602      	mov	r2, r0
24001f80:	6a7b      	ldr	r3, [r7, #36]	@ 0x24
24001f82:	1ad3      	subs	r3, r2, r3
24001f84:	2b02      	cmp	r3, #2
24001f86:	d901      	bls.n	24001f8c <HAL_RCC_OscConfig+0x2c8>
24001f88:	2303      	movs	r3, #3
24001f8a:	e2ed      	b.n	24002568 <HAL_RCC_OscConfig+0x8a4>
24001f8c:	4b8b      	ldr	r3, [pc, #556]	@ (240021bc <HAL_RCC_OscConfig+0x4f8>)
24001f8e:	681b      	ldr	r3, [r3, #0]
24001f90:	f003 0304 	and.w	r3, r3, #4
24001f94:	2b00      	cmp	r3, #0
24001f96:	d1f0      	bne.n	24001f7a <HAL_RCC_OscConfig+0x2b6>
24001f98:	687b      	ldr	r3, [r7, #4]
24001f9a:	681b      	ldr	r3, [r3, #0]
24001f9c:	f003 0310 	and.w	r3, r3, #16
24001fa0:	2b00      	cmp	r3, #0
24001fa2:	f000 80a9 	beq.w	240020f8 <HAL_RCC_OscConfig+0x434>
24001fa6:	4b85      	ldr	r3, [pc, #532]	@ (240021bc <HAL_RCC_OscConfig+0x4f8>)
24001fa8:	691b      	ldr	r3, [r3, #16]
24001faa:	f003 0338 	and.w	r3, r3, #56	@ 0x38
24001fae:	61bb      	str	r3, [r7, #24]
24001fb0:	4b82      	ldr	r3, [pc, #520]	@ (240021bc <HAL_RCC_OscConfig+0x4f8>)
24001fb2:	6a9b      	ldr	r3, [r3, #40]	@ 0x28
24001fb4:	617b      	str	r3, [r7, #20]
24001fb6:	69bb      	ldr	r3, [r7, #24]
24001fb8:	2b08      	cmp	r3, #8
24001fba:	d007      	beq.n	24001fcc <HAL_RCC_OscConfig+0x308>
24001fbc:	69bb      	ldr	r3, [r7, #24]
24001fbe:	2b18      	cmp	r3, #24
24001fc0:	d13a      	bne.n	24002038 <HAL_RCC_OscConfig+0x374>
24001fc2:	697b      	ldr	r3, [r7, #20]
24001fc4:	f003 0303 	and.w	r3, r3, #3
24001fc8:	2b01      	cmp	r3, #1
24001fca:	d135      	bne.n	24002038 <HAL_RCC_OscConfig+0x374>
24001fcc:	4b7b      	ldr	r3, [pc, #492]	@ (240021bc <HAL_RCC_OscConfig+0x4f8>)
24001fce:	681b      	ldr	r3, [r3, #0]
24001fd0:	f403 7380 	and.w	r3, r3, #256	@ 0x100
24001fd4:	2b00      	cmp	r3, #0
24001fd6:	d005      	beq.n	24001fe4 <HAL_RCC_OscConfig+0x320>
24001fd8:	687b      	ldr	r3, [r7, #4]
24001fda:	69db      	ldr	r3, [r3, #28]
24001fdc:	2b80      	cmp	r3, #128	@ 0x80
24001fde:	d001      	beq.n	24001fe4 <HAL_RCC_OscConfig+0x320>
24001fe0:	2301      	movs	r3, #1
24001fe2:	e2c1      	b.n	24002568 <HAL_RCC_OscConfig+0x8a4>
24001fe4:	f7fe fefc 	bl	24000de0 <HAL_GetREVID>
24001fe8:	4603      	mov	r3, r0
24001fea:	f241 0203 	movw	r2, #4099	@ 0x1003
24001fee:	4293      	cmp	r3, r2
24001ff0:	d817      	bhi.n	24002022 <HAL_RCC_OscConfig+0x35e>
24001ff2:	687b      	ldr	r3, [r7, #4]
24001ff4:	6a1b      	ldr	r3, [r3, #32]
24001ff6:	2b20      	cmp	r3, #32
24001ff8:	d108      	bne.n	2400200c <HAL_RCC_OscConfig+0x348>
24001ffa:	4b70      	ldr	r3, [pc, #448]	@ (240021bc <HAL_RCC_OscConfig+0x4f8>)
24001ffc:	685b      	ldr	r3, [r3, #4]
24001ffe:	f023 43f8 	bic.w	r3, r3, #2080374784	@ 0x7c000000
24002002:	4a6e      	ldr	r2, [pc, #440]	@ (240021bc <HAL_RCC_OscConfig+0x4f8>)
24002004:	f043 4380 	orr.w	r3, r3, #1073741824	@ 0x40000000
24002008:	6053      	str	r3, [r2, #4]
2400200a:	e075      	b.n	240020f8 <HAL_RCC_OscConfig+0x434>
2400200c:	4b6b      	ldr	r3, [pc, #428]	@ (240021bc <HAL_RCC_OscConfig+0x4f8>)
2400200e:	685b      	ldr	r3, [r3, #4]
24002010:	f023 42f8 	bic.w	r2, r3, #2080374784	@ 0x7c000000
24002014:	687b      	ldr	r3, [r7, #4]
24002016:	6a1b      	ldr	r3, [r3, #32]
24002018:	069b      	lsls	r3, r3, #26
2400201a:	4968      	ldr	r1, [pc, #416]	@ (240021bc <HAL_RCC_OscConfig+0x4f8>)
2400201c:	4313      	orrs	r3, r2
2400201e:	604b      	str	r3, [r1, #4]
24002020:	e06a      	b.n	240020f8 <HAL_RCC_OscConfig+0x434>
24002022:	4b66      	ldr	r3, [pc, #408]	@ (240021bc <HAL_RCC_OscConfig+0x4f8>)
24002024:	68db      	ldr	r3, [r3, #12]
24002026:	f023 527c 	bic.w	r2, r3, #1056964608	@ 0x3f000000
2400202a:	687b      	ldr	r3, [r7, #4]
2400202c:	6a1b      	ldr	r3, [r3, #32]
2400202e:	061b      	lsls	r3, r3, #24
24002030:	4962      	ldr	r1, [pc, #392]	@ (240021bc <HAL_RCC_OscConfig+0x4f8>)
24002032:	4313      	orrs	r3, r2
24002034:	60cb      	str	r3, [r1, #12]
24002036:	e05f      	b.n	240020f8 <HAL_RCC_OscConfig+0x434>
24002038:	687b      	ldr	r3, [r7, #4]
2400203a:	69db      	ldr	r3, [r3, #28]
2400203c:	2b00      	cmp	r3, #0
2400203e:	d042      	beq.n	240020c6 <HAL_RCC_OscConfig+0x402>
24002040:	4b5e      	ldr	r3, [pc, #376]	@ (240021bc <HAL_RCC_OscConfig+0x4f8>)
24002042:	681b      	ldr	r3, [r3, #0]
24002044:	4a5d      	ldr	r2, [pc, #372]	@ (240021bc <HAL_RCC_OscConfig+0x4f8>)
24002046:	f043 0380 	orr.w	r3, r3, #128	@ 0x80
2400204a:	6013      	str	r3, [r2, #0]
2400204c:	f7fe fb50 	bl	240006f0 <HAL_GetTick>
24002050:	6278      	str	r0, [r7, #36]	@ 0x24
24002052:	e008      	b.n	24002066 <HAL_RCC_OscConfig+0x3a2>
24002054:	f7fe fb4c 	bl	240006f0 <HAL_GetTick>
24002058:	4602      	mov	r2, r0
2400205a:	6a7b      	ldr	r3, [r7, #36]	@ 0x24
2400205c:	1ad3      	subs	r3, r2, r3
2400205e:	2b02      	cmp	r3, #2
24002060:	d901      	bls.n	24002066 <HAL_RCC_OscConfig+0x3a2>
24002062:	2303      	movs	r3, #3
24002064:	e280      	b.n	24002568 <HAL_RCC_OscConfig+0x8a4>
24002066:	4b55      	ldr	r3, [pc, #340]	@ (240021bc <HAL_RCC_OscConfig+0x4f8>)
24002068:	681b      	ldr	r3, [r3, #0]
2400206a:	f403 7380 	and.w	r3, r3, #256	@ 0x100
2400206e:	2b00      	cmp	r3, #0
24002070:	d0f0      	beq.n	24002054 <HAL_RCC_OscConfig+0x390>
24002072:	f7fe feb5 	bl	24000de0 <HAL_GetREVID>
24002076:	4603      	mov	r3, r0
24002078:	f241 0203 	movw	r2, #4099	@ 0x1003
2400207c:	4293      	cmp	r3, r2
2400207e:	d817      	bhi.n	240020b0 <HAL_RCC_OscConfig+0x3ec>
24002080:	687b      	ldr	r3, [r7, #4]
24002082:	6a1b      	ldr	r3, [r3, #32]
24002084:	2b20      	cmp	r3, #32
24002086:	d108      	bne.n	2400209a <HAL_RCC_OscConfig+0x3d6>
24002088:	4b4c      	ldr	r3, [pc, #304]	@ (240021bc <HAL_RCC_OscConfig+0x4f8>)
2400208a:	685b      	ldr	r3, [r3, #4]
2400208c:	f023 43f8 	bic.w	r3, r3, #2080374784	@ 0x7c000000
24002090:	4a4a      	ldr	r2, [pc, #296]	@ (240021bc <HAL_RCC_OscConfig+0x4f8>)
24002092:	f043 4380 	orr.w	r3, r3, #1073741824	@ 0x40000000
24002096:	6053      	str	r3, [r2, #4]
24002098:	e02e      	b.n	240020f8 <HAL_RCC_OscConfig+0x434>
2400209a:	4b48      	ldr	r3, [pc, #288]	@ (240021bc <HAL_RCC_OscConfig+0x4f8>)
2400209c:	685b      	ldr	r3, [r3, #4]
2400209e:	f023 42f8 	bic.w	r2, r3, #2080374784	@ 0x7c000000
240020a2:	687b      	ldr	r3, [r7, #4]
240020a4:	6a1b      	ldr	r3, [r3, #32]
240020a6:	069b      	lsls	r3, r3, #26
240020a8:	4944      	ldr	r1, [pc, #272]	@ (240021bc <HAL_RCC_OscConfig+0x4f8>)
240020aa:	4313      	orrs	r3, r2
240020ac:	604b      	str	r3, [r1, #4]
240020ae:	e023      	b.n	240020f8 <HAL_RCC_OscConfig+0x434>
240020b0:	4b42      	ldr	r3, [pc, #264]	@ (240021bc <HAL_RCC_OscConfig+0x4f8>)
240020b2:	68db      	ldr	r3, [r3, #12]
240020b4:	f023 527c 	bic.w	r2, r3, #1056964608	@ 0x3f000000
240020b8:	687b      	ldr	r3, [r7, #4]
240020ba:	6a1b      	ldr	r3, [r3, #32]
240020bc:	061b      	lsls	r3, r3, #24
240020be:	493f      	ldr	r1, [pc, #252]	@ (240021bc <HAL_RCC_OscConfig+0x4f8>)
240020c0:	4313      	orrs	r3, r2
240020c2:	60cb      	str	r3, [r1, #12]
240020c4:	e018      	b.n	240020f8 <HAL_RCC_OscConfig+0x434>
240020c6:	4b3d      	ldr	r3, [pc, #244]	@ (240021bc <HAL_RCC_OscConfig+0x4f8>)
240020c8:	681b      	ldr	r3, [r3, #0]
240020ca:	4a3c      	ldr	r2, [pc, #240]	@ (240021bc <HAL_RCC_OscConfig+0x4f8>)
240020cc:	f023 0380 	bic.w	r3, r3, #128	@ 0x80
240020d0:	6013      	str	r3, [r2, #0]
240020d2:	f7fe fb0d 	bl	240006f0 <HAL_GetTick>
240020d6:	6278      	str	r0, [r7, #36]	@ 0x24
240020d8:	e008      	b.n	240020ec <HAL_RCC_OscConfig+0x428>
240020da:	f7fe fb09 	bl	240006f0 <HAL_GetTick>
240020de:	4602      	mov	r2, r0
240020e0:	6a7b      	ldr	r3, [r7, #36]	@ 0x24
240020e2:	1ad3      	subs	r3, r2, r3
240020e4:	2b02      	cmp	r3, #2
240020e6:	d901      	bls.n	240020ec <HAL_RCC_OscConfig+0x428>
240020e8:	2303      	movs	r3, #3
240020ea:	e23d      	b.n	24002568 <HAL_RCC_OscConfig+0x8a4>
240020ec:	4b33      	ldr	r3, [pc, #204]	@ (240021bc <HAL_RCC_OscConfig+0x4f8>)
240020ee:	681b      	ldr	r3, [r3, #0]
240020f0:	f403 7380 	and.w	r3, r3, #256	@ 0x100
240020f4:	2b00      	cmp	r3, #0
240020f6:	d1f0      	bne.n	240020da <HAL_RCC_OscConfig+0x416>
240020f8:	687b      	ldr	r3, [r7, #4]
240020fa:	681b      	ldr	r3, [r3, #0]
240020fc:	f003 0308 	and.w	r3, r3, #8
24002100:	2b00      	cmp	r3, #0
24002102:	d036      	beq.n	24002172 <HAL_RCC_OscConfig+0x4ae>
24002104:	687b      	ldr	r3, [r7, #4]
24002106:	695b      	ldr	r3, [r3, #20]
24002108:	2b00      	cmp	r3, #0
2400210a:	d019      	beq.n	24002140 <HAL_RCC_OscConfig+0x47c>
2400210c:	4b2b      	ldr	r3, [pc, #172]	@ (240021bc <HAL_RCC_OscConfig+0x4f8>)
2400210e:	6f5b      	ldr	r3, [r3, #116]	@ 0x74
24002110:	4a2a      	ldr	r2, [pc, #168]	@ (240021bc <HAL_RCC_OscConfig+0x4f8>)
24002112:	f043 0301 	orr.w	r3, r3, #1
24002116:	6753      	str	r3, [r2, #116]	@ 0x74
24002118:	f7fe faea 	bl	240006f0 <HAL_GetTick>
2400211c:	6278      	str	r0, [r7, #36]	@ 0x24
2400211e:	e008      	b.n	24002132 <HAL_RCC_OscConfig+0x46e>
24002120:	f7fe fae6 	bl	240006f0 <HAL_GetTick>
24002124:	4602      	mov	r2, r0
24002126:	6a7b      	ldr	r3, [r7, #36]	@ 0x24
24002128:	1ad3      	subs	r3, r2, r3
2400212a:	2b02      	cmp	r3, #2
2400212c:	d901      	bls.n	24002132 <HAL_RCC_OscConfig+0x46e>
2400212e:	2303      	movs	r3, #3
24002130:	e21a      	b.n	24002568 <HAL_RCC_OscConfig+0x8a4>
24002132:	4b22      	ldr	r3, [pc, #136]	@ (240021bc <HAL_RCC_OscConfig+0x4f8>)
24002134:	6f5b      	ldr	r3, [r3, #116]	@ 0x74
24002136:	f003 0302 	and.w	r3, r3, #2
2400213a:	2b00      	cmp	r3, #0
2400213c:	d0f0      	beq.n	24002120 <HAL_RCC_OscConfig+0x45c>
2400213e:	e018      	b.n	24002172 <HAL_RCC_OscConfig+0x4ae>
24002140:	4b1e      	ldr	r3, [pc, #120]	@ (240021bc <HAL_RCC_OscConfig+0x4f8>)
24002142:	6f5b      	ldr	r3, [r3, #116]	@ 0x74
24002144:	4a1d      	ldr	r2, [pc, #116]	@ (240021bc <HAL_RCC_OscConfig+0x4f8>)
24002146:	f023 0301 	bic.w	r3, r3, #1
2400214a:	6753      	str	r3, [r2, #116]	@ 0x74
2400214c:	f7fe fad0 	bl	240006f0 <HAL_GetTick>
24002150:	6278      	str	r0, [r7, #36]	@ 0x24
24002152:	e008      	b.n	24002166 <HAL_RCC_OscConfig+0x4a2>
24002154:	f7fe facc 	bl	240006f0 <HAL_GetTick>
24002158:	4602      	mov	r2, r0
2400215a:	6a7b      	ldr	r3, [r7, #36]	@ 0x24
2400215c:	1ad3      	subs	r3, r2, r3
2400215e:	2b02      	cmp	r3, #2
24002160:	d901      	bls.n	24002166 <HAL_RCC_OscConfig+0x4a2>
24002162:	2303      	movs	r3, #3
24002164:	e200      	b.n	24002568 <HAL_RCC_OscConfig+0x8a4>
24002166:	4b15      	ldr	r3, [pc, #84]	@ (240021bc <HAL_RCC_OscConfig+0x4f8>)
24002168:	6f5b      	ldr	r3, [r3, #116]	@ 0x74
2400216a:	f003 0302 	and.w	r3, r3, #2
2400216e:	2b00      	cmp	r3, #0
24002170:	d1f0      	bne.n	24002154 <HAL_RCC_OscConfig+0x490>
24002172:	687b      	ldr	r3, [r7, #4]
24002174:	681b      	ldr	r3, [r3, #0]
24002176:	f003 0320 	and.w	r3, r3, #32
2400217a:	2b00      	cmp	r3, #0
2400217c:	d039      	beq.n	240021f2 <HAL_RCC_OscConfig+0x52e>
2400217e:	687b      	ldr	r3, [r7, #4]
24002180:	699b      	ldr	r3, [r3, #24]
24002182:	2b00      	cmp	r3, #0
24002184:	d01c      	beq.n	240021c0 <HAL_RCC_OscConfig+0x4fc>
24002186:	4b0d      	ldr	r3, [pc, #52]	@ (240021bc <HAL_RCC_OscConfig+0x4f8>)
24002188:	681b      	ldr	r3, [r3, #0]
2400218a:	4a0c      	ldr	r2, [pc, #48]	@ (240021bc <HAL_RCC_OscConfig+0x4f8>)
2400218c:	f443 5380 	orr.w	r3, r3, #4096	@ 0x1000
24002190:	6013      	str	r3, [r2, #0]
24002192:	f7fe faad 	bl	240006f0 <HAL_GetTick>
24002196:	6278      	str	r0, [r7, #36]	@ 0x24
24002198:	e008      	b.n	240021ac <HAL_RCC_OscConfig+0x4e8>
2400219a:	f7fe faa9 	bl	240006f0 <HAL_GetTick>
2400219e:	4602      	mov	r2, r0
240021a0:	6a7b      	ldr	r3, [r7, #36]	@ 0x24
240021a2:	1ad3      	subs	r3, r2, r3
240021a4:	2b02      	cmp	r3, #2
240021a6:	d901      	bls.n	240021ac <HAL_RCC_OscConfig+0x4e8>
240021a8:	2303      	movs	r3, #3
240021aa:	e1dd      	b.n	24002568 <HAL_RCC_OscConfig+0x8a4>
240021ac:	4b03      	ldr	r3, [pc, #12]	@ (240021bc <HAL_RCC_OscConfig+0x4f8>)
240021ae:	681b      	ldr	r3, [r3, #0]
240021b0:	f403 5300 	and.w	r3, r3, #8192	@ 0x2000
240021b4:	2b00      	cmp	r3, #0
240021b6:	d0f0      	beq.n	2400219a <HAL_RCC_OscConfig+0x4d6>
240021b8:	e01b      	b.n	240021f2 <HAL_RCC_OscConfig+0x52e>
240021ba:	bf00      	nop
240021bc:	58024400 	.word	0x58024400
240021c0:	4b9b      	ldr	r3, [pc, #620]	@ (24002430 <HAL_RCC_OscConfig+0x76c>)
240021c2:	681b      	ldr	r3, [r3, #0]
240021c4:	4a9a      	ldr	r2, [pc, #616]	@ (24002430 <HAL_RCC_OscConfig+0x76c>)
240021c6:	f423 5380 	bic.w	r3, r3, #4096	@ 0x1000
240021ca:	6013      	str	r3, [r2, #0]
240021cc:	f7fe fa90 	bl	240006f0 <HAL_GetTick>
240021d0:	6278      	str	r0, [r7, #36]	@ 0x24
240021d2:	e008      	b.n	240021e6 <HAL_RCC_OscConfig+0x522>
240021d4:	f7fe fa8c 	bl	240006f0 <HAL_GetTick>
240021d8:	4602      	mov	r2, r0
240021da:	6a7b      	ldr	r3, [r7, #36]	@ 0x24
240021dc:	1ad3      	subs	r3, r2, r3
240021de:	2b02      	cmp	r3, #2
240021e0:	d901      	bls.n	240021e6 <HAL_RCC_OscConfig+0x522>
240021e2:	2303      	movs	r3, #3
240021e4:	e1c0      	b.n	24002568 <HAL_RCC_OscConfig+0x8a4>
240021e6:	4b92      	ldr	r3, [pc, #584]	@ (24002430 <HAL_RCC_OscConfig+0x76c>)
240021e8:	681b      	ldr	r3, [r3, #0]
240021ea:	f403 5300 	and.w	r3, r3, #8192	@ 0x2000
240021ee:	2b00      	cmp	r3, #0
240021f0:	d1f0      	bne.n	240021d4 <HAL_RCC_OscConfig+0x510>
240021f2:	687b      	ldr	r3, [r7, #4]
240021f4:	681b      	ldr	r3, [r3, #0]
240021f6:	f003 0304 	and.w	r3, r3, #4
240021fa:	2b00      	cmp	r3, #0
240021fc:	f000 8081 	beq.w	24002302 <HAL_RCC_OscConfig+0x63e>
24002200:	4b8c      	ldr	r3, [pc, #560]	@ (24002434 <HAL_RCC_OscConfig+0x770>)
24002202:	681b      	ldr	r3, [r3, #0]
24002204:	4a8b      	ldr	r2, [pc, #556]	@ (24002434 <HAL_RCC_OscConfig+0x770>)
24002206:	f443 7380 	orr.w	r3, r3, #256	@ 0x100
2400220a:	6013      	str	r3, [r2, #0]
2400220c:	f7fe fa70 	bl	240006f0 <HAL_GetTick>
24002210:	6278      	str	r0, [r7, #36]	@ 0x24
24002212:	e008      	b.n	24002226 <HAL_RCC_OscConfig+0x562>
24002214:	f7fe fa6c 	bl	240006f0 <HAL_GetTick>
24002218:	4602      	mov	r2, r0
2400221a:	6a7b      	ldr	r3, [r7, #36]	@ 0x24
2400221c:	1ad3      	subs	r3, r2, r3
2400221e:	2b64      	cmp	r3, #100	@ 0x64
24002220:	d901      	bls.n	24002226 <HAL_RCC_OscConfig+0x562>
24002222:	2303      	movs	r3, #3
24002224:	e1a0      	b.n	24002568 <HAL_RCC_OscConfig+0x8a4>
24002226:	4b83      	ldr	r3, [pc, #524]	@ (24002434 <HAL_RCC_OscConfig+0x770>)
24002228:	681b      	ldr	r3, [r3, #0]
2400222a:	f403 7380 	and.w	r3, r3, #256	@ 0x100
2400222e:	2b00      	cmp	r3, #0
24002230:	d0f0      	beq.n	24002214 <HAL_RCC_OscConfig+0x550>
24002232:	687b      	ldr	r3, [r7, #4]
24002234:	689b      	ldr	r3, [r3, #8]
24002236:	2b01      	cmp	r3, #1
24002238:	d106      	bne.n	24002248 <HAL_RCC_OscConfig+0x584>
2400223a:	4b7d      	ldr	r3, [pc, #500]	@ (24002430 <HAL_RCC_OscConfig+0x76c>)
2400223c:	6f1b      	ldr	r3, [r3, #112]	@ 0x70
2400223e:	4a7c      	ldr	r2, [pc, #496]	@ (24002430 <HAL_RCC_OscConfig+0x76c>)
24002240:	f043 0301 	orr.w	r3, r3, #1
24002244:	6713      	str	r3, [r2, #112]	@ 0x70
24002246:	e02d      	b.n	240022a4 <HAL_RCC_OscConfig+0x5e0>
24002248:	687b      	ldr	r3, [r7, #4]
2400224a:	689b      	ldr	r3, [r3, #8]
2400224c:	2b00      	cmp	r3, #0
2400224e:	d10c      	bne.n	2400226a <HAL_RCC_OscConfig+0x5a6>
24002250:	4b77      	ldr	r3, [pc, #476]	@ (24002430 <HAL_RCC_OscConfig+0x76c>)
24002252:	6f1b      	ldr	r3, [r3, #112]	@ 0x70
24002254:	4a76      	ldr	r2, [pc, #472]	@ (24002430 <HAL_RCC_OscConfig+0x76c>)
24002256:	f023 0301 	bic.w	r3, r3, #1
2400225a:	6713      	str	r3, [r2, #112]	@ 0x70
2400225c:	4b74      	ldr	r3, [pc, #464]	@ (24002430 <HAL_RCC_OscConfig+0x76c>)
2400225e:	6f1b      	ldr	r3, [r3, #112]	@ 0x70
24002260:	4a73      	ldr	r2, [pc, #460]	@ (24002430 <HAL_RCC_OscConfig+0x76c>)
24002262:	f023 0304 	bic.w	r3, r3, #4
24002266:	6713      	str	r3, [r2, #112]	@ 0x70
24002268:	e01c      	b.n	240022a4 <HAL_RCC_OscConfig+0x5e0>
2400226a:	687b      	ldr	r3, [r7, #4]
2400226c:	689b      	ldr	r3, [r3, #8]
2400226e:	2b05      	cmp	r3, #5
24002270:	d10c      	bne.n	2400228c <HAL_RCC_OscConfig+0x5c8>
24002272:	4b6f      	ldr	r3, [pc, #444]	@ (24002430 <HAL_RCC_OscConfig+0x76c>)
24002274:	6f1b      	ldr	r3, [r3, #112]	@ 0x70
24002276:	4a6e      	ldr	r2, [pc, #440]	@ (24002430 <HAL_RCC_OscConfig+0x76c>)
24002278:	f043 0304 	orr.w	r3, r3, #4
2400227c:	6713      	str	r3, [r2, #112]	@ 0x70
2400227e:	4b6c      	ldr	r3, [pc, #432]	@ (24002430 <HAL_RCC_OscConfig+0x76c>)
24002280:	6f1b      	ldr	r3, [r3, #112]	@ 0x70
24002282:	4a6b      	ldr	r2, [pc, #428]	@ (24002430 <HAL_RCC_OscConfig+0x76c>)
24002284:	f043 0301 	orr.w	r3, r3, #1
24002288:	6713      	str	r3, [r2, #112]	@ 0x70
2400228a:	e00b      	b.n	240022a4 <HAL_RCC_OscConfig+0x5e0>
2400228c:	4b68      	ldr	r3, [pc, #416]	@ (24002430 <HAL_RCC_OscConfig+0x76c>)
2400228e:	6f1b      	ldr	r3, [r3, #112]	@ 0x70
24002290:	4a67      	ldr	r2, [pc, #412]	@ (24002430 <HAL_RCC_OscConfig+0x76c>)
24002292:	f023 0301 	bic.w	r3, r3, #1
24002296:	6713      	str	r3, [r2, #112]	@ 0x70
24002298:	4b65      	ldr	r3, [pc, #404]	@ (24002430 <HAL_RCC_OscConfig+0x76c>)
2400229a:	6f1b      	ldr	r3, [r3, #112]	@ 0x70
2400229c:	4a64      	ldr	r2, [pc, #400]	@ (24002430 <HAL_RCC_OscConfig+0x76c>)
2400229e:	f023 0304 	bic.w	r3, r3, #4
240022a2:	6713      	str	r3, [r2, #112]	@ 0x70
240022a4:	687b      	ldr	r3, [r7, #4]
240022a6:	689b      	ldr	r3, [r3, #8]
240022a8:	2b00      	cmp	r3, #0
240022aa:	d015      	beq.n	240022d8 <HAL_RCC_OscConfig+0x614>
240022ac:	f7fe fa20 	bl	240006f0 <HAL_GetTick>
240022b0:	6278      	str	r0, [r7, #36]	@ 0x24
240022b2:	e00a      	b.n	240022ca <HAL_RCC_OscConfig+0x606>
240022b4:	f7fe fa1c 	bl	240006f0 <HAL_GetTick>
240022b8:	4602      	mov	r2, r0
240022ba:	6a7b      	ldr	r3, [r7, #36]	@ 0x24
240022bc:	1ad3      	subs	r3, r2, r3
240022be:	f241 3288 	movw	r2, #5000	@ 0x1388
240022c2:	4293      	cmp	r3, r2
240022c4:	d901      	bls.n	240022ca <HAL_RCC_OscConfig+0x606>
240022c6:	2303      	movs	r3, #3
240022c8:	e14e      	b.n	24002568 <HAL_RCC_OscConfig+0x8a4>
240022ca:	4b59      	ldr	r3, [pc, #356]	@ (24002430 <HAL_RCC_OscConfig+0x76c>)
240022cc:	6f1b      	ldr	r3, [r3, #112]	@ 0x70
240022ce:	f003 0302 	and.w	r3, r3, #2
240022d2:	2b00      	cmp	r3, #0
240022d4:	d0ee      	beq.n	240022b4 <HAL_RCC_OscConfig+0x5f0>
240022d6:	e014      	b.n	24002302 <HAL_RCC_OscConfig+0x63e>
240022d8:	f7fe fa0a 	bl	240006f0 <HAL_GetTick>
240022dc:	6278      	str	r0, [r7, #36]	@ 0x24
240022de:	e00a      	b.n	240022f6 <HAL_RCC_OscConfig+0x632>
240022e0:	f7fe fa06 	bl	240006f0 <HAL_GetTick>
240022e4:	4602      	mov	r2, r0
240022e6:	6a7b      	ldr	r3, [r7, #36]	@ 0x24
240022e8:	1ad3      	subs	r3, r2, r3
240022ea:	f241 3288 	movw	r2, #5000	@ 0x1388
240022ee:	4293      	cmp	r3, r2
240022f0:	d901      	bls.n	240022f6 <HAL_RCC_OscConfig+0x632>
240022f2:	2303      	movs	r3, #3
240022f4:	e138      	b.n	24002568 <HAL_RCC_OscConfig+0x8a4>
240022f6:	4b4e      	ldr	r3, [pc, #312]	@ (24002430 <HAL_RCC_OscConfig+0x76c>)
240022f8:	6f1b      	ldr	r3, [r3, #112]	@ 0x70
240022fa:	f003 0302 	and.w	r3, r3, #2
240022fe:	2b00      	cmp	r3, #0
24002300:	d1ee      	bne.n	240022e0 <HAL_RCC_OscConfig+0x61c>
24002302:	687b      	ldr	r3, [r7, #4]
24002304:	6a5b      	ldr	r3, [r3, #36]	@ 0x24
24002306:	2b00      	cmp	r3, #0
24002308:	f000 812d 	beq.w	24002566 <HAL_RCC_OscConfig+0x8a2>
2400230c:	4b48      	ldr	r3, [pc, #288]	@ (24002430 <HAL_RCC_OscConfig+0x76c>)
2400230e:	691b      	ldr	r3, [r3, #16]
24002310:	f003 0338 	and.w	r3, r3, #56	@ 0x38
24002314:	2b18      	cmp	r3, #24
24002316:	f000 80bd 	beq.w	24002494 <HAL_RCC_OscConfig+0x7d0>
2400231a:	687b      	ldr	r3, [r7, #4]
2400231c:	6a5b      	ldr	r3, [r3, #36]	@ 0x24
2400231e:	2b02      	cmp	r3, #2
24002320:	f040 809e 	bne.w	24002460 <HAL_RCC_OscConfig+0x79c>
24002324:	4b42      	ldr	r3, [pc, #264]	@ (24002430 <HAL_RCC_OscConfig+0x76c>)
24002326:	681b      	ldr	r3, [r3, #0]
24002328:	4a41      	ldr	r2, [pc, #260]	@ (24002430 <HAL_RCC_OscConfig+0x76c>)
2400232a:	f023 7380 	bic.w	r3, r3, #16777216	@ 0x1000000
2400232e:	6013      	str	r3, [r2, #0]
24002330:	f7fe f9de 	bl	240006f0 <HAL_GetTick>
24002334:	6278      	str	r0, [r7, #36]	@ 0x24
24002336:	e008      	b.n	2400234a <HAL_RCC_OscConfig+0x686>
24002338:	f7fe f9da 	bl	240006f0 <HAL_GetTick>
2400233c:	4602      	mov	r2, r0
2400233e:	6a7b      	ldr	r3, [r7, #36]	@ 0x24
24002340:	1ad3      	subs	r3, r2, r3
24002342:	2b02      	cmp	r3, #2
24002344:	d901      	bls.n	2400234a <HAL_RCC_OscConfig+0x686>
24002346:	2303      	movs	r3, #3
24002348:	e10e      	b.n	24002568 <HAL_RCC_OscConfig+0x8a4>
2400234a:	4b39      	ldr	r3, [pc, #228]	@ (24002430 <HAL_RCC_OscConfig+0x76c>)
2400234c:	681b      	ldr	r3, [r3, #0]
2400234e:	f003 7300 	and.w	r3, r3, #33554432	@ 0x2000000
24002352:	2b00      	cmp	r3, #0
24002354:	d1f0      	bne.n	24002338 <HAL_RCC_OscConfig+0x674>
24002356:	4b36      	ldr	r3, [pc, #216]	@ (24002430 <HAL_RCC_OscConfig+0x76c>)
24002358:	6a9a      	ldr	r2, [r3, #40]	@ 0x28
2400235a:	4b37      	ldr	r3, [pc, #220]	@ (24002438 <HAL_RCC_OscConfig+0x774>)
2400235c:	4013      	ands	r3, r2
2400235e:	687a      	ldr	r2, [r7, #4]
24002360:	6a91      	ldr	r1, [r2, #40]	@ 0x28
24002362:	687a      	ldr	r2, [r7, #4]
24002364:	6ad2      	ldr	r2, [r2, #44]	@ 0x2c
24002366:	0112      	lsls	r2, r2, #4
24002368:	430a      	orrs	r2, r1
2400236a:	4931      	ldr	r1, [pc, #196]	@ (24002430 <HAL_RCC_OscConfig+0x76c>)
2400236c:	4313      	orrs	r3, r2
2400236e:	628b      	str	r3, [r1, #40]	@ 0x28
24002370:	687b      	ldr	r3, [r7, #4]
24002372:	6b1b      	ldr	r3, [r3, #48]	@ 0x30
24002374:	3b01      	subs	r3, #1
24002376:	f3c3 0208 	ubfx	r2, r3, #0, #9
2400237a:	687b      	ldr	r3, [r7, #4]
2400237c:	6b5b      	ldr	r3, [r3, #52]	@ 0x34
2400237e:	3b01      	subs	r3, #1
24002380:	025b      	lsls	r3, r3, #9
24002382:	b29b      	uxth	r3, r3
24002384:	431a      	orrs	r2, r3
24002386:	687b      	ldr	r3, [r7, #4]
24002388:	6b9b      	ldr	r3, [r3, #56]	@ 0x38
2400238a:	3b01      	subs	r3, #1
2400238c:	041b      	lsls	r3, r3, #16
2400238e:	f403 03fe 	and.w	r3, r3, #8323072	@ 0x7f0000
24002392:	431a      	orrs	r2, r3
24002394:	687b      	ldr	r3, [r7, #4]
24002396:	6bdb      	ldr	r3, [r3, #60]	@ 0x3c
24002398:	3b01      	subs	r3, #1
2400239a:	061b      	lsls	r3, r3, #24
2400239c:	f003 43fe 	and.w	r3, r3, #2130706432	@ 0x7f000000
240023a0:	4923      	ldr	r1, [pc, #140]	@ (24002430 <HAL_RCC_OscConfig+0x76c>)
240023a2:	4313      	orrs	r3, r2
240023a4:	630b      	str	r3, [r1, #48]	@ 0x30
240023a6:	4b22      	ldr	r3, [pc, #136]	@ (24002430 <HAL_RCC_OscConfig+0x76c>)
240023a8:	6adb      	ldr	r3, [r3, #44]	@ 0x2c
240023aa:	4a21      	ldr	r2, [pc, #132]	@ (24002430 <HAL_RCC_OscConfig+0x76c>)
240023ac:	f023 0301 	bic.w	r3, r3, #1
240023b0:	62d3      	str	r3, [r2, #44]	@ 0x2c
240023b2:	4b1f      	ldr	r3, [pc, #124]	@ (24002430 <HAL_RCC_OscConfig+0x76c>)
240023b4:	6b5a      	ldr	r2, [r3, #52]	@ 0x34
240023b6:	4b21      	ldr	r3, [pc, #132]	@ (2400243c <HAL_RCC_OscConfig+0x778>)
240023b8:	4013      	ands	r3, r2
240023ba:	687a      	ldr	r2, [r7, #4]
240023bc:	6c92      	ldr	r2, [r2, #72]	@ 0x48
240023be:	00d2      	lsls	r2, r2, #3
240023c0:	491b      	ldr	r1, [pc, #108]	@ (24002430 <HAL_RCC_OscConfig+0x76c>)
240023c2:	4313      	orrs	r3, r2
240023c4:	634b      	str	r3, [r1, #52]	@ 0x34
240023c6:	4b1a      	ldr	r3, [pc, #104]	@ (24002430 <HAL_RCC_OscConfig+0x76c>)
240023c8:	6adb      	ldr	r3, [r3, #44]	@ 0x2c
240023ca:	f023 020c 	bic.w	r2, r3, #12
240023ce:	687b      	ldr	r3, [r7, #4]
240023d0:	6c1b      	ldr	r3, [r3, #64]	@ 0x40
240023d2:	4917      	ldr	r1, [pc, #92]	@ (24002430 <HAL_RCC_OscConfig+0x76c>)
240023d4:	4313      	orrs	r3, r2
240023d6:	62cb      	str	r3, [r1, #44]	@ 0x2c
240023d8:	4b15      	ldr	r3, [pc, #84]	@ (24002430 <HAL_RCC_OscConfig+0x76c>)
240023da:	6adb      	ldr	r3, [r3, #44]	@ 0x2c
240023dc:	f023 0202 	bic.w	r2, r3, #2
240023e0:	687b      	ldr	r3, [r7, #4]
240023e2:	6c5b      	ldr	r3, [r3, #68]	@ 0x44
240023e4:	4912      	ldr	r1, [pc, #72]	@ (24002430 <HAL_RCC_OscConfig+0x76c>)
240023e6:	4313      	orrs	r3, r2
240023e8:	62cb      	str	r3, [r1, #44]	@ 0x2c
240023ea:	4b11      	ldr	r3, [pc, #68]	@ (24002430 <HAL_RCC_OscConfig+0x76c>)
240023ec:	6adb      	ldr	r3, [r3, #44]	@ 0x2c
240023ee:	4a10      	ldr	r2, [pc, #64]	@ (24002430 <HAL_RCC_OscConfig+0x76c>)
240023f0:	f443 3380 	orr.w	r3, r3, #65536	@ 0x10000
240023f4:	62d3      	str	r3, [r2, #44]	@ 0x2c
240023f6:	4b0e      	ldr	r3, [pc, #56]	@ (24002430 <HAL_RCC_OscConfig+0x76c>)
240023f8:	6adb      	ldr	r3, [r3, #44]	@ 0x2c
240023fa:	4a0d      	ldr	r2, [pc, #52]	@ (24002430 <HAL_RCC_OscConfig+0x76c>)
240023fc:	f443 3300 	orr.w	r3, r3, #131072	@ 0x20000
24002400:	62d3      	str	r3, [r2, #44]	@ 0x2c
24002402:	4b0b      	ldr	r3, [pc, #44]	@ (24002430 <HAL_RCC_OscConfig+0x76c>)
24002404:	6adb      	ldr	r3, [r3, #44]	@ 0x2c
24002406:	4a0a      	ldr	r2, [pc, #40]	@ (24002430 <HAL_RCC_OscConfig+0x76c>)
24002408:	f443 2380 	orr.w	r3, r3, #262144	@ 0x40000
2400240c:	62d3      	str	r3, [r2, #44]	@ 0x2c
2400240e:	4b08      	ldr	r3, [pc, #32]	@ (24002430 <HAL_RCC_OscConfig+0x76c>)
24002410:	6adb      	ldr	r3, [r3, #44]	@ 0x2c
24002412:	4a07      	ldr	r2, [pc, #28]	@ (24002430 <HAL_RCC_OscConfig+0x76c>)
24002414:	f043 0301 	orr.w	r3, r3, #1
24002418:	62d3      	str	r3, [r2, #44]	@ 0x2c
2400241a:	4b05      	ldr	r3, [pc, #20]	@ (24002430 <HAL_RCC_OscConfig+0x76c>)
2400241c:	681b      	ldr	r3, [r3, #0]
2400241e:	4a04      	ldr	r2, [pc, #16]	@ (24002430 <HAL_RCC_OscConfig+0x76c>)
24002420:	f043 7380 	orr.w	r3, r3, #16777216	@ 0x1000000
24002424:	6013      	str	r3, [r2, #0]
24002426:	f7fe f963 	bl	240006f0 <HAL_GetTick>
2400242a:	6278      	str	r0, [r7, #36]	@ 0x24
2400242c:	e011      	b.n	24002452 <HAL_RCC_OscConfig+0x78e>
2400242e:	bf00      	nop
24002430:	58024400 	.word	0x58024400
24002434:	58024800 	.word	0x58024800
24002438:	fffffc0c 	.word	0xfffffc0c
2400243c:	ffff0007 	.word	0xffff0007
24002440:	f7fe f956 	bl	240006f0 <HAL_GetTick>
24002444:	4602      	mov	r2, r0
24002446:	6a7b      	ldr	r3, [r7, #36]	@ 0x24
24002448:	1ad3      	subs	r3, r2, r3
2400244a:	2b02      	cmp	r3, #2
2400244c:	d901      	bls.n	24002452 <HAL_RCC_OscConfig+0x78e>
2400244e:	2303      	movs	r3, #3
24002450:	e08a      	b.n	24002568 <HAL_RCC_OscConfig+0x8a4>
24002452:	4b47      	ldr	r3, [pc, #284]	@ (24002570 <HAL_RCC_OscConfig+0x8ac>)
24002454:	681b      	ldr	r3, [r3, #0]
24002456:	f003 7300 	and.w	r3, r3, #33554432	@ 0x2000000
2400245a:	2b00      	cmp	r3, #0
2400245c:	d0f0      	beq.n	24002440 <HAL_RCC_OscConfig+0x77c>
2400245e:	e082      	b.n	24002566 <HAL_RCC_OscConfig+0x8a2>
24002460:	4b43      	ldr	r3, [pc, #268]	@ (24002570 <HAL_RCC_OscConfig+0x8ac>)
24002462:	681b      	ldr	r3, [r3, #0]
24002464:	4a42      	ldr	r2, [pc, #264]	@ (24002570 <HAL_RCC_OscConfig+0x8ac>)
24002466:	f023 7380 	bic.w	r3, r3, #16777216	@ 0x1000000
2400246a:	6013      	str	r3, [r2, #0]
2400246c:	f7fe f940 	bl	240006f0 <HAL_GetTick>
24002470:	6278      	str	r0, [r7, #36]	@ 0x24
24002472:	e008      	b.n	24002486 <HAL_RCC_OscConfig+0x7c2>
24002474:	f7fe f93c 	bl	240006f0 <HAL_GetTick>
24002478:	4602      	mov	r2, r0
2400247a:	6a7b      	ldr	r3, [r7, #36]	@ 0x24
2400247c:	1ad3      	subs	r3, r2, r3
2400247e:	2b02      	cmp	r3, #2
24002480:	d901      	bls.n	24002486 <HAL_RCC_OscConfig+0x7c2>
24002482:	2303      	movs	r3, #3
24002484:	e070      	b.n	24002568 <HAL_RCC_OscConfig+0x8a4>
24002486:	4b3a      	ldr	r3, [pc, #232]	@ (24002570 <HAL_RCC_OscConfig+0x8ac>)
24002488:	681b      	ldr	r3, [r3, #0]
2400248a:	f003 7300 	and.w	r3, r3, #33554432	@ 0x2000000
2400248e:	2b00      	cmp	r3, #0
24002490:	d1f0      	bne.n	24002474 <HAL_RCC_OscConfig+0x7b0>
24002492:	e068      	b.n	24002566 <HAL_RCC_OscConfig+0x8a2>
24002494:	4b36      	ldr	r3, [pc, #216]	@ (24002570 <HAL_RCC_OscConfig+0x8ac>)
24002496:	6a9b      	ldr	r3, [r3, #40]	@ 0x28
24002498:	613b      	str	r3, [r7, #16]
2400249a:	4b35      	ldr	r3, [pc, #212]	@ (24002570 <HAL_RCC_OscConfig+0x8ac>)
2400249c:	6b1b      	ldr	r3, [r3, #48]	@ 0x30
2400249e:	60fb      	str	r3, [r7, #12]
240024a0:	687b      	ldr	r3, [r7, #4]
240024a2:	6a5b      	ldr	r3, [r3, #36]	@ 0x24
240024a4:	2b01      	cmp	r3, #1
240024a6:	d031      	beq.n	2400250c <HAL_RCC_OscConfig+0x848>
240024a8:	693b      	ldr	r3, [r7, #16]
240024aa:	f003 0203 	and.w	r2, r3, #3
240024ae:	687b      	ldr	r3, [r7, #4]
240024b0:	6a9b      	ldr	r3, [r3, #40]	@ 0x28
240024b2:	429a      	cmp	r2, r3
240024b4:	d12a      	bne.n	2400250c <HAL_RCC_OscConfig+0x848>
240024b6:	693b      	ldr	r3, [r7, #16]
240024b8:	091b      	lsrs	r3, r3, #4
240024ba:	f003 023f 	and.w	r2, r3, #63	@ 0x3f
240024be:	687b      	ldr	r3, [r7, #4]
240024c0:	6adb      	ldr	r3, [r3, #44]	@ 0x2c
240024c2:	429a      	cmp	r2, r3
240024c4:	d122      	bne.n	2400250c <HAL_RCC_OscConfig+0x848>
240024c6:	68fb      	ldr	r3, [r7, #12]
240024c8:	f3c3 0208 	ubfx	r2, r3, #0, #9
240024cc:	687b      	ldr	r3, [r7, #4]
240024ce:	6b1b      	ldr	r3, [r3, #48]	@ 0x30
240024d0:	3b01      	subs	r3, #1
240024d2:	429a      	cmp	r2, r3
240024d4:	d11a      	bne.n	2400250c <HAL_RCC_OscConfig+0x848>
240024d6:	68fb      	ldr	r3, [r7, #12]
240024d8:	0a5b      	lsrs	r3, r3, #9
240024da:	f003 027f 	and.w	r2, r3, #127	@ 0x7f
240024de:	687b      	ldr	r3, [r7, #4]
240024e0:	6b5b      	ldr	r3, [r3, #52]	@ 0x34
240024e2:	3b01      	subs	r3, #1
240024e4:	429a      	cmp	r2, r3
240024e6:	d111      	bne.n	2400250c <HAL_RCC_OscConfig+0x848>
240024e8:	68fb      	ldr	r3, [r7, #12]
240024ea:	0c1b      	lsrs	r3, r3, #16
240024ec:	f003 027f 	and.w	r2, r3, #127	@ 0x7f
240024f0:	687b      	ldr	r3, [r7, #4]
240024f2:	6b9b      	ldr	r3, [r3, #56]	@ 0x38
240024f4:	3b01      	subs	r3, #1
240024f6:	429a      	cmp	r2, r3
240024f8:	d108      	bne.n	2400250c <HAL_RCC_OscConfig+0x848>
240024fa:	68fb      	ldr	r3, [r7, #12]
240024fc:	0e1b      	lsrs	r3, r3, #24
240024fe:	f003 027f 	and.w	r2, r3, #127	@ 0x7f
24002502:	687b      	ldr	r3, [r7, #4]
24002504:	6bdb      	ldr	r3, [r3, #60]	@ 0x3c
24002506:	3b01      	subs	r3, #1
24002508:	429a      	cmp	r2, r3
2400250a:	d001      	beq.n	24002510 <HAL_RCC_OscConfig+0x84c>
2400250c:	2301      	movs	r3, #1
2400250e:	e02b      	b.n	24002568 <HAL_RCC_OscConfig+0x8a4>
24002510:	4b17      	ldr	r3, [pc, #92]	@ (24002570 <HAL_RCC_OscConfig+0x8ac>)
24002512:	6b5b      	ldr	r3, [r3, #52]	@ 0x34
24002514:	08db      	lsrs	r3, r3, #3
24002516:	f3c3 030c 	ubfx	r3, r3, #0, #13
2400251a:	613b      	str	r3, [r7, #16]
2400251c:	687b      	ldr	r3, [r7, #4]
2400251e:	6c9b      	ldr	r3, [r3, #72]	@ 0x48
24002520:	693a      	ldr	r2, [r7, #16]
24002522:	429a      	cmp	r2, r3
24002524:	d01f      	beq.n	24002566 <HAL_RCC_OscConfig+0x8a2>
24002526:	4b12      	ldr	r3, [pc, #72]	@ (24002570 <HAL_RCC_OscConfig+0x8ac>)
24002528:	6adb      	ldr	r3, [r3, #44]	@ 0x2c
2400252a:	4a11      	ldr	r2, [pc, #68]	@ (24002570 <HAL_RCC_OscConfig+0x8ac>)
2400252c:	f023 0301 	bic.w	r3, r3, #1
24002530:	62d3      	str	r3, [r2, #44]	@ 0x2c
24002532:	f7fe f8dd 	bl	240006f0 <HAL_GetTick>
24002536:	6278      	str	r0, [r7, #36]	@ 0x24
24002538:	bf00      	nop
2400253a:	f7fe f8d9 	bl	240006f0 <HAL_GetTick>
2400253e:	4602      	mov	r2, r0
24002540:	6a7b      	ldr	r3, [r7, #36]	@ 0x24
24002542:	4293      	cmp	r3, r2
24002544:	d0f9      	beq.n	2400253a <HAL_RCC_OscConfig+0x876>
24002546:	4b0a      	ldr	r3, [pc, #40]	@ (24002570 <HAL_RCC_OscConfig+0x8ac>)
24002548:	6b5a      	ldr	r2, [r3, #52]	@ 0x34
2400254a:	4b0a      	ldr	r3, [pc, #40]	@ (24002574 <HAL_RCC_OscConfig+0x8b0>)
2400254c:	4013      	ands	r3, r2
2400254e:	687a      	ldr	r2, [r7, #4]
24002550:	6c92      	ldr	r2, [r2, #72]	@ 0x48
24002552:	00d2      	lsls	r2, r2, #3
24002554:	4906      	ldr	r1, [pc, #24]	@ (24002570 <HAL_RCC_OscConfig+0x8ac>)
24002556:	4313      	orrs	r3, r2
24002558:	634b      	str	r3, [r1, #52]	@ 0x34
2400255a:	4b05      	ldr	r3, [pc, #20]	@ (24002570 <HAL_RCC_OscConfig+0x8ac>)
2400255c:	6adb      	ldr	r3, [r3, #44]	@ 0x2c
2400255e:	4a04      	ldr	r2, [pc, #16]	@ (24002570 <HAL_RCC_OscConfig+0x8ac>)
24002560:	f043 0301 	orr.w	r3, r3, #1
24002564:	62d3      	str	r3, [r2, #44]	@ 0x2c
24002566:	2300      	movs	r3, #0
24002568:	4618      	mov	r0, r3
2400256a:	3730      	adds	r7, #48	@ 0x30
2400256c:	46bd      	mov	sp, r7
2400256e:	bd80      	pop	{r7, pc}
24002570:	58024400 	.word	0x58024400
24002574:	ffff0007 	.word	0xffff0007

24002578 <HAL_RCC_ClockConfig>:
24002578:	b580      	push	{r7, lr}
2400257a:	b086      	sub	sp, #24
2400257c:	af00      	add	r7, sp, #0
2400257e:	6078      	str	r0, [r7, #4]
24002580:	6039      	str	r1, [r7, #0]
24002582:	687b      	ldr	r3, [r7, #4]
24002584:	2b00      	cmp	r3, #0
24002586:	d101      	bne.n	2400258c <HAL_RCC_ClockConfig+0x14>
24002588:	2301      	movs	r3, #1
2400258a:	e19c      	b.n	240028c6 <HAL_RCC_ClockConfig+0x34e>
2400258c:	4b8a      	ldr	r3, [pc, #552]	@ (240027b8 <HAL_RCC_ClockConfig+0x240>)
2400258e:	681b      	ldr	r3, [r3, #0]
24002590:	f003 030f 	and.w	r3, r3, #15
24002594:	683a      	ldr	r2, [r7, #0]
24002596:	429a      	cmp	r2, r3
24002598:	d910      	bls.n	240025bc <HAL_RCC_ClockConfig+0x44>
2400259a:	4b87      	ldr	r3, [pc, #540]	@ (240027b8 <HAL_RCC_ClockConfig+0x240>)
2400259c:	681b      	ldr	r3, [r3, #0]
2400259e:	f023 020f 	bic.w	r2, r3, #15
240025a2:	4985      	ldr	r1, [pc, #532]	@ (240027b8 <HAL_RCC_ClockConfig+0x240>)
240025a4:	683b      	ldr	r3, [r7, #0]
240025a6:	4313      	orrs	r3, r2
240025a8:	600b      	str	r3, [r1, #0]
240025aa:	4b83      	ldr	r3, [pc, #524]	@ (240027b8 <HAL_RCC_ClockConfig+0x240>)
240025ac:	681b      	ldr	r3, [r3, #0]
240025ae:	f003 030f 	and.w	r3, r3, #15
240025b2:	683a      	ldr	r2, [r7, #0]
240025b4:	429a      	cmp	r2, r3
240025b6:	d001      	beq.n	240025bc <HAL_RCC_ClockConfig+0x44>
240025b8:	2301      	movs	r3, #1
240025ba:	e184      	b.n	240028c6 <HAL_RCC_ClockConfig+0x34e>
240025bc:	687b      	ldr	r3, [r7, #4]
240025be:	681b      	ldr	r3, [r3, #0]
240025c0:	f003 0304 	and.w	r3, r3, #4
240025c4:	2b00      	cmp	r3, #0
240025c6:	d010      	beq.n	240025ea <HAL_RCC_ClockConfig+0x72>
240025c8:	687b      	ldr	r3, [r7, #4]
240025ca:	691a      	ldr	r2, [r3, #16]
240025cc:	4b7b      	ldr	r3, [pc, #492]	@ (240027bc <HAL_RCC_ClockConfig+0x244>)
240025ce:	699b      	ldr	r3, [r3, #24]
240025d0:	f003 0370 	and.w	r3, r3, #112	@ 0x70
240025d4:	429a      	cmp	r2, r3
240025d6:	d908      	bls.n	240025ea <HAL_RCC_ClockConfig+0x72>
240025d8:	4b78      	ldr	r3, [pc, #480]	@ (240027bc <HAL_RCC_ClockConfig+0x244>)
240025da:	699b      	ldr	r3, [r3, #24]
240025dc:	f023 0270 	bic.w	r2, r3, #112	@ 0x70
240025e0:	687b      	ldr	r3, [r7, #4]
240025e2:	691b      	ldr	r3, [r3, #16]
240025e4:	4975      	ldr	r1, [pc, #468]	@ (240027bc <HAL_RCC_ClockConfig+0x244>)
240025e6:	4313      	orrs	r3, r2
240025e8:	618b      	str	r3, [r1, #24]
240025ea:	687b      	ldr	r3, [r7, #4]
240025ec:	681b      	ldr	r3, [r3, #0]
240025ee:	f003 0308 	and.w	r3, r3, #8
240025f2:	2b00      	cmp	r3, #0
240025f4:	d010      	beq.n	24002618 <HAL_RCC_ClockConfig+0xa0>
240025f6:	687b      	ldr	r3, [r7, #4]
240025f8:	695a      	ldr	r2, [r3, #20]
240025fa:	4b70      	ldr	r3, [pc, #448]	@ (240027bc <HAL_RCC_ClockConfig+0x244>)
240025fc:	69db      	ldr	r3, [r3, #28]
240025fe:	f003 0370 	and.w	r3, r3, #112	@ 0x70
24002602:	429a      	cmp	r2, r3
24002604:	d908      	bls.n	24002618 <HAL_RCC_ClockConfig+0xa0>
24002606:	4b6d      	ldr	r3, [pc, #436]	@ (240027bc <HAL_RCC_ClockConfig+0x244>)
24002608:	69db      	ldr	r3, [r3, #28]
2400260a:	f023 0270 	bic.w	r2, r3, #112	@ 0x70
2400260e:	687b      	ldr	r3, [r7, #4]
24002610:	695b      	ldr	r3, [r3, #20]
24002612:	496a      	ldr	r1, [pc, #424]	@ (240027bc <HAL_RCC_ClockConfig+0x244>)
24002614:	4313      	orrs	r3, r2
24002616:	61cb      	str	r3, [r1, #28]
24002618:	687b      	ldr	r3, [r7, #4]
2400261a:	681b      	ldr	r3, [r3, #0]
2400261c:	f003 0310 	and.w	r3, r3, #16
24002620:	2b00      	cmp	r3, #0
24002622:	d010      	beq.n	24002646 <HAL_RCC_ClockConfig+0xce>
24002624:	687b      	ldr	r3, [r7, #4]
24002626:	699a      	ldr	r2, [r3, #24]
24002628:	4b64      	ldr	r3, [pc, #400]	@ (240027bc <HAL_RCC_ClockConfig+0x244>)
2400262a:	69db      	ldr	r3, [r3, #28]
2400262c:	f403 63e0 	and.w	r3, r3, #1792	@ 0x700
24002630:	429a      	cmp	r2, r3
24002632:	d908      	bls.n	24002646 <HAL_RCC_ClockConfig+0xce>
24002634:	4b61      	ldr	r3, [pc, #388]	@ (240027bc <HAL_RCC_ClockConfig+0x244>)
24002636:	69db      	ldr	r3, [r3, #28]
24002638:	f423 62e0 	bic.w	r2, r3, #1792	@ 0x700
2400263c:	687b      	ldr	r3, [r7, #4]
2400263e:	699b      	ldr	r3, [r3, #24]
24002640:	495e      	ldr	r1, [pc, #376]	@ (240027bc <HAL_RCC_ClockConfig+0x244>)
24002642:	4313      	orrs	r3, r2
24002644:	61cb      	str	r3, [r1, #28]
24002646:	687b      	ldr	r3, [r7, #4]
24002648:	681b      	ldr	r3, [r3, #0]
2400264a:	f003 0320 	and.w	r3, r3, #32
2400264e:	2b00      	cmp	r3, #0
24002650:	d010      	beq.n	24002674 <HAL_RCC_ClockConfig+0xfc>
24002652:	687b      	ldr	r3, [r7, #4]
24002654:	69da      	ldr	r2, [r3, #28]
24002656:	4b59      	ldr	r3, [pc, #356]	@ (240027bc <HAL_RCC_ClockConfig+0x244>)
24002658:	6a1b      	ldr	r3, [r3, #32]
2400265a:	f003 0370 	and.w	r3, r3, #112	@ 0x70
2400265e:	429a      	cmp	r2, r3
24002660:	d908      	bls.n	24002674 <HAL_RCC_ClockConfig+0xfc>
24002662:	4b56      	ldr	r3, [pc, #344]	@ (240027bc <HAL_RCC_ClockConfig+0x244>)
24002664:	6a1b      	ldr	r3, [r3, #32]
24002666:	f023 0270 	bic.w	r2, r3, #112	@ 0x70
2400266a:	687b      	ldr	r3, [r7, #4]
2400266c:	69db      	ldr	r3, [r3, #28]
2400266e:	4953      	ldr	r1, [pc, #332]	@ (240027bc <HAL_RCC_ClockConfig+0x244>)
24002670:	4313      	orrs	r3, r2
24002672:	620b      	str	r3, [r1, #32]
24002674:	687b      	ldr	r3, [r7, #4]
24002676:	681b      	ldr	r3, [r3, #0]
24002678:	f003 0302 	and.w	r3, r3, #2
2400267c:	2b00      	cmp	r3, #0
2400267e:	d010      	beq.n	240026a2 <HAL_RCC_ClockConfig+0x12a>
24002680:	687b      	ldr	r3, [r7, #4]
24002682:	68da      	ldr	r2, [r3, #12]
24002684:	4b4d      	ldr	r3, [pc, #308]	@ (240027bc <HAL_RCC_ClockConfig+0x244>)
24002686:	699b      	ldr	r3, [r3, #24]
24002688:	f003 030f 	and.w	r3, r3, #15
2400268c:	429a      	cmp	r2, r3
2400268e:	d908      	bls.n	240026a2 <HAL_RCC_ClockConfig+0x12a>
24002690:	4b4a      	ldr	r3, [pc, #296]	@ (240027bc <HAL_RCC_ClockConfig+0x244>)
24002692:	699b      	ldr	r3, [r3, #24]
24002694:	f023 020f 	bic.w	r2, r3, #15
24002698:	687b      	ldr	r3, [r7, #4]
2400269a:	68db      	ldr	r3, [r3, #12]
2400269c:	4947      	ldr	r1, [pc, #284]	@ (240027bc <HAL_RCC_ClockConfig+0x244>)
2400269e:	4313      	orrs	r3, r2
240026a0:	618b      	str	r3, [r1, #24]
240026a2:	687b      	ldr	r3, [r7, #4]
240026a4:	681b      	ldr	r3, [r3, #0]
240026a6:	f003 0301 	and.w	r3, r3, #1
240026aa:	2b00      	cmp	r3, #0
240026ac:	d055      	beq.n	2400275a <HAL_RCC_ClockConfig+0x1e2>
240026ae:	4b43      	ldr	r3, [pc, #268]	@ (240027bc <HAL_RCC_ClockConfig+0x244>)
240026b0:	699b      	ldr	r3, [r3, #24]
240026b2:	f423 6270 	bic.w	r2, r3, #3840	@ 0xf00
240026b6:	687b      	ldr	r3, [r7, #4]
240026b8:	689b      	ldr	r3, [r3, #8]
240026ba:	4940      	ldr	r1, [pc, #256]	@ (240027bc <HAL_RCC_ClockConfig+0x244>)
240026bc:	4313      	orrs	r3, r2
240026be:	618b      	str	r3, [r1, #24]
240026c0:	687b      	ldr	r3, [r7, #4]
240026c2:	685b      	ldr	r3, [r3, #4]
240026c4:	2b02      	cmp	r3, #2
240026c6:	d107      	bne.n	240026d8 <HAL_RCC_ClockConfig+0x160>
240026c8:	4b3c      	ldr	r3, [pc, #240]	@ (240027bc <HAL_RCC_ClockConfig+0x244>)
240026ca:	681b      	ldr	r3, [r3, #0]
240026cc:	f403 3300 	and.w	r3, r3, #131072	@ 0x20000
240026d0:	2b00      	cmp	r3, #0
240026d2:	d121      	bne.n	24002718 <HAL_RCC_ClockConfig+0x1a0>
240026d4:	2301      	movs	r3, #1
240026d6:	e0f6      	b.n	240028c6 <HAL_RCC_ClockConfig+0x34e>
240026d8:	687b      	ldr	r3, [r7, #4]
240026da:	685b      	ldr	r3, [r3, #4]
240026dc:	2b03      	cmp	r3, #3
240026de:	d107      	bne.n	240026f0 <HAL_RCC_ClockConfig+0x178>
240026e0:	4b36      	ldr	r3, [pc, #216]	@ (240027bc <HAL_RCC_ClockConfig+0x244>)
240026e2:	681b      	ldr	r3, [r3, #0]
240026e4:	f003 7300 	and.w	r3, r3, #33554432	@ 0x2000000
240026e8:	2b00      	cmp	r3, #0
240026ea:	d115      	bne.n	24002718 <HAL_RCC_ClockConfig+0x1a0>
240026ec:	2301      	movs	r3, #1
240026ee:	e0ea      	b.n	240028c6 <HAL_RCC_ClockConfig+0x34e>
240026f0:	687b      	ldr	r3, [r7, #4]
240026f2:	685b      	ldr	r3, [r3, #4]
240026f4:	2b01      	cmp	r3, #1
240026f6:	d107      	bne.n	24002708 <HAL_RCC_ClockConfig+0x190>
240026f8:	4b30      	ldr	r3, [pc, #192]	@ (240027bc <HAL_RCC_ClockConfig+0x244>)
240026fa:	681b      	ldr	r3, [r3, #0]
240026fc:	f403 7380 	and.w	r3, r3, #256	@ 0x100
24002700:	2b00      	cmp	r3, #0
24002702:	d109      	bne.n	24002718 <HAL_RCC_ClockConfig+0x1a0>
24002704:	2301      	movs	r3, #1
24002706:	e0de      	b.n	240028c6 <HAL_RCC_ClockConfig+0x34e>
24002708:	4b2c      	ldr	r3, [pc, #176]	@ (240027bc <HAL_RCC_ClockConfig+0x244>)
2400270a:	681b      	ldr	r3, [r3, #0]
2400270c:	f003 0304 	and.w	r3, r3, #4
24002710:	2b00      	cmp	r3, #0
24002712:	d101      	bne.n	24002718 <HAL_RCC_ClockConfig+0x1a0>
24002714:	2301      	movs	r3, #1
24002716:	e0d6      	b.n	240028c6 <HAL_RCC_ClockConfig+0x34e>
24002718:	4b28      	ldr	r3, [pc, #160]	@ (240027bc <HAL_RCC_ClockConfig+0x244>)
2400271a:	691b      	ldr	r3, [r3, #16]
2400271c:	f023 0207 	bic.w	r2, r3, #7
24002720:	687b      	ldr	r3, [r7, #4]
24002722:	685b      	ldr	r3, [r3, #4]
24002724:	4925      	ldr	r1, [pc, #148]	@ (240027bc <HAL_RCC_ClockConfig+0x244>)
24002726:	4313      	orrs	r3, r2
24002728:	610b      	str	r3, [r1, #16]
2400272a:	f7fd ffe1 	bl	240006f0 <HAL_GetTick>
2400272e:	6178      	str	r0, [r7, #20]
24002730:	e00a      	b.n	24002748 <HAL_RCC_ClockConfig+0x1d0>
24002732:	f7fd ffdd 	bl	240006f0 <HAL_GetTick>
24002736:	4602      	mov	r2, r0
24002738:	697b      	ldr	r3, [r7, #20]
2400273a:	1ad3      	subs	r3, r2, r3
2400273c:	f241 3288 	movw	r2, #5000	@ 0x1388
24002740:	4293      	cmp	r3, r2
24002742:	d901      	bls.n	24002748 <HAL_RCC_ClockConfig+0x1d0>
24002744:	2303      	movs	r3, #3
24002746:	e0be      	b.n	240028c6 <HAL_RCC_ClockConfig+0x34e>
24002748:	4b1c      	ldr	r3, [pc, #112]	@ (240027bc <HAL_RCC_ClockConfig+0x244>)
2400274a:	691b      	ldr	r3, [r3, #16]
2400274c:	f003 0238 	and.w	r2, r3, #56	@ 0x38
24002750:	687b      	ldr	r3, [r7, #4]
24002752:	685b      	ldr	r3, [r3, #4]
24002754:	00db      	lsls	r3, r3, #3
24002756:	429a      	cmp	r2, r3
24002758:	d1eb      	bne.n	24002732 <HAL_RCC_ClockConfig+0x1ba>
2400275a:	687b      	ldr	r3, [r7, #4]
2400275c:	681b      	ldr	r3, [r3, #0]
2400275e:	f003 0302 	and.w	r3, r3, #2
24002762:	2b00      	cmp	r3, #0
24002764:	d010      	beq.n	24002788 <HAL_RCC_ClockConfig+0x210>
24002766:	687b      	ldr	r3, [r7, #4]
24002768:	68da      	ldr	r2, [r3, #12]
2400276a:	4b14      	ldr	r3, [pc, #80]	@ (240027bc <HAL_RCC_ClockConfig+0x244>)
2400276c:	699b      	ldr	r3, [r3, #24]
2400276e:	f003 030f 	and.w	r3, r3, #15
24002772:	429a      	cmp	r2, r3
24002774:	d208      	bcs.n	24002788 <HAL_RCC_ClockConfig+0x210>
24002776:	4b11      	ldr	r3, [pc, #68]	@ (240027bc <HAL_RCC_ClockConfig+0x244>)
24002778:	699b      	ldr	r3, [r3, #24]
2400277a:	f023 020f 	bic.w	r2, r3, #15
2400277e:	687b      	ldr	r3, [r7, #4]
24002780:	68db      	ldr	r3, [r3, #12]
24002782:	490e      	ldr	r1, [pc, #56]	@ (240027bc <HAL_RCC_ClockConfig+0x244>)
24002784:	4313      	orrs	r3, r2
24002786:	618b      	str	r3, [r1, #24]
24002788:	4b0b      	ldr	r3, [pc, #44]	@ (240027b8 <HAL_RCC_ClockConfig+0x240>)
2400278a:	681b      	ldr	r3, [r3, #0]
2400278c:	f003 030f 	and.w	r3, r3, #15
24002790:	683a      	ldr	r2, [r7, #0]
24002792:	429a      	cmp	r2, r3
24002794:	d214      	bcs.n	240027c0 <HAL_RCC_ClockConfig+0x248>
24002796:	4b08      	ldr	r3, [pc, #32]	@ (240027b8 <HAL_RCC_ClockConfig+0x240>)
24002798:	681b      	ldr	r3, [r3, #0]
2400279a:	f023 020f 	bic.w	r2, r3, #15
2400279e:	4906      	ldr	r1, [pc, #24]	@ (240027b8 <HAL_RCC_ClockConfig+0x240>)
240027a0:	683b      	ldr	r3, [r7, #0]
240027a2:	4313      	orrs	r3, r2
240027a4:	600b      	str	r3, [r1, #0]
240027a6:	4b04      	ldr	r3, [pc, #16]	@ (240027b8 <HAL_RCC_ClockConfig+0x240>)
240027a8:	681b      	ldr	r3, [r3, #0]
240027aa:	f003 030f 	and.w	r3, r3, #15
240027ae:	683a      	ldr	r2, [r7, #0]
240027b0:	429a      	cmp	r2, r3
240027b2:	d005      	beq.n	240027c0 <HAL_RCC_ClockConfig+0x248>
240027b4:	2301      	movs	r3, #1
240027b6:	e086      	b.n	240028c6 <HAL_RCC_ClockConfig+0x34e>
240027b8:	52002000 	.word	0x52002000
240027bc:	58024400 	.word	0x58024400
240027c0:	687b      	ldr	r3, [r7, #4]
240027c2:	681b      	ldr	r3, [r3, #0]
240027c4:	f003 0304 	and.w	r3, r3, #4
240027c8:	2b00      	cmp	r3, #0
240027ca:	d010      	beq.n	240027ee <HAL_RCC_ClockConfig+0x276>
240027cc:	687b      	ldr	r3, [r7, #4]
240027ce:	691a      	ldr	r2, [r3, #16]
240027d0:	4b3f      	ldr	r3, [pc, #252]	@ (240028d0 <HAL_RCC_ClockConfig+0x358>)
240027d2:	699b      	ldr	r3, [r3, #24]
240027d4:	f003 0370 	and.w	r3, r3, #112	@ 0x70
240027d8:	429a      	cmp	r2, r3
240027da:	d208      	bcs.n	240027ee <HAL_RCC_ClockConfig+0x276>
240027dc:	4b3c      	ldr	r3, [pc, #240]	@ (240028d0 <HAL_RCC_ClockConfig+0x358>)
240027de:	699b      	ldr	r3, [r3, #24]
240027e0:	f023 0270 	bic.w	r2, r3, #112	@ 0x70
240027e4:	687b      	ldr	r3, [r7, #4]
240027e6:	691b      	ldr	r3, [r3, #16]
240027e8:	4939      	ldr	r1, [pc, #228]	@ (240028d0 <HAL_RCC_ClockConfig+0x358>)
240027ea:	4313      	orrs	r3, r2
240027ec:	618b      	str	r3, [r1, #24]
240027ee:	687b      	ldr	r3, [r7, #4]
240027f0:	681b      	ldr	r3, [r3, #0]
240027f2:	f003 0308 	and.w	r3, r3, #8
240027f6:	2b00      	cmp	r3, #0
240027f8:	d010      	beq.n	2400281c <HAL_RCC_ClockConfig+0x2a4>
240027fa:	687b      	ldr	r3, [r7, #4]
240027fc:	695a      	ldr	r2, [r3, #20]
240027fe:	4b34      	ldr	r3, [pc, #208]	@ (240028d0 <HAL_RCC_ClockConfig+0x358>)
24002800:	69db      	ldr	r3, [r3, #28]
24002802:	f003 0370 	and.w	r3, r3, #112	@ 0x70
24002806:	429a      	cmp	r2, r3
24002808:	d208      	bcs.n	2400281c <HAL_RCC_ClockConfig+0x2a4>
2400280a:	4b31      	ldr	r3, [pc, #196]	@ (240028d0 <HAL_RCC_ClockConfig+0x358>)
2400280c:	69db      	ldr	r3, [r3, #28]
2400280e:	f023 0270 	bic.w	r2, r3, #112	@ 0x70
24002812:	687b      	ldr	r3, [r7, #4]
24002814:	695b      	ldr	r3, [r3, #20]
24002816:	492e      	ldr	r1, [pc, #184]	@ (240028d0 <HAL_RCC_ClockConfig+0x358>)
24002818:	4313      	orrs	r3, r2
2400281a:	61cb      	str	r3, [r1, #28]
2400281c:	687b      	ldr	r3, [r7, #4]
2400281e:	681b      	ldr	r3, [r3, #0]
24002820:	f003 0310 	and.w	r3, r3, #16
24002824:	2b00      	cmp	r3, #0
24002826:	d010      	beq.n	2400284a <HAL_RCC_ClockConfig+0x2d2>
24002828:	687b      	ldr	r3, [r7, #4]
2400282a:	699a      	ldr	r2, [r3, #24]
2400282c:	4b28      	ldr	r3, [pc, #160]	@ (240028d0 <HAL_RCC_ClockConfig+0x358>)
2400282e:	69db      	ldr	r3, [r3, #28]
24002830:	f403 63e0 	and.w	r3, r3, #1792	@ 0x700
24002834:	429a      	cmp	r2, r3
24002836:	d208      	bcs.n	2400284a <HAL_RCC_ClockConfig+0x2d2>
24002838:	4b25      	ldr	r3, [pc, #148]	@ (240028d0 <HAL_RCC_ClockConfig+0x358>)
2400283a:	69db      	ldr	r3, [r3, #28]
2400283c:	f423 62e0 	bic.w	r2, r3, #1792	@ 0x700
24002840:	687b      	ldr	r3, [r7, #4]
24002842:	699b      	ldr	r3, [r3, #24]
24002844:	4922      	ldr	r1, [pc, #136]	@ (240028d0 <HAL_RCC_ClockConfig+0x358>)
24002846:	4313      	orrs	r3, r2
24002848:	61cb      	str	r3, [r1, #28]
2400284a:	687b      	ldr	r3, [r7, #4]
2400284c:	681b      	ldr	r3, [r3, #0]
2400284e:	f003 0320 	and.w	r3, r3, #32
24002852:	2b00      	cmp	r3, #0
24002854:	d010      	beq.n	24002878 <HAL_RCC_ClockConfig+0x300>
24002856:	687b      	ldr	r3, [r7, #4]
24002858:	69da      	ldr	r2, [r3, #28]
2400285a:	4b1d      	ldr	r3, [pc, #116]	@ (240028d0 <HAL_RCC_ClockConfig+0x358>)
2400285c:	6a1b      	ldr	r3, [r3, #32]
2400285e:	f003 0370 	and.w	r3, r3, #112	@ 0x70
24002862:	429a      	cmp	r2, r3
24002864:	d208      	bcs.n	24002878 <HAL_RCC_ClockConfig+0x300>
24002866:	4b1a      	ldr	r3, [pc, #104]	@ (240028d0 <HAL_RCC_ClockConfig+0x358>)
24002868:	6a1b      	ldr	r3, [r3, #32]
2400286a:	f023 0270 	bic.w	r2, r3, #112	@ 0x70
2400286e:	687b      	ldr	r3, [r7, #4]
24002870:	69db      	ldr	r3, [r3, #28]
24002872:	4917      	ldr	r1, [pc, #92]	@ (240028d0 <HAL_RCC_ClockConfig+0x358>)
24002874:	4313      	orrs	r3, r2
24002876:	620b      	str	r3, [r1, #32]
24002878:	f000 f834 	bl	240028e4 <HAL_RCC_GetSysClockFreq>
2400287c:	4602      	mov	r2, r0
2400287e:	4b14      	ldr	r3, [pc, #80]	@ (240028d0 <HAL_RCC_ClockConfig+0x358>)
24002880:	699b      	ldr	r3, [r3, #24]
24002882:	0a1b      	lsrs	r3, r3, #8
24002884:	f003 030f 	and.w	r3, r3, #15
24002888:	4912      	ldr	r1, [pc, #72]	@ (240028d4 <HAL_RCC_ClockConfig+0x35c>)
2400288a:	5ccb      	ldrb	r3, [r1, r3]
2400288c:	f003 031f 	and.w	r3, r3, #31
24002890:	fa22 f303 	lsr.w	r3, r2, r3
24002894:	613b      	str	r3, [r7, #16]
24002896:	4b0e      	ldr	r3, [pc, #56]	@ (240028d0 <HAL_RCC_ClockConfig+0x358>)
24002898:	699b      	ldr	r3, [r3, #24]
2400289a:	f003 030f 	and.w	r3, r3, #15
2400289e:	4a0d      	ldr	r2, [pc, #52]	@ (240028d4 <HAL_RCC_ClockConfig+0x35c>)
240028a0:	5cd3      	ldrb	r3, [r2, r3]
240028a2:	f003 031f 	and.w	r3, r3, #31
240028a6:	693a      	ldr	r2, [r7, #16]
240028a8:	fa22 f303 	lsr.w	r3, r2, r3
240028ac:	4a0a      	ldr	r2, [pc, #40]	@ (240028d8 <HAL_RCC_ClockConfig+0x360>)
240028ae:	6013      	str	r3, [r2, #0]
240028b0:	4a0a      	ldr	r2, [pc, #40]	@ (240028dc <HAL_RCC_ClockConfig+0x364>)
240028b2:	693b      	ldr	r3, [r7, #16]
240028b4:	6013      	str	r3, [r2, #0]
240028b6:	4b0a      	ldr	r3, [pc, #40]	@ (240028e0 <HAL_RCC_ClockConfig+0x368>)
240028b8:	681b      	ldr	r3, [r3, #0]
240028ba:	4618      	mov	r0, r3
240028bc:	f7fd ff0c 	bl	240006d8 <HAL_InitTick>
240028c0:	4603      	mov	r3, r0
240028c2:	73fb      	strb	r3, [r7, #15]
240028c4:	7bfb      	ldrb	r3, [r7, #15]
240028c6:	4618      	mov	r0, r3
240028c8:	3718      	adds	r7, #24
240028ca:	46bd      	mov	sp, r7
240028cc:	bd80      	pop	{r7, pc}
240028ce:	bf00      	nop
240028d0:	58024400 	.word	0x58024400
240028d4:	240042dc 	.word	0x240042dc
240028d8:	240042f8 	.word	0x240042f8
240028dc:	240042f4 	.word	0x240042f4
240028e0:	240042fc 	.word	0x240042fc

240028e4 <HAL_RCC_GetSysClockFreq>:
240028e4:	b480      	push	{r7}
240028e6:	b089      	sub	sp, #36	@ 0x24
240028e8:	af00      	add	r7, sp, #0
240028ea:	4bb3      	ldr	r3, [pc, #716]	@ (24002bb8 <HAL_RCC_GetSysClockFreq+0x2d4>)
240028ec:	691b      	ldr	r3, [r3, #16]
240028ee:	f003 0338 	and.w	r3, r3, #56	@ 0x38
240028f2:	2b18      	cmp	r3, #24
240028f4:	f200 8155 	bhi.w	24002ba2 <HAL_RCC_GetSysClockFreq+0x2be>
240028f8:	a201      	add	r2, pc, #4	@ (adr r2, 24002900 <HAL_RCC_GetSysClockFreq+0x1c>)
240028fa:	f852 f023 	ldr.w	pc, [r2, r3, lsl #2]
240028fe:	bf00      	nop
24002900:	24002965 	.word	0x24002965
24002904:	24002ba3 	.word	0x24002ba3
24002908:	24002ba3 	.word	0x24002ba3
2400290c:	24002ba3 	.word	0x24002ba3
24002910:	24002ba3 	.word	0x24002ba3
24002914:	24002ba3 	.word	0x24002ba3
24002918:	24002ba3 	.word	0x24002ba3
2400291c:	24002ba3 	.word	0x24002ba3
24002920:	2400298b 	.word	0x2400298b
24002924:	24002ba3 	.word	0x24002ba3
24002928:	24002ba3 	.word	0x24002ba3
2400292c:	24002ba3 	.word	0x24002ba3
24002930:	24002ba3 	.word	0x24002ba3
24002934:	24002ba3 	.word	0x24002ba3
24002938:	24002ba3 	.word	0x24002ba3
2400293c:	24002ba3 	.word	0x24002ba3
24002940:	24002991 	.word	0x24002991
24002944:	24002ba3 	.word	0x24002ba3
24002948:	24002ba3 	.word	0x24002ba3
2400294c:	24002ba3 	.word	0x24002ba3
24002950:	24002ba3 	.word	0x24002ba3
24002954:	24002ba3 	.word	0x24002ba3
24002958:	24002ba3 	.word	0x24002ba3
2400295c:	24002ba3 	.word	0x24002ba3
24002960:	24002997 	.word	0x24002997
24002964:	4b94      	ldr	r3, [pc, #592]	@ (24002bb8 <HAL_RCC_GetSysClockFreq+0x2d4>)
24002966:	681b      	ldr	r3, [r3, #0]
24002968:	f003 0320 	and.w	r3, r3, #32
2400296c:	2b00      	cmp	r3, #0
2400296e:	d009      	beq.n	24002984 <HAL_RCC_GetSysClockFreq+0xa0>
24002970:	4b91      	ldr	r3, [pc, #580]	@ (24002bb8 <HAL_RCC_GetSysClockFreq+0x2d4>)
24002972:	681b      	ldr	r3, [r3, #0]
24002974:	08db      	lsrs	r3, r3, #3
24002976:	f003 0303 	and.w	r3, r3, #3
2400297a:	4a90      	ldr	r2, [pc, #576]	@ (24002bbc <HAL_RCC_GetSysClockFreq+0x2d8>)
2400297c:	fa22 f303 	lsr.w	r3, r2, r3
24002980:	61bb      	str	r3, [r7, #24]
24002982:	e111      	b.n	24002ba8 <HAL_RCC_GetSysClockFreq+0x2c4>
24002984:	4b8d      	ldr	r3, [pc, #564]	@ (24002bbc <HAL_RCC_GetSysClockFreq+0x2d8>)
24002986:	61bb      	str	r3, [r7, #24]
24002988:	e10e      	b.n	24002ba8 <HAL_RCC_GetSysClockFreq+0x2c4>
2400298a:	4b8d      	ldr	r3, [pc, #564]	@ (24002bc0 <HAL_RCC_GetSysClockFreq+0x2dc>)
2400298c:	61bb      	str	r3, [r7, #24]
2400298e:	e10b      	b.n	24002ba8 <HAL_RCC_GetSysClockFreq+0x2c4>
24002990:	4b8c      	ldr	r3, [pc, #560]	@ (24002bc4 <HAL_RCC_GetSysClockFreq+0x2e0>)
24002992:	61bb      	str	r3, [r7, #24]
24002994:	e108      	b.n	24002ba8 <HAL_RCC_GetSysClockFreq+0x2c4>
24002996:	4b88      	ldr	r3, [pc, #544]	@ (24002bb8 <HAL_RCC_GetSysClockFreq+0x2d4>)
24002998:	6a9b      	ldr	r3, [r3, #40]	@ 0x28
2400299a:	f003 0303 	and.w	r3, r3, #3
2400299e:	617b      	str	r3, [r7, #20]
240029a0:	4b85      	ldr	r3, [pc, #532]	@ (24002bb8 <HAL_RCC_GetSysClockFreq+0x2d4>)
240029a2:	6a9b      	ldr	r3, [r3, #40]	@ 0x28
240029a4:	091b      	lsrs	r3, r3, #4
240029a6:	f003 033f 	and.w	r3, r3, #63	@ 0x3f
240029aa:	613b      	str	r3, [r7, #16]
240029ac:	4b82      	ldr	r3, [pc, #520]	@ (24002bb8 <HAL_RCC_GetSysClockFreq+0x2d4>)
240029ae:	6adb      	ldr	r3, [r3, #44]	@ 0x2c
240029b0:	f003 0301 	and.w	r3, r3, #1
240029b4:	60fb      	str	r3, [r7, #12]
240029b6:	4b80      	ldr	r3, [pc, #512]	@ (24002bb8 <HAL_RCC_GetSysClockFreq+0x2d4>)
240029b8:	6b5b      	ldr	r3, [r3, #52]	@ 0x34
240029ba:	08db      	lsrs	r3, r3, #3
240029bc:	f3c3 030c 	ubfx	r3, r3, #0, #13
240029c0:	68fa      	ldr	r2, [r7, #12]
240029c2:	fb02 f303 	mul.w	r3, r2, r3
240029c6:	ee07 3a90 	vmov	s15, r3
240029ca:	eef8 7a67 	vcvt.f32.u32	s15, s15
240029ce:	edc7 7a02 	vstr	s15, [r7, #8]
240029d2:	693b      	ldr	r3, [r7, #16]
240029d4:	2b00      	cmp	r3, #0
240029d6:	f000 80e1 	beq.w	24002b9c <HAL_RCC_GetSysClockFreq+0x2b8>
240029da:	697b      	ldr	r3, [r7, #20]
240029dc:	2b02      	cmp	r3, #2
240029de:	f000 8083 	beq.w	24002ae8 <HAL_RCC_GetSysClockFreq+0x204>
240029e2:	697b      	ldr	r3, [r7, #20]
240029e4:	2b02      	cmp	r3, #2
240029e6:	f200 80a1 	bhi.w	24002b2c <HAL_RCC_GetSysClockFreq+0x248>
240029ea:	697b      	ldr	r3, [r7, #20]
240029ec:	2b00      	cmp	r3, #0
240029ee:	d003      	beq.n	240029f8 <HAL_RCC_GetSysClockFreq+0x114>
240029f0:	697b      	ldr	r3, [r7, #20]
240029f2:	2b01      	cmp	r3, #1
240029f4:	d056      	beq.n	24002aa4 <HAL_RCC_GetSysClockFreq+0x1c0>
240029f6:	e099      	b.n	24002b2c <HAL_RCC_GetSysClockFreq+0x248>
240029f8:	4b6f      	ldr	r3, [pc, #444]	@ (24002bb8 <HAL_RCC_GetSysClockFreq+0x2d4>)
240029fa:	681b      	ldr	r3, [r3, #0]
240029fc:	f003 0320 	and.w	r3, r3, #32
24002a00:	2b00      	cmp	r3, #0
24002a02:	d02d      	beq.n	24002a60 <HAL_RCC_GetSysClockFreq+0x17c>
24002a04:	4b6c      	ldr	r3, [pc, #432]	@ (24002bb8 <HAL_RCC_GetSysClockFreq+0x2d4>)
24002a06:	681b      	ldr	r3, [r3, #0]
24002a08:	08db      	lsrs	r3, r3, #3
24002a0a:	f003 0303 	and.w	r3, r3, #3
24002a0e:	4a6b      	ldr	r2, [pc, #428]	@ (24002bbc <HAL_RCC_GetSysClockFreq+0x2d8>)
24002a10:	fa22 f303 	lsr.w	r3, r2, r3
24002a14:	607b      	str	r3, [r7, #4]
24002a16:	687b      	ldr	r3, [r7, #4]
24002a18:	ee07 3a90 	vmov	s15, r3
24002a1c:	eef8 6a67 	vcvt.f32.u32	s13, s15
24002a20:	693b      	ldr	r3, [r7, #16]
24002a22:	ee07 3a90 	vmov	s15, r3
24002a26:	eef8 7a67 	vcvt.f32.u32	s15, s15
24002a2a:	ee86 7aa7 	vdiv.f32	s14, s13, s15
24002a2e:	4b62      	ldr	r3, [pc, #392]	@ (24002bb8 <HAL_RCC_GetSysClockFreq+0x2d4>)
24002a30:	6b1b      	ldr	r3, [r3, #48]	@ 0x30
24002a32:	f3c3 0308 	ubfx	r3, r3, #0, #9
24002a36:	ee07 3a90 	vmov	s15, r3
24002a3a:	eef8 6a67 	vcvt.f32.u32	s13, s15
24002a3e:	ed97 6a02 	vldr	s12, [r7, #8]
24002a42:	eddf 5a61 	vldr	s11, [pc, #388]	@ 24002bc8 <HAL_RCC_GetSysClockFreq+0x2e4>
24002a46:	eec6 7a25 	vdiv.f32	s15, s12, s11
24002a4a:	ee76 7aa7 	vadd.f32	s15, s13, s15
24002a4e:	eef7 6a00 	vmov.f32	s13, #112	@ 0x3f800000  1.0
24002a52:	ee77 7aa6 	vadd.f32	s15, s15, s13
24002a56:	ee67 7a27 	vmul.f32	s15, s14, s15
24002a5a:	edc7 7a07 	vstr	s15, [r7, #28]
24002a5e:	e087      	b.n	24002b70 <HAL_RCC_GetSysClockFreq+0x28c>
24002a60:	693b      	ldr	r3, [r7, #16]
24002a62:	ee07 3a90 	vmov	s15, r3
24002a66:	eef8 7a67 	vcvt.f32.u32	s15, s15
24002a6a:	eddf 6a58 	vldr	s13, [pc, #352]	@ 24002bcc <HAL_RCC_GetSysClockFreq+0x2e8>
24002a6e:	ee86 7aa7 	vdiv.f32	s14, s13, s15
24002a72:	4b51      	ldr	r3, [pc, #324]	@ (24002bb8 <HAL_RCC_GetSysClockFreq+0x2d4>)
24002a74:	6b1b      	ldr	r3, [r3, #48]	@ 0x30
24002a76:	f3c3 0308 	ubfx	r3, r3, #0, #9
24002a7a:	ee07 3a90 	vmov	s15, r3
24002a7e:	eef8 6a67 	vcvt.f32.u32	s13, s15
24002a82:	ed97 6a02 	vldr	s12, [r7, #8]
24002a86:	eddf 5a50 	vldr	s11, [pc, #320]	@ 24002bc8 <HAL_RCC_GetSysClockFreq+0x2e4>
24002a8a:	eec6 7a25 	vdiv.f32	s15, s12, s11
24002a8e:	ee76 7aa7 	vadd.f32	s15, s13, s15
24002a92:	eef7 6a00 	vmov.f32	s13, #112	@ 0x3f800000  1.0
24002a96:	ee77 7aa6 	vadd.f32	s15, s15, s13
24002a9a:	ee67 7a27 	vmul.f32	s15, s14, s15
24002a9e:	edc7 7a07 	vstr	s15, [r7, #28]
24002aa2:	e065      	b.n	24002b70 <HAL_RCC_GetSysClockFreq+0x28c>
24002aa4:	693b      	ldr	r3, [r7, #16]
24002aa6:	ee07 3a90 	vmov	s15, r3
24002aaa:	eef8 7a67 	vcvt.f32.u32	s15, s15
24002aae:	eddf 6a48 	vldr	s13, [pc, #288]	@ 24002bd0 <HAL_RCC_GetSysClockFreq+0x2ec>
24002ab2:	ee86 7aa7 	vdiv.f32	s14, s13, s15
24002ab6:	4b40      	ldr	r3, [pc, #256]	@ (24002bb8 <HAL_RCC_GetSysClockFreq+0x2d4>)
24002ab8:	6b1b      	ldr	r3, [r3, #48]	@ 0x30
24002aba:	f3c3 0308 	ubfx	r3, r3, #0, #9
24002abe:	ee07 3a90 	vmov	s15, r3
24002ac2:	eef8 6a67 	vcvt.f32.u32	s13, s15
24002ac6:	ed97 6a02 	vldr	s12, [r7, #8]
24002aca:	eddf 5a3f 	vldr	s11, [pc, #252]	@ 24002bc8 <HAL_RCC_GetSysClockFreq+0x2e4>
24002ace:	eec6 7a25 	vdiv.f32	s15, s12, s11
24002ad2:	ee76 7aa7 	vadd.f32	s15, s13, s15
24002ad6:	eef7 6a00 	vmov.f32	s13, #112	@ 0x3f800000  1.0
24002ada:	ee77 7aa6 	vadd.f32	s15, s15, s13
24002ade:	ee67 7a27 	vmul.f32	s15, s14, s15
24002ae2:	edc7 7a07 	vstr	s15, [r7, #28]
24002ae6:	e043      	b.n	24002b70 <HAL_RCC_GetSysClockFreq+0x28c>
24002ae8:	693b      	ldr	r3, [r7, #16]
24002aea:	ee07 3a90 	vmov	s15, r3
24002aee:	eef8 7a67 	vcvt.f32.u32	s15, s15
24002af2:	eddf 6a38 	vldr	s13, [pc, #224]	@ 24002bd4 <HAL_RCC_GetSysClockFreq+0x2f0>
24002af6:	ee86 7aa7 	vdiv.f32	s14, s13, s15
24002afa:	4b2f      	ldr	r3, [pc, #188]	@ (24002bb8 <HAL_RCC_GetSysClockFreq+0x2d4>)
24002afc:	6b1b      	ldr	r3, [r3, #48]	@ 0x30
24002afe:	f3c3 0308 	ubfx	r3, r3, #0, #9
24002b02:	ee07 3a90 	vmov	s15, r3
24002b06:	eef8 6a67 	vcvt.f32.u32	s13, s15
24002b0a:	ed97 6a02 	vldr	s12, [r7, #8]
24002b0e:	eddf 5a2e 	vldr	s11, [pc, #184]	@ 24002bc8 <HAL_RCC_GetSysClockFreq+0x2e4>
24002b12:	eec6 7a25 	vdiv.f32	s15, s12, s11
24002b16:	ee76 7aa7 	vadd.f32	s15, s13, s15
24002b1a:	eef7 6a00 	vmov.f32	s13, #112	@ 0x3f800000  1.0
24002b1e:	ee77 7aa6 	vadd.f32	s15, s15, s13
24002b22:	ee67 7a27 	vmul.f32	s15, s14, s15
24002b26:	edc7 7a07 	vstr	s15, [r7, #28]
24002b2a:	e021      	b.n	24002b70 <HAL_RCC_GetSysClockFreq+0x28c>
24002b2c:	693b      	ldr	r3, [r7, #16]
24002b2e:	ee07 3a90 	vmov	s15, r3
24002b32:	eef8 7a67 	vcvt.f32.u32	s15, s15
24002b36:	eddf 6a26 	vldr	s13, [pc, #152]	@ 24002bd0 <HAL_RCC_GetSysClockFreq+0x2ec>
24002b3a:	ee86 7aa7 	vdiv.f32	s14, s13, s15
24002b3e:	4b1e      	ldr	r3, [pc, #120]	@ (24002bb8 <HAL_RCC_GetSysClockFreq+0x2d4>)
24002b40:	6b1b      	ldr	r3, [r3, #48]	@ 0x30
24002b42:	f3c3 0308 	ubfx	r3, r3, #0, #9
24002b46:	ee07 3a90 	vmov	s15, r3
24002b4a:	eef8 6a67 	vcvt.f32.u32	s13, s15
24002b4e:	ed97 6a02 	vldr	s12, [r7, #8]
24002b52:	eddf 5a1d 	vldr	s11, [pc, #116]	@ 24002bc8 <HAL_RCC_GetSysClockFreq+0x2e4>
24002b56:	eec6 7a25 	vdiv.f32	s15, s12, s11
24002b5a:	ee76 7aa7 	vadd.f32	s15, s13, s15
24002b5e:	eef7 6a00 	vmov.f32	s13, #112	@ 0x3f800000  1.0
24002b62:	ee77 7aa6 	vadd.f32	s15, s15, s13
24002b66:	ee67 7a27 	vmul.f32	s15, s14, s15
24002b6a:	edc7 7a07 	vstr	s15, [r7, #28]
24002b6e:	bf00      	nop
24002b70:	4b11      	ldr	r3, [pc, #68]	@ (24002bb8 <HAL_RCC_GetSysClockFreq+0x2d4>)
24002b72:	6b1b      	ldr	r3, [r3, #48]	@ 0x30
24002b74:	0a5b      	lsrs	r3, r3, #9
24002b76:	f003 037f 	and.w	r3, r3, #127	@ 0x7f
24002b7a:	3301      	adds	r3, #1
24002b7c:	603b      	str	r3, [r7, #0]
24002b7e:	683b      	ldr	r3, [r7, #0]
24002b80:	ee07 3a90 	vmov	s15, r3
24002b84:	eeb8 7a67 	vcvt.f32.u32	s14, s15
24002b88:	edd7 6a07 	vldr	s13, [r7, #28]
24002b8c:	eec6 7a87 	vdiv.f32	s15, s13, s14
24002b90:	eefc 7ae7 	vcvt.u32.f32	s15, s15
24002b94:	ee17 3a90 	vmov	r3, s15
24002b98:	61bb      	str	r3, [r7, #24]
24002b9a:	e005      	b.n	24002ba8 <HAL_RCC_GetSysClockFreq+0x2c4>
24002b9c:	2300      	movs	r3, #0
24002b9e:	61bb      	str	r3, [r7, #24]
24002ba0:	e002      	b.n	24002ba8 <HAL_RCC_GetSysClockFreq+0x2c4>
24002ba2:	4b07      	ldr	r3, [pc, #28]	@ (24002bc0 <HAL_RCC_GetSysClockFreq+0x2dc>)
24002ba4:	61bb      	str	r3, [r7, #24]
24002ba6:	bf00      	nop
24002ba8:	69bb      	ldr	r3, [r7, #24]
24002baa:	4618      	mov	r0, r3
24002bac:	3724      	adds	r7, #36	@ 0x24
24002bae:	46bd      	mov	sp, r7
24002bb0:	f85d 7b04 	ldr.w	r7, [sp], #4
24002bb4:	4770      	bx	lr
24002bb6:	bf00      	nop
24002bb8:	58024400 	.word	0x58024400
24002bbc:	03d09000 	.word	0x03d09000
24002bc0:	003d0900 	.word	0x003d0900
24002bc4:	017d7840 	.word	0x017d7840
24002bc8:	46000000 	.word	0x46000000
24002bcc:	4c742400 	.word	0x4c742400
24002bd0:	4a742400 	.word	0x4a742400
24002bd4:	4bbebc20 	.word	0x4bbebc20

24002bd8 <HAL_RCCEx_PeriphCLKConfig>:
24002bd8:	e92d 4fb0 	stmdb	sp!, {r4, r5, r7, r8, r9, sl, fp, lr}
24002bdc:	b0ca      	sub	sp, #296	@ 0x128
24002bde:	af00      	add	r7, sp, #0
24002be0:	f8c7 0114 	str.w	r0, [r7, #276]	@ 0x114
24002be4:	2300      	movs	r3, #0
24002be6:	f887 3127 	strb.w	r3, [r7, #295]	@ 0x127
24002bea:	2300      	movs	r3, #0
24002bec:	f887 3126 	strb.w	r3, [r7, #294]	@ 0x126
24002bf0:	f8d7 3114 	ldr.w	r3, [r7, #276]	@ 0x114
24002bf4:	e9d3 2300 	ldrd	r2, r3, [r3]
24002bf8:	f002 6400 	and.w	r4, r2, #134217728	@ 0x8000000
24002bfc:	2500      	movs	r5, #0
24002bfe:	ea54 0305 	orrs.w	r3, r4, r5
24002c02:	d049      	beq.n	24002c98 <HAL_RCCEx_PeriphCLKConfig+0xc0>
24002c04:	f8d7 3114 	ldr.w	r3, [r7, #276]	@ 0x114
24002c08:	6e9b      	ldr	r3, [r3, #104]	@ 0x68
24002c0a:	f5b3 1f40 	cmp.w	r3, #3145728	@ 0x300000
24002c0e:	d02f      	beq.n	24002c70 <HAL_RCCEx_PeriphCLKConfig+0x98>
24002c10:	f5b3 1f40 	cmp.w	r3, #3145728	@ 0x300000
24002c14:	d828      	bhi.n	24002c68 <HAL_RCCEx_PeriphCLKConfig+0x90>
24002c16:	f5b3 1f00 	cmp.w	r3, #2097152	@ 0x200000
24002c1a:	d01a      	beq.n	24002c52 <HAL_RCCEx_PeriphCLKConfig+0x7a>
24002c1c:	f5b3 1f00 	cmp.w	r3, #2097152	@ 0x200000
24002c20:	d822      	bhi.n	24002c68 <HAL_RCCEx_PeriphCLKConfig+0x90>
24002c22:	2b00      	cmp	r3, #0
24002c24:	d003      	beq.n	24002c2e <HAL_RCCEx_PeriphCLKConfig+0x56>
24002c26:	f5b3 1f80 	cmp.w	r3, #1048576	@ 0x100000
24002c2a:	d007      	beq.n	24002c3c <HAL_RCCEx_PeriphCLKConfig+0x64>
24002c2c:	e01c      	b.n	24002c68 <HAL_RCCEx_PeriphCLKConfig+0x90>
24002c2e:	4bb8      	ldr	r3, [pc, #736]	@ (24002f10 <HAL_RCCEx_PeriphCLKConfig+0x338>)
24002c30:	6adb      	ldr	r3, [r3, #44]	@ 0x2c
24002c32:	4ab7      	ldr	r2, [pc, #732]	@ (24002f10 <HAL_RCCEx_PeriphCLKConfig+0x338>)
24002c34:	f443 3300 	orr.w	r3, r3, #131072	@ 0x20000
24002c38:	62d3      	str	r3, [r2, #44]	@ 0x2c
24002c3a:	e01a      	b.n	24002c72 <HAL_RCCEx_PeriphCLKConfig+0x9a>
24002c3c:	f8d7 3114 	ldr.w	r3, [r7, #276]	@ 0x114
24002c40:	3308      	adds	r3, #8
24002c42:	2102      	movs	r1, #2
24002c44:	4618      	mov	r0, r3
24002c46:	f001 f9d1 	bl	24003fec <RCCEx_PLL2_Config>
24002c4a:	4603      	mov	r3, r0
24002c4c:	f887 3127 	strb.w	r3, [r7, #295]	@ 0x127
24002c50:	e00f      	b.n	24002c72 <HAL_RCCEx_PeriphCLKConfig+0x9a>
24002c52:	f8d7 3114 	ldr.w	r3, [r7, #276]	@ 0x114
24002c56:	3328      	adds	r3, #40	@ 0x28
24002c58:	2102      	movs	r1, #2
24002c5a:	4618      	mov	r0, r3
24002c5c:	f001 fa78 	bl	24004150 <RCCEx_PLL3_Config>
24002c60:	4603      	mov	r3, r0
24002c62:	f887 3127 	strb.w	r3, [r7, #295]	@ 0x127
24002c66:	e004      	b.n	24002c72 <HAL_RCCEx_PeriphCLKConfig+0x9a>
24002c68:	2301      	movs	r3, #1
24002c6a:	f887 3127 	strb.w	r3, [r7, #295]	@ 0x127
24002c6e:	e000      	b.n	24002c72 <HAL_RCCEx_PeriphCLKConfig+0x9a>
24002c70:	bf00      	nop
24002c72:	f897 3127 	ldrb.w	r3, [r7, #295]	@ 0x127
24002c76:	2b00      	cmp	r3, #0
24002c78:	d10a      	bne.n	24002c90 <HAL_RCCEx_PeriphCLKConfig+0xb8>
24002c7a:	4ba5      	ldr	r3, [pc, #660]	@ (24002f10 <HAL_RCCEx_PeriphCLKConfig+0x338>)
24002c7c:	6d1b      	ldr	r3, [r3, #80]	@ 0x50
24002c7e:	f423 1140 	bic.w	r1, r3, #3145728	@ 0x300000
24002c82:	f8d7 3114 	ldr.w	r3, [r7, #276]	@ 0x114
24002c86:	6e9b      	ldr	r3, [r3, #104]	@ 0x68
24002c88:	4aa1      	ldr	r2, [pc, #644]	@ (24002f10 <HAL_RCCEx_PeriphCLKConfig+0x338>)
24002c8a:	430b      	orrs	r3, r1
24002c8c:	6513      	str	r3, [r2, #80]	@ 0x50
24002c8e:	e003      	b.n	24002c98 <HAL_RCCEx_PeriphCLKConfig+0xc0>
24002c90:	f897 3127 	ldrb.w	r3, [r7, #295]	@ 0x127
24002c94:	f887 3126 	strb.w	r3, [r7, #294]	@ 0x126
24002c98:	f8d7 3114 	ldr.w	r3, [r7, #276]	@ 0x114
24002c9c:	e9d3 2300 	ldrd	r2, r3, [r3]
24002ca0:	f402 7880 	and.w	r8, r2, #256	@ 0x100
24002ca4:	f04f 0900 	mov.w	r9, #0
24002ca8:	ea58 0309 	orrs.w	r3, r8, r9
24002cac:	d047      	beq.n	24002d3e <HAL_RCCEx_PeriphCLKConfig+0x166>
24002cae:	f8d7 3114 	ldr.w	r3, [r7, #276]	@ 0x114
24002cb2:	6d9b      	ldr	r3, [r3, #88]	@ 0x58
24002cb4:	2b04      	cmp	r3, #4
24002cb6:	d82a      	bhi.n	24002d0e <HAL_RCCEx_PeriphCLKConfig+0x136>
24002cb8:	a201      	add	r2, pc, #4	@ (adr r2, 24002cc0 <HAL_RCCEx_PeriphCLKConfig+0xe8>)
24002cba:	f852 f023 	ldr.w	pc, [r2, r3, lsl #2]
24002cbe:	bf00      	nop
24002cc0:	24002cd5 	.word	0x24002cd5
24002cc4:	24002ce3 	.word	0x24002ce3
24002cc8:	24002cf9 	.word	0x24002cf9
24002ccc:	24002d17 	.word	0x24002d17
24002cd0:	24002d17 	.word	0x24002d17
24002cd4:	4b8e      	ldr	r3, [pc, #568]	@ (24002f10 <HAL_RCCEx_PeriphCLKConfig+0x338>)
24002cd6:	6adb      	ldr	r3, [r3, #44]	@ 0x2c
24002cd8:	4a8d      	ldr	r2, [pc, #564]	@ (24002f10 <HAL_RCCEx_PeriphCLKConfig+0x338>)
24002cda:	f443 3300 	orr.w	r3, r3, #131072	@ 0x20000
24002cde:	62d3      	str	r3, [r2, #44]	@ 0x2c
24002ce0:	e01a      	b.n	24002d18 <HAL_RCCEx_PeriphCLKConfig+0x140>
24002ce2:	f8d7 3114 	ldr.w	r3, [r7, #276]	@ 0x114
24002ce6:	3308      	adds	r3, #8
24002ce8:	2100      	movs	r1, #0
24002cea:	4618      	mov	r0, r3
24002cec:	f001 f97e 	bl	24003fec <RCCEx_PLL2_Config>
24002cf0:	4603      	mov	r3, r0
24002cf2:	f887 3127 	strb.w	r3, [r7, #295]	@ 0x127
24002cf6:	e00f      	b.n	24002d18 <HAL_RCCEx_PeriphCLKConfig+0x140>
24002cf8:	f8d7 3114 	ldr.w	r3, [r7, #276]	@ 0x114
24002cfc:	3328      	adds	r3, #40	@ 0x28
24002cfe:	2100      	movs	r1, #0
24002d00:	4618      	mov	r0, r3
24002d02:	f001 fa25 	bl	24004150 <RCCEx_PLL3_Config>
24002d06:	4603      	mov	r3, r0
24002d08:	f887 3127 	strb.w	r3, [r7, #295]	@ 0x127
24002d0c:	e004      	b.n	24002d18 <HAL_RCCEx_PeriphCLKConfig+0x140>
24002d0e:	2301      	movs	r3, #1
24002d10:	f887 3127 	strb.w	r3, [r7, #295]	@ 0x127
24002d14:	e000      	b.n	24002d18 <HAL_RCCEx_PeriphCLKConfig+0x140>
24002d16:	bf00      	nop
24002d18:	f897 3127 	ldrb.w	r3, [r7, #295]	@ 0x127
24002d1c:	2b00      	cmp	r3, #0
24002d1e:	d10a      	bne.n	24002d36 <HAL_RCCEx_PeriphCLKConfig+0x15e>
24002d20:	4b7b      	ldr	r3, [pc, #492]	@ (24002f10 <HAL_RCCEx_PeriphCLKConfig+0x338>)
24002d22:	6d1b      	ldr	r3, [r3, #80]	@ 0x50
24002d24:	f023 0107 	bic.w	r1, r3, #7
24002d28:	f8d7 3114 	ldr.w	r3, [r7, #276]	@ 0x114
24002d2c:	6d9b      	ldr	r3, [r3, #88]	@ 0x58
24002d2e:	4a78      	ldr	r2, [pc, #480]	@ (24002f10 <HAL_RCCEx_PeriphCLKConfig+0x338>)
24002d30:	430b      	orrs	r3, r1
24002d32:	6513      	str	r3, [r2, #80]	@ 0x50
24002d34:	e003      	b.n	24002d3e <HAL_RCCEx_PeriphCLKConfig+0x166>
24002d36:	f897 3127 	ldrb.w	r3, [r7, #295]	@ 0x127
24002d3a:	f887 3126 	strb.w	r3, [r7, #294]	@ 0x126
24002d3e:	f8d7 3114 	ldr.w	r3, [r7, #276]	@ 0x114
24002d42:	e9d3 2300 	ldrd	r2, r3, [r3]
24002d46:	f402 7a00 	and.w	sl, r2, #512	@ 0x200
24002d4a:	f04f 0b00 	mov.w	fp, #0
24002d4e:	ea5a 030b 	orrs.w	r3, sl, fp
24002d52:	d04c      	beq.n	24002dee <HAL_RCCEx_PeriphCLKConfig+0x216>
24002d54:	f8d7 3114 	ldr.w	r3, [r7, #276]	@ 0x114
24002d58:	6ddb      	ldr	r3, [r3, #92]	@ 0x5c
24002d5a:	f5b3 7f80 	cmp.w	r3, #256	@ 0x100
24002d5e:	d030      	beq.n	24002dc2 <HAL_RCCEx_PeriphCLKConfig+0x1ea>
24002d60:	f5b3 7f80 	cmp.w	r3, #256	@ 0x100
24002d64:	d829      	bhi.n	24002dba <HAL_RCCEx_PeriphCLKConfig+0x1e2>
24002d66:	2bc0      	cmp	r3, #192	@ 0xc0
24002d68:	d02d      	beq.n	24002dc6 <HAL_RCCEx_PeriphCLKConfig+0x1ee>
24002d6a:	2bc0      	cmp	r3, #192	@ 0xc0
24002d6c:	d825      	bhi.n	24002dba <HAL_RCCEx_PeriphCLKConfig+0x1e2>
24002d6e:	2b80      	cmp	r3, #128	@ 0x80
24002d70:	d018      	beq.n	24002da4 <HAL_RCCEx_PeriphCLKConfig+0x1cc>
24002d72:	2b80      	cmp	r3, #128	@ 0x80
24002d74:	d821      	bhi.n	24002dba <HAL_RCCEx_PeriphCLKConfig+0x1e2>
24002d76:	2b00      	cmp	r3, #0
24002d78:	d002      	beq.n	24002d80 <HAL_RCCEx_PeriphCLKConfig+0x1a8>
24002d7a:	2b40      	cmp	r3, #64	@ 0x40
24002d7c:	d007      	beq.n	24002d8e <HAL_RCCEx_PeriphCLKConfig+0x1b6>
24002d7e:	e01c      	b.n	24002dba <HAL_RCCEx_PeriphCLKConfig+0x1e2>
24002d80:	4b63      	ldr	r3, [pc, #396]	@ (24002f10 <HAL_RCCEx_PeriphCLKConfig+0x338>)
24002d82:	6adb      	ldr	r3, [r3, #44]	@ 0x2c
24002d84:	4a62      	ldr	r2, [pc, #392]	@ (24002f10 <HAL_RCCEx_PeriphCLKConfig+0x338>)
24002d86:	f443 3300 	orr.w	r3, r3, #131072	@ 0x20000
24002d8a:	62d3      	str	r3, [r2, #44]	@ 0x2c
24002d8c:	e01c      	b.n	24002dc8 <HAL_RCCEx_PeriphCLKConfig+0x1f0>
24002d8e:	f8d7 3114 	ldr.w	r3, [r7, #276]	@ 0x114
24002d92:	3308      	adds	r3, #8
24002d94:	2100      	movs	r1, #0
24002d96:	4618      	mov	r0, r3
24002d98:	f001 f928 	bl	24003fec <RCCEx_PLL2_Config>
24002d9c:	4603      	mov	r3, r0
24002d9e:	f887 3127 	strb.w	r3, [r7, #295]	@ 0x127
24002da2:	e011      	b.n	24002dc8 <HAL_RCCEx_PeriphCLKConfig+0x1f0>
24002da4:	f8d7 3114 	ldr.w	r3, [r7, #276]	@ 0x114
24002da8:	3328      	adds	r3, #40	@ 0x28
24002daa:	2100      	movs	r1, #0
24002dac:	4618      	mov	r0, r3
24002dae:	f001 f9cf 	bl	24004150 <RCCEx_PLL3_Config>
24002db2:	4603      	mov	r3, r0
24002db4:	f887 3127 	strb.w	r3, [r7, #295]	@ 0x127
24002db8:	e006      	b.n	24002dc8 <HAL_RCCEx_PeriphCLKConfig+0x1f0>
24002dba:	2301      	movs	r3, #1
24002dbc:	f887 3127 	strb.w	r3, [r7, #295]	@ 0x127
24002dc0:	e002      	b.n	24002dc8 <HAL_RCCEx_PeriphCLKConfig+0x1f0>
24002dc2:	bf00      	nop
24002dc4:	e000      	b.n	24002dc8 <HAL_RCCEx_PeriphCLKConfig+0x1f0>
24002dc6:	bf00      	nop
24002dc8:	f897 3127 	ldrb.w	r3, [r7, #295]	@ 0x127
24002dcc:	2b00      	cmp	r3, #0
24002dce:	d10a      	bne.n	24002de6 <HAL_RCCEx_PeriphCLKConfig+0x20e>
24002dd0:	4b4f      	ldr	r3, [pc, #316]	@ (24002f10 <HAL_RCCEx_PeriphCLKConfig+0x338>)
24002dd2:	6d1b      	ldr	r3, [r3, #80]	@ 0x50
24002dd4:	f423 71e0 	bic.w	r1, r3, #448	@ 0x1c0
24002dd8:	f8d7 3114 	ldr.w	r3, [r7, #276]	@ 0x114
24002ddc:	6ddb      	ldr	r3, [r3, #92]	@ 0x5c
24002dde:	4a4c      	ldr	r2, [pc, #304]	@ (24002f10 <HAL_RCCEx_PeriphCLKConfig+0x338>)
24002de0:	430b      	orrs	r3, r1
24002de2:	6513      	str	r3, [r2, #80]	@ 0x50
24002de4:	e003      	b.n	24002dee <HAL_RCCEx_PeriphCLKConfig+0x216>
24002de6:	f897 3127 	ldrb.w	r3, [r7, #295]	@ 0x127
24002dea:	f887 3126 	strb.w	r3, [r7, #294]	@ 0x126
24002dee:	f8d7 3114 	ldr.w	r3, [r7, #276]	@ 0x114
24002df2:	e9d3 2300 	ldrd	r2, r3, [r3]
24002df6:	f402 6380 	and.w	r3, r2, #1024	@ 0x400
24002dfa:	f8c7 3108 	str.w	r3, [r7, #264]	@ 0x108
24002dfe:	2300      	movs	r3, #0
24002e00:	f8c7 310c 	str.w	r3, [r7, #268]	@ 0x10c
24002e04:	e9d7 1242 	ldrd	r1, r2, [r7, #264]	@ 0x108
24002e08:	460b      	mov	r3, r1
24002e0a:	4313      	orrs	r3, r2
24002e0c:	d053      	beq.n	24002eb6 <HAL_RCCEx_PeriphCLKConfig+0x2de>
24002e0e:	f8d7 3114 	ldr.w	r3, [r7, #276]	@ 0x114
24002e12:	f8d3 30a8 	ldr.w	r3, [r3, #168]	@ 0xa8
24002e16:	f5b3 0f00 	cmp.w	r3, #8388608	@ 0x800000
24002e1a:	d035      	beq.n	24002e88 <HAL_RCCEx_PeriphCLKConfig+0x2b0>
24002e1c:	f5b3 0f00 	cmp.w	r3, #8388608	@ 0x800000
24002e20:	d82e      	bhi.n	24002e80 <HAL_RCCEx_PeriphCLKConfig+0x2a8>
24002e22:	f5b3 0fc0 	cmp.w	r3, #6291456	@ 0x600000
24002e26:	d031      	beq.n	24002e8c <HAL_RCCEx_PeriphCLKConfig+0x2b4>
24002e28:	f5b3 0fc0 	cmp.w	r3, #6291456	@ 0x600000
24002e2c:	d828      	bhi.n	24002e80 <HAL_RCCEx_PeriphCLKConfig+0x2a8>
24002e2e:	f5b3 0f80 	cmp.w	r3, #4194304	@ 0x400000
24002e32:	d01a      	beq.n	24002e6a <HAL_RCCEx_PeriphCLKConfig+0x292>
24002e34:	f5b3 0f80 	cmp.w	r3, #4194304	@ 0x400000
24002e38:	d822      	bhi.n	24002e80 <HAL_RCCEx_PeriphCLKConfig+0x2a8>
24002e3a:	2b00      	cmp	r3, #0
24002e3c:	d003      	beq.n	24002e46 <HAL_RCCEx_PeriphCLKConfig+0x26e>
24002e3e:	f5b3 1f00 	cmp.w	r3, #2097152	@ 0x200000
24002e42:	d007      	beq.n	24002e54 <HAL_RCCEx_PeriphCLKConfig+0x27c>
24002e44:	e01c      	b.n	24002e80 <HAL_RCCEx_PeriphCLKConfig+0x2a8>
24002e46:	4b32      	ldr	r3, [pc, #200]	@ (24002f10 <HAL_RCCEx_PeriphCLKConfig+0x338>)
24002e48:	6adb      	ldr	r3, [r3, #44]	@ 0x2c
24002e4a:	4a31      	ldr	r2, [pc, #196]	@ (24002f10 <HAL_RCCEx_PeriphCLKConfig+0x338>)
24002e4c:	f443 3300 	orr.w	r3, r3, #131072	@ 0x20000
24002e50:	62d3      	str	r3, [r2, #44]	@ 0x2c
24002e52:	e01c      	b.n	24002e8e <HAL_RCCEx_PeriphCLKConfig+0x2b6>
24002e54:	f8d7 3114 	ldr.w	r3, [r7, #276]	@ 0x114
24002e58:	3308      	adds	r3, #8
24002e5a:	2100      	movs	r1, #0
24002e5c:	4618      	mov	r0, r3
24002e5e:	f001 f8c5 	bl	24003fec <RCCEx_PLL2_Config>
24002e62:	4603      	mov	r3, r0
24002e64:	f887 3127 	strb.w	r3, [r7, #295]	@ 0x127
24002e68:	e011      	b.n	24002e8e <HAL_RCCEx_PeriphCLKConfig+0x2b6>
24002e6a:	f8d7 3114 	ldr.w	r3, [r7, #276]	@ 0x114
24002e6e:	3328      	adds	r3, #40	@ 0x28
24002e70:	2100      	movs	r1, #0
24002e72:	4618      	mov	r0, r3
24002e74:	f001 f96c 	bl	24004150 <RCCEx_PLL3_Config>
24002e78:	4603      	mov	r3, r0
24002e7a:	f887 3127 	strb.w	r3, [r7, #295]	@ 0x127
24002e7e:	e006      	b.n	24002e8e <HAL_RCCEx_PeriphCLKConfig+0x2b6>
24002e80:	2301      	movs	r3, #1
24002e82:	f887 3127 	strb.w	r3, [r7, #295]	@ 0x127
24002e86:	e002      	b.n	24002e8e <HAL_RCCEx_PeriphCLKConfig+0x2b6>
24002e88:	bf00      	nop
24002e8a:	e000      	b.n	24002e8e <HAL_RCCEx_PeriphCLKConfig+0x2b6>
24002e8c:	bf00      	nop
24002e8e:	f897 3127 	ldrb.w	r3, [r7, #295]	@ 0x127
24002e92:	2b00      	cmp	r3, #0
24002e94:	d10b      	bne.n	24002eae <HAL_RCCEx_PeriphCLKConfig+0x2d6>
24002e96:	4b1e      	ldr	r3, [pc, #120]	@ (24002f10 <HAL_RCCEx_PeriphCLKConfig+0x338>)
24002e98:	6d9b      	ldr	r3, [r3, #88]	@ 0x58
24002e9a:	f423 0160 	bic.w	r1, r3, #14680064	@ 0xe00000
24002e9e:	f8d7 3114 	ldr.w	r3, [r7, #276]	@ 0x114
24002ea2:	f8d3 30a8 	ldr.w	r3, [r3, #168]	@ 0xa8
24002ea6:	4a1a      	ldr	r2, [pc, #104]	@ (24002f10 <HAL_RCCEx_PeriphCLKConfig+0x338>)
24002ea8:	430b      	orrs	r3, r1
24002eaa:	6593      	str	r3, [r2, #88]	@ 0x58
24002eac:	e003      	b.n	24002eb6 <HAL_RCCEx_PeriphCLKConfig+0x2de>
24002eae:	f897 3127 	ldrb.w	r3, [r7, #295]	@ 0x127
24002eb2:	f887 3126 	strb.w	r3, [r7, #294]	@ 0x126
24002eb6:	f8d7 3114 	ldr.w	r3, [r7, #276]	@ 0x114
24002eba:	e9d3 2300 	ldrd	r2, r3, [r3]
24002ebe:	f402 6300 	and.w	r3, r2, #2048	@ 0x800
24002ec2:	f8c7 3100 	str.w	r3, [r7, #256]	@ 0x100
24002ec6:	2300      	movs	r3, #0
24002ec8:	f8c7 3104 	str.w	r3, [r7, #260]	@ 0x104
24002ecc:	e9d7 1240 	ldrd	r1, r2, [r7, #256]	@ 0x100
24002ed0:	460b      	mov	r3, r1
24002ed2:	4313      	orrs	r3, r2
24002ed4:	d056      	beq.n	24002f84 <HAL_RCCEx_PeriphCLKConfig+0x3ac>
24002ed6:	f8d7 3114 	ldr.w	r3, [r7, #276]	@ 0x114
24002eda:	f8d3 30ac 	ldr.w	r3, [r3, #172]	@ 0xac
24002ede:	f1b3 6f80 	cmp.w	r3, #67108864	@ 0x4000000
24002ee2:	d038      	beq.n	24002f56 <HAL_RCCEx_PeriphCLKConfig+0x37e>
24002ee4:	f1b3 6f80 	cmp.w	r3, #67108864	@ 0x4000000
24002ee8:	d831      	bhi.n	24002f4e <HAL_RCCEx_PeriphCLKConfig+0x376>
24002eea:	f1b3 7f40 	cmp.w	r3, #50331648	@ 0x3000000
24002eee:	d034      	beq.n	24002f5a <HAL_RCCEx_PeriphCLKConfig+0x382>
24002ef0:	f1b3 7f40 	cmp.w	r3, #50331648	@ 0x3000000
24002ef4:	d82b      	bhi.n	24002f4e <HAL_RCCEx_PeriphCLKConfig+0x376>
24002ef6:	f1b3 7f00 	cmp.w	r3, #33554432	@ 0x2000000
24002efa:	d01d      	beq.n	24002f38 <HAL_RCCEx_PeriphCLKConfig+0x360>
24002efc:	f1b3 7f00 	cmp.w	r3, #33554432	@ 0x2000000
24002f00:	d825      	bhi.n	24002f4e <HAL_RCCEx_PeriphCLKConfig+0x376>
24002f02:	2b00      	cmp	r3, #0
24002f04:	d006      	beq.n	24002f14 <HAL_RCCEx_PeriphCLKConfig+0x33c>
24002f06:	f1b3 7f80 	cmp.w	r3, #16777216	@ 0x1000000
24002f0a:	d00a      	beq.n	24002f22 <HAL_RCCEx_PeriphCLKConfig+0x34a>
24002f0c:	e01f      	b.n	24002f4e <HAL_RCCEx_PeriphCLKConfig+0x376>
24002f0e:	bf00      	nop
24002f10:	58024400 	.word	0x58024400
24002f14:	4ba2      	ldr	r3, [pc, #648]	@ (240031a0 <HAL_RCCEx_PeriphCLKConfig+0x5c8>)
24002f16:	6adb      	ldr	r3, [r3, #44]	@ 0x2c
24002f18:	4aa1      	ldr	r2, [pc, #644]	@ (240031a0 <HAL_RCCEx_PeriphCLKConfig+0x5c8>)
24002f1a:	f443 3300 	orr.w	r3, r3, #131072	@ 0x20000
24002f1e:	62d3      	str	r3, [r2, #44]	@ 0x2c
24002f20:	e01c      	b.n	24002f5c <HAL_RCCEx_PeriphCLKConfig+0x384>
24002f22:	f8d7 3114 	ldr.w	r3, [r7, #276]	@ 0x114
24002f26:	3308      	adds	r3, #8
24002f28:	2100      	movs	r1, #0
24002f2a:	4618      	mov	r0, r3
24002f2c:	f001 f85e 	bl	24003fec <RCCEx_PLL2_Config>
24002f30:	4603      	mov	r3, r0
24002f32:	f887 3127 	strb.w	r3, [r7, #295]	@ 0x127
24002f36:	e011      	b.n	24002f5c <HAL_RCCEx_PeriphCLKConfig+0x384>
24002f38:	f8d7 3114 	ldr.w	r3, [r7, #276]	@ 0x114
24002f3c:	3328      	adds	r3, #40	@ 0x28
24002f3e:	2100      	movs	r1, #0
24002f40:	4618      	mov	r0, r3
24002f42:	f001 f905 	bl	24004150 <RCCEx_PLL3_Config>
24002f46:	4603      	mov	r3, r0
24002f48:	f887 3127 	strb.w	r3, [r7, #295]	@ 0x127
24002f4c:	e006      	b.n	24002f5c <HAL_RCCEx_PeriphCLKConfig+0x384>
24002f4e:	2301      	movs	r3, #1
24002f50:	f887 3127 	strb.w	r3, [r7, #295]	@ 0x127
24002f54:	e002      	b.n	24002f5c <HAL_RCCEx_PeriphCLKConfig+0x384>
24002f56:	bf00      	nop
24002f58:	e000      	b.n	24002f5c <HAL_RCCEx_PeriphCLKConfig+0x384>
24002f5a:	bf00      	nop
24002f5c:	f897 3127 	ldrb.w	r3, [r7, #295]	@ 0x127
24002f60:	2b00      	cmp	r3, #0
24002f62:	d10b      	bne.n	24002f7c <HAL_RCCEx_PeriphCLKConfig+0x3a4>
24002f64:	4b8e      	ldr	r3, [pc, #568]	@ (240031a0 <HAL_RCCEx_PeriphCLKConfig+0x5c8>)
24002f66:	6d9b      	ldr	r3, [r3, #88]	@ 0x58
24002f68:	f023 61e0 	bic.w	r1, r3, #117440512	@ 0x7000000
24002f6c:	f8d7 3114 	ldr.w	r3, [r7, #276]	@ 0x114
24002f70:	f8d3 30ac 	ldr.w	r3, [r3, #172]	@ 0xac
24002f74:	4a8a      	ldr	r2, [pc, #552]	@ (240031a0 <HAL_RCCEx_PeriphCLKConfig+0x5c8>)
24002f76:	430b      	orrs	r3, r1
24002f78:	6593      	str	r3, [r2, #88]	@ 0x58
24002f7a:	e003      	b.n	24002f84 <HAL_RCCEx_PeriphCLKConfig+0x3ac>
24002f7c:	f897 3127 	ldrb.w	r3, [r7, #295]	@ 0x127
24002f80:	f887 3126 	strb.w	r3, [r7, #294]	@ 0x126
24002f84:	f8d7 3114 	ldr.w	r3, [r7, #276]	@ 0x114
24002f88:	e9d3 2300 	ldrd	r2, r3, [r3]
24002f8c:	f002 7300 	and.w	r3, r2, #33554432	@ 0x2000000
24002f90:	f8c7 30f8 	str.w	r3, [r7, #248]	@ 0xf8
24002f94:	2300      	movs	r3, #0
24002f96:	f8c7 30fc 	str.w	r3, [r7, #252]	@ 0xfc
24002f9a:	e9d7 123e 	ldrd	r1, r2, [r7, #248]	@ 0xf8
24002f9e:	460b      	mov	r3, r1
24002fa0:	4313      	orrs	r3, r2
24002fa2:	d03a      	beq.n	2400301a <HAL_RCCEx_PeriphCLKConfig+0x442>
24002fa4:	f8d7 3114 	ldr.w	r3, [r7, #276]	@ 0x114
24002fa8:	6cdb      	ldr	r3, [r3, #76]	@ 0x4c
24002faa:	2b30      	cmp	r3, #48	@ 0x30
24002fac:	d01f      	beq.n	24002fee <HAL_RCCEx_PeriphCLKConfig+0x416>
24002fae:	2b30      	cmp	r3, #48	@ 0x30
24002fb0:	d819      	bhi.n	24002fe6 <HAL_RCCEx_PeriphCLKConfig+0x40e>
24002fb2:	2b20      	cmp	r3, #32
24002fb4:	d00c      	beq.n	24002fd0 <HAL_RCCEx_PeriphCLKConfig+0x3f8>
24002fb6:	2b20      	cmp	r3, #32
24002fb8:	d815      	bhi.n	24002fe6 <HAL_RCCEx_PeriphCLKConfig+0x40e>
24002fba:	2b00      	cmp	r3, #0
24002fbc:	d019      	beq.n	24002ff2 <HAL_RCCEx_PeriphCLKConfig+0x41a>
24002fbe:	2b10      	cmp	r3, #16
24002fc0:	d111      	bne.n	24002fe6 <HAL_RCCEx_PeriphCLKConfig+0x40e>
24002fc2:	4b77      	ldr	r3, [pc, #476]	@ (240031a0 <HAL_RCCEx_PeriphCLKConfig+0x5c8>)
24002fc4:	6adb      	ldr	r3, [r3, #44]	@ 0x2c
24002fc6:	4a76      	ldr	r2, [pc, #472]	@ (240031a0 <HAL_RCCEx_PeriphCLKConfig+0x5c8>)
24002fc8:	f443 3300 	orr.w	r3, r3, #131072	@ 0x20000
24002fcc:	62d3      	str	r3, [r2, #44]	@ 0x2c
24002fce:	e011      	b.n	24002ff4 <HAL_RCCEx_PeriphCLKConfig+0x41c>
24002fd0:	f8d7 3114 	ldr.w	r3, [r7, #276]	@ 0x114
24002fd4:	3308      	adds	r3, #8
24002fd6:	2102      	movs	r1, #2
24002fd8:	4618      	mov	r0, r3
24002fda:	f001 f807 	bl	24003fec <RCCEx_PLL2_Config>
24002fde:	4603      	mov	r3, r0
24002fe0:	f887 3127 	strb.w	r3, [r7, #295]	@ 0x127
24002fe4:	e006      	b.n	24002ff4 <HAL_RCCEx_PeriphCLKConfig+0x41c>
24002fe6:	2301      	movs	r3, #1
24002fe8:	f887 3127 	strb.w	r3, [r7, #295]	@ 0x127
24002fec:	e002      	b.n	24002ff4 <HAL_RCCEx_PeriphCLKConfig+0x41c>
24002fee:	bf00      	nop
24002ff0:	e000      	b.n	24002ff4 <HAL_RCCEx_PeriphCLKConfig+0x41c>
24002ff2:	bf00      	nop
24002ff4:	f897 3127 	ldrb.w	r3, [r7, #295]	@ 0x127
24002ff8:	2b00      	cmp	r3, #0
24002ffa:	d10a      	bne.n	24003012 <HAL_RCCEx_PeriphCLKConfig+0x43a>
24002ffc:	4b68      	ldr	r3, [pc, #416]	@ (240031a0 <HAL_RCCEx_PeriphCLKConfig+0x5c8>)
24002ffe:	6cdb      	ldr	r3, [r3, #76]	@ 0x4c
24003000:	f023 0130 	bic.w	r1, r3, #48	@ 0x30
24003004:	f8d7 3114 	ldr.w	r3, [r7, #276]	@ 0x114
24003008:	6cdb      	ldr	r3, [r3, #76]	@ 0x4c
2400300a:	4a65      	ldr	r2, [pc, #404]	@ (240031a0 <HAL_RCCEx_PeriphCLKConfig+0x5c8>)
2400300c:	430b      	orrs	r3, r1
2400300e:	64d3      	str	r3, [r2, #76]	@ 0x4c
24003010:	e003      	b.n	2400301a <HAL_RCCEx_PeriphCLKConfig+0x442>
24003012:	f897 3127 	ldrb.w	r3, [r7, #295]	@ 0x127
24003016:	f887 3126 	strb.w	r3, [r7, #294]	@ 0x126
2400301a:	f8d7 3114 	ldr.w	r3, [r7, #276]	@ 0x114
2400301e:	e9d3 2300 	ldrd	r2, r3, [r3]
24003022:	f402 5380 	and.w	r3, r2, #4096	@ 0x1000
24003026:	f8c7 30f0 	str.w	r3, [r7, #240]	@ 0xf0
2400302a:	2300      	movs	r3, #0
2400302c:	f8c7 30f4 	str.w	r3, [r7, #244]	@ 0xf4
24003030:	e9d7 123c 	ldrd	r1, r2, [r7, #240]	@ 0xf0
24003034:	460b      	mov	r3, r1
24003036:	4313      	orrs	r3, r2
24003038:	d051      	beq.n	240030de <HAL_RCCEx_PeriphCLKConfig+0x506>
2400303a:	f8d7 3114 	ldr.w	r3, [r7, #276]	@ 0x114
2400303e:	6e1b      	ldr	r3, [r3, #96]	@ 0x60
24003040:	f5b3 4f80 	cmp.w	r3, #16384	@ 0x4000
24003044:	d035      	beq.n	240030b2 <HAL_RCCEx_PeriphCLKConfig+0x4da>
24003046:	f5b3 4f80 	cmp.w	r3, #16384	@ 0x4000
2400304a:	d82e      	bhi.n	240030aa <HAL_RCCEx_PeriphCLKConfig+0x4d2>
2400304c:	f5b3 5f40 	cmp.w	r3, #12288	@ 0x3000
24003050:	d031      	beq.n	240030b6 <HAL_RCCEx_PeriphCLKConfig+0x4de>
24003052:	f5b3 5f40 	cmp.w	r3, #12288	@ 0x3000
24003056:	d828      	bhi.n	240030aa <HAL_RCCEx_PeriphCLKConfig+0x4d2>
24003058:	f5b3 5f00 	cmp.w	r3, #8192	@ 0x2000
2400305c:	d01a      	beq.n	24003094 <HAL_RCCEx_PeriphCLKConfig+0x4bc>
2400305e:	f5b3 5f00 	cmp.w	r3, #8192	@ 0x2000
24003062:	d822      	bhi.n	240030aa <HAL_RCCEx_PeriphCLKConfig+0x4d2>
24003064:	2b00      	cmp	r3, #0
24003066:	d003      	beq.n	24003070 <HAL_RCCEx_PeriphCLKConfig+0x498>
24003068:	f5b3 5f80 	cmp.w	r3, #4096	@ 0x1000
2400306c:	d007      	beq.n	2400307e <HAL_RCCEx_PeriphCLKConfig+0x4a6>
2400306e:	e01c      	b.n	240030aa <HAL_RCCEx_PeriphCLKConfig+0x4d2>
24003070:	4b4b      	ldr	r3, [pc, #300]	@ (240031a0 <HAL_RCCEx_PeriphCLKConfig+0x5c8>)
24003072:	6adb      	ldr	r3, [r3, #44]	@ 0x2c
24003074:	4a4a      	ldr	r2, [pc, #296]	@ (240031a0 <HAL_RCCEx_PeriphCLKConfig+0x5c8>)
24003076:	f443 3300 	orr.w	r3, r3, #131072	@ 0x20000
2400307a:	62d3      	str	r3, [r2, #44]	@ 0x2c
2400307c:	e01c      	b.n	240030b8 <HAL_RCCEx_PeriphCLKConfig+0x4e0>
2400307e:	f8d7 3114 	ldr.w	r3, [r7, #276]	@ 0x114
24003082:	3308      	adds	r3, #8
24003084:	2100      	movs	r1, #0
24003086:	4618      	mov	r0, r3
24003088:	f000 ffb0 	bl	24003fec <RCCEx_PLL2_Config>
2400308c:	4603      	mov	r3, r0
2400308e:	f887 3127 	strb.w	r3, [r7, #295]	@ 0x127
24003092:	e011      	b.n	240030b8 <HAL_RCCEx_PeriphCLKConfig+0x4e0>
24003094:	f8d7 3114 	ldr.w	r3, [r7, #276]	@ 0x114
24003098:	3328      	adds	r3, #40	@ 0x28
2400309a:	2100      	movs	r1, #0
2400309c:	4618      	mov	r0, r3
2400309e:	f001 f857 	bl	24004150 <RCCEx_PLL3_Config>
240030a2:	4603      	mov	r3, r0
240030a4:	f887 3127 	strb.w	r3, [r7, #295]	@ 0x127
240030a8:	e006      	b.n	240030b8 <HAL_RCCEx_PeriphCLKConfig+0x4e0>
240030aa:	2301      	movs	r3, #1
240030ac:	f887 3127 	strb.w	r3, [r7, #295]	@ 0x127
240030b0:	e002      	b.n	240030b8 <HAL_RCCEx_PeriphCLKConfig+0x4e0>
240030b2:	bf00      	nop
240030b4:	e000      	b.n	240030b8 <HAL_RCCEx_PeriphCLKConfig+0x4e0>
240030b6:	bf00      	nop
240030b8:	f897 3127 	ldrb.w	r3, [r7, #295]	@ 0x127
240030bc:	2b00      	cmp	r3, #0
240030be:	d10a      	bne.n	240030d6 <HAL_RCCEx_PeriphCLKConfig+0x4fe>
240030c0:	4b37      	ldr	r3, [pc, #220]	@ (240031a0 <HAL_RCCEx_PeriphCLKConfig+0x5c8>)
240030c2:	6d1b      	ldr	r3, [r3, #80]	@ 0x50
240030c4:	f423 41e0 	bic.w	r1, r3, #28672	@ 0x7000
240030c8:	f8d7 3114 	ldr.w	r3, [r7, #276]	@ 0x114
240030cc:	6e1b      	ldr	r3, [r3, #96]	@ 0x60
240030ce:	4a34      	ldr	r2, [pc, #208]	@ (240031a0 <HAL_RCCEx_PeriphCLKConfig+0x5c8>)
240030d0:	430b      	orrs	r3, r1
240030d2:	6513      	str	r3, [r2, #80]	@ 0x50
240030d4:	e003      	b.n	240030de <HAL_RCCEx_PeriphCLKConfig+0x506>
240030d6:	f897 3127 	ldrb.w	r3, [r7, #295]	@ 0x127
240030da:	f887 3126 	strb.w	r3, [r7, #294]	@ 0x126
240030de:	f8d7 3114 	ldr.w	r3, [r7, #276]	@ 0x114
240030e2:	e9d3 2300 	ldrd	r2, r3, [r3]
240030e6:	f402 5300 	and.w	r3, r2, #8192	@ 0x2000
240030ea:	f8c7 30e8 	str.w	r3, [r7, #232]	@ 0xe8
240030ee:	2300      	movs	r3, #0
240030f0:	f8c7 30ec 	str.w	r3, [r7, #236]	@ 0xec
240030f4:	e9d7 123a 	ldrd	r1, r2, [r7, #232]	@ 0xe8
240030f8:	460b      	mov	r3, r1
240030fa:	4313      	orrs	r3, r2
240030fc:	d056      	beq.n	240031ac <HAL_RCCEx_PeriphCLKConfig+0x5d4>
240030fe:	f8d7 3114 	ldr.w	r3, [r7, #276]	@ 0x114
24003102:	6e5b      	ldr	r3, [r3, #100]	@ 0x64
24003104:	f5b3 2fa0 	cmp.w	r3, #327680	@ 0x50000
24003108:	d033      	beq.n	24003172 <HAL_RCCEx_PeriphCLKConfig+0x59a>
2400310a:	f5b3 2fa0 	cmp.w	r3, #327680	@ 0x50000
2400310e:	d82c      	bhi.n	2400316a <HAL_RCCEx_PeriphCLKConfig+0x592>
24003110:	f5b3 2f80 	cmp.w	r3, #262144	@ 0x40000
24003114:	d02f      	beq.n	24003176 <HAL_RCCEx_PeriphCLKConfig+0x59e>
24003116:	f5b3 2f80 	cmp.w	r3, #262144	@ 0x40000
2400311a:	d826      	bhi.n	2400316a <HAL_RCCEx_PeriphCLKConfig+0x592>
2400311c:	f5b3 3f40 	cmp.w	r3, #196608	@ 0x30000
24003120:	d02b      	beq.n	2400317a <HAL_RCCEx_PeriphCLKConfig+0x5a2>
24003122:	f5b3 3f40 	cmp.w	r3, #196608	@ 0x30000
24003126:	d820      	bhi.n	2400316a <HAL_RCCEx_PeriphCLKConfig+0x592>
24003128:	f5b3 3f00 	cmp.w	r3, #131072	@ 0x20000
2400312c:	d012      	beq.n	24003154 <HAL_RCCEx_PeriphCLKConfig+0x57c>
2400312e:	f5b3 3f00 	cmp.w	r3, #131072	@ 0x20000
24003132:	d81a      	bhi.n	2400316a <HAL_RCCEx_PeriphCLKConfig+0x592>
24003134:	2b00      	cmp	r3, #0
24003136:	d022      	beq.n	2400317e <HAL_RCCEx_PeriphCLKConfig+0x5a6>
24003138:	f5b3 3f80 	cmp.w	r3, #65536	@ 0x10000
2400313c:	d115      	bne.n	2400316a <HAL_RCCEx_PeriphCLKConfig+0x592>
2400313e:	f8d7 3114 	ldr.w	r3, [r7, #276]	@ 0x114
24003142:	3308      	adds	r3, #8
24003144:	2101      	movs	r1, #1
24003146:	4618      	mov	r0, r3
24003148:	f000 ff50 	bl	24003fec <RCCEx_PLL2_Config>
2400314c:	4603      	mov	r3, r0
2400314e:	f887 3127 	strb.w	r3, [r7, #295]	@ 0x127
24003152:	e015      	b.n	24003180 <HAL_RCCEx_PeriphCLKConfig+0x5a8>
24003154:	f8d7 3114 	ldr.w	r3, [r7, #276]	@ 0x114
24003158:	3328      	adds	r3, #40	@ 0x28
2400315a:	2101      	movs	r1, #1
2400315c:	4618      	mov	r0, r3
2400315e:	f000 fff7 	bl	24004150 <RCCEx_PLL3_Config>
24003162:	4603      	mov	r3, r0
24003164:	f887 3127 	strb.w	r3, [r7, #295]	@ 0x127
24003168:	e00a      	b.n	24003180 <HAL_RCCEx_PeriphCLKConfig+0x5a8>
2400316a:	2301      	movs	r3, #1
2400316c:	f887 3127 	strb.w	r3, [r7, #295]	@ 0x127
24003170:	e006      	b.n	24003180 <HAL_RCCEx_PeriphCLKConfig+0x5a8>
24003172:	bf00      	nop
24003174:	e004      	b.n	24003180 <HAL_RCCEx_PeriphCLKConfig+0x5a8>
24003176:	bf00      	nop
24003178:	e002      	b.n	24003180 <HAL_RCCEx_PeriphCLKConfig+0x5a8>
2400317a:	bf00      	nop
2400317c:	e000      	b.n	24003180 <HAL_RCCEx_PeriphCLKConfig+0x5a8>
2400317e:	bf00      	nop
24003180:	f897 3127 	ldrb.w	r3, [r7, #295]	@ 0x127
24003184:	2b00      	cmp	r3, #0
24003186:	d10d      	bne.n	240031a4 <HAL_RCCEx_PeriphCLKConfig+0x5cc>
24003188:	4b05      	ldr	r3, [pc, #20]	@ (240031a0 <HAL_RCCEx_PeriphCLKConfig+0x5c8>)
2400318a:	6d1b      	ldr	r3, [r3, #80]	@ 0x50
2400318c:	f423 21e0 	bic.w	r1, r3, #458752	@ 0x70000
24003190:	f8d7 3114 	ldr.w	r3, [r7, #276]	@ 0x114
24003194:	6e5b      	ldr	r3, [r3, #100]	@ 0x64
24003196:	4a02      	ldr	r2, [pc, #8]	@ (240031a0 <HAL_RCCEx_PeriphCLKConfig+0x5c8>)
24003198:	430b      	orrs	r3, r1
2400319a:	6513      	str	r3, [r2, #80]	@ 0x50
2400319c:	e006      	b.n	240031ac <HAL_RCCEx_PeriphCLKConfig+0x5d4>
2400319e:	bf00      	nop
240031a0:	58024400 	.word	0x58024400
240031a4:	f897 3127 	ldrb.w	r3, [r7, #295]	@ 0x127
240031a8:	f887 3126 	strb.w	r3, [r7, #294]	@ 0x126
240031ac:	f8d7 3114 	ldr.w	r3, [r7, #276]	@ 0x114
240031b0:	e9d3 2300 	ldrd	r2, r3, [r3]
240031b4:	f402 4380 	and.w	r3, r2, #16384	@ 0x4000
240031b8:	f8c7 30e0 	str.w	r3, [r7, #224]	@ 0xe0
240031bc:	2300      	movs	r3, #0
240031be:	f8c7 30e4 	str.w	r3, [r7, #228]	@ 0xe4
240031c2:	e9d7 1238 	ldrd	r1, r2, [r7, #224]	@ 0xe0
240031c6:	460b      	mov	r3, r1
240031c8:	4313      	orrs	r3, r2
240031ca:	d055      	beq.n	24003278 <HAL_RCCEx_PeriphCLKConfig+0x6a0>
240031cc:	f8d7 3114 	ldr.w	r3, [r7, #276]	@ 0x114
240031d0:	f8d3 30b0 	ldr.w	r3, [r3, #176]	@ 0xb0
240031d4:	f1b3 4fa0 	cmp.w	r3, #1342177280	@ 0x50000000
240031d8:	d033      	beq.n	24003242 <HAL_RCCEx_PeriphCLKConfig+0x66a>
240031da:	f1b3 4fa0 	cmp.w	r3, #1342177280	@ 0x50000000
240031de:	d82c      	bhi.n	2400323a <HAL_RCCEx_PeriphCLKConfig+0x662>
240031e0:	f1b3 4f80 	cmp.w	r3, #1073741824	@ 0x40000000
240031e4:	d02f      	beq.n	24003246 <HAL_RCCEx_PeriphCLKConfig+0x66e>
240031e6:	f1b3 4f80 	cmp.w	r3, #1073741824	@ 0x40000000
240031ea:	d826      	bhi.n	2400323a <HAL_RCCEx_PeriphCLKConfig+0x662>
240031ec:	f1b3 5f40 	cmp.w	r3, #805306368	@ 0x30000000
240031f0:	d02b      	beq.n	2400324a <HAL_RCCEx_PeriphCLKConfig+0x672>
240031f2:	f1b3 5f40 	cmp.w	r3, #805306368	@ 0x30000000
240031f6:	d820      	bhi.n	2400323a <HAL_RCCEx_PeriphCLKConfig+0x662>
240031f8:	f1b3 5f00 	cmp.w	r3, #536870912	@ 0x20000000
240031fc:	d012      	beq.n	24003224 <HAL_RCCEx_PeriphCLKConfig+0x64c>
240031fe:	f1b3 5f00 	cmp.w	r3, #536870912	@ 0x20000000
24003202:	d81a      	bhi.n	2400323a <HAL_RCCEx_PeriphCLKConfig+0x662>
24003204:	2b00      	cmp	r3, #0
24003206:	d022      	beq.n	2400324e <HAL_RCCEx_PeriphCLKConfig+0x676>
24003208:	f1b3 5f80 	cmp.w	r3, #268435456	@ 0x10000000
2400320c:	d115      	bne.n	2400323a <HAL_RCCEx_PeriphCLKConfig+0x662>
2400320e:	f8d7 3114 	ldr.w	r3, [r7, #276]	@ 0x114
24003212:	3308      	adds	r3, #8
24003214:	2101      	movs	r1, #1
24003216:	4618      	mov	r0, r3
24003218:	f000 fee8 	bl	24003fec <RCCEx_PLL2_Config>
2400321c:	4603      	mov	r3, r0
2400321e:	f887 3127 	strb.w	r3, [r7, #295]	@ 0x127
24003222:	e015      	b.n	24003250 <HAL_RCCEx_PeriphCLKConfig+0x678>
24003224:	f8d7 3114 	ldr.w	r3, [r7, #276]	@ 0x114
24003228:	3328      	adds	r3, #40	@ 0x28
2400322a:	2101      	movs	r1, #1
2400322c:	4618      	mov	r0, r3
2400322e:	f000 ff8f 	bl	24004150 <RCCEx_PLL3_Config>
24003232:	4603      	mov	r3, r0
24003234:	f887 3127 	strb.w	r3, [r7, #295]	@ 0x127
24003238:	e00a      	b.n	24003250 <HAL_RCCEx_PeriphCLKConfig+0x678>
2400323a:	2301      	movs	r3, #1
2400323c:	f887 3127 	strb.w	r3, [r7, #295]	@ 0x127
24003240:	e006      	b.n	24003250 <HAL_RCCEx_PeriphCLKConfig+0x678>
24003242:	bf00      	nop
24003244:	e004      	b.n	24003250 <HAL_RCCEx_PeriphCLKConfig+0x678>
24003246:	bf00      	nop
24003248:	e002      	b.n	24003250 <HAL_RCCEx_PeriphCLKConfig+0x678>
2400324a:	bf00      	nop
2400324c:	e000      	b.n	24003250 <HAL_RCCEx_PeriphCLKConfig+0x678>
2400324e:	bf00      	nop
24003250:	f897 3127 	ldrb.w	r3, [r7, #295]	@ 0x127
24003254:	2b00      	cmp	r3, #0
24003256:	d10b      	bne.n	24003270 <HAL_RCCEx_PeriphCLKConfig+0x698>
24003258:	4ba3      	ldr	r3, [pc, #652]	@ (240034e8 <HAL_RCCEx_PeriphCLKConfig+0x910>)
2400325a:	6d9b      	ldr	r3, [r3, #88]	@ 0x58
2400325c:	f023 41e0 	bic.w	r1, r3, #1879048192	@ 0x70000000
24003260:	f8d7 3114 	ldr.w	r3, [r7, #276]	@ 0x114
24003264:	f8d3 30b0 	ldr.w	r3, [r3, #176]	@ 0xb0
24003268:	4a9f      	ldr	r2, [pc, #636]	@ (240034e8 <HAL_RCCEx_PeriphCLKConfig+0x910>)
2400326a:	430b      	orrs	r3, r1
2400326c:	6593      	str	r3, [r2, #88]	@ 0x58
2400326e:	e003      	b.n	24003278 <HAL_RCCEx_PeriphCLKConfig+0x6a0>
24003270:	f897 3127 	ldrb.w	r3, [r7, #295]	@ 0x127
24003274:	f887 3126 	strb.w	r3, [r7, #294]	@ 0x126
24003278:	f8d7 3114 	ldr.w	r3, [r7, #276]	@ 0x114
2400327c:	e9d3 2300 	ldrd	r2, r3, [r3]
24003280:	f402 4300 	and.w	r3, r2, #32768	@ 0x8000
24003284:	f8c7 30d8 	str.w	r3, [r7, #216]	@ 0xd8
24003288:	2300      	movs	r3, #0
2400328a:	f8c7 30dc 	str.w	r3, [r7, #220]	@ 0xdc
2400328e:	e9d7 1236 	ldrd	r1, r2, [r7, #216]	@ 0xd8
24003292:	460b      	mov	r3, r1
24003294:	4313      	orrs	r3, r2
24003296:	d037      	beq.n	24003308 <HAL_RCCEx_PeriphCLKConfig+0x730>
24003298:	f8d7 3114 	ldr.w	r3, [r7, #276]	@ 0x114
2400329c:	6f1b      	ldr	r3, [r3, #112]	@ 0x70
2400329e:	f1b3 5f00 	cmp.w	r3, #536870912	@ 0x20000000
240032a2:	d00e      	beq.n	240032c2 <HAL_RCCEx_PeriphCLKConfig+0x6ea>
240032a4:	f1b3 5f00 	cmp.w	r3, #536870912	@ 0x20000000
240032a8:	d816      	bhi.n	240032d8 <HAL_RCCEx_PeriphCLKConfig+0x700>
240032aa:	2b00      	cmp	r3, #0
240032ac:	d018      	beq.n	240032e0 <HAL_RCCEx_PeriphCLKConfig+0x708>
240032ae:	f1b3 5f80 	cmp.w	r3, #268435456	@ 0x10000000
240032b2:	d111      	bne.n	240032d8 <HAL_RCCEx_PeriphCLKConfig+0x700>
240032b4:	4b8c      	ldr	r3, [pc, #560]	@ (240034e8 <HAL_RCCEx_PeriphCLKConfig+0x910>)
240032b6:	6adb      	ldr	r3, [r3, #44]	@ 0x2c
240032b8:	4a8b      	ldr	r2, [pc, #556]	@ (240034e8 <HAL_RCCEx_PeriphCLKConfig+0x910>)
240032ba:	f443 3300 	orr.w	r3, r3, #131072	@ 0x20000
240032be:	62d3      	str	r3, [r2, #44]	@ 0x2c
240032c0:	e00f      	b.n	240032e2 <HAL_RCCEx_PeriphCLKConfig+0x70a>
240032c2:	f8d7 3114 	ldr.w	r3, [r7, #276]	@ 0x114
240032c6:	3308      	adds	r3, #8
240032c8:	2101      	movs	r1, #1
240032ca:	4618      	mov	r0, r3
240032cc:	f000 fe8e 	bl	24003fec <RCCEx_PLL2_Config>
240032d0:	4603      	mov	r3, r0
240032d2:	f887 3127 	strb.w	r3, [r7, #295]	@ 0x127
240032d6:	e004      	b.n	240032e2 <HAL_RCCEx_PeriphCLKConfig+0x70a>
240032d8:	2301      	movs	r3, #1
240032da:	f887 3127 	strb.w	r3, [r7, #295]	@ 0x127
240032de:	e000      	b.n	240032e2 <HAL_RCCEx_PeriphCLKConfig+0x70a>
240032e0:	bf00      	nop
240032e2:	f897 3127 	ldrb.w	r3, [r7, #295]	@ 0x127
240032e6:	2b00      	cmp	r3, #0
240032e8:	d10a      	bne.n	24003300 <HAL_RCCEx_PeriphCLKConfig+0x728>
240032ea:	4b7f      	ldr	r3, [pc, #508]	@ (240034e8 <HAL_RCCEx_PeriphCLKConfig+0x910>)
240032ec:	6d1b      	ldr	r3, [r3, #80]	@ 0x50
240032ee:	f023 5140 	bic.w	r1, r3, #805306368	@ 0x30000000
240032f2:	f8d7 3114 	ldr.w	r3, [r7, #276]	@ 0x114
240032f6:	6f1b      	ldr	r3, [r3, #112]	@ 0x70
240032f8:	4a7b      	ldr	r2, [pc, #492]	@ (240034e8 <HAL_RCCEx_PeriphCLKConfig+0x910>)
240032fa:	430b      	orrs	r3, r1
240032fc:	6513      	str	r3, [r2, #80]	@ 0x50
240032fe:	e003      	b.n	24003308 <HAL_RCCEx_PeriphCLKConfig+0x730>
24003300:	f897 3127 	ldrb.w	r3, [r7, #295]	@ 0x127
24003304:	f887 3126 	strb.w	r3, [r7, #294]	@ 0x126
24003308:	f8d7 3114 	ldr.w	r3, [r7, #276]	@ 0x114
2400330c:	e9d3 2300 	ldrd	r2, r3, [r3]
24003310:	f002 7380 	and.w	r3, r2, #16777216	@ 0x1000000
24003314:	f8c7 30d0 	str.w	r3, [r7, #208]	@ 0xd0
24003318:	2300      	movs	r3, #0
2400331a:	f8c7 30d4 	str.w	r3, [r7, #212]	@ 0xd4
2400331e:	e9d7 1234 	ldrd	r1, r2, [r7, #208]	@ 0xd0
24003322:	460b      	mov	r3, r1
24003324:	4313      	orrs	r3, r2
24003326:	d039      	beq.n	2400339c <HAL_RCCEx_PeriphCLKConfig+0x7c4>
24003328:	f8d7 3114 	ldr.w	r3, [r7, #276]	@ 0x114
2400332c:	6c9b      	ldr	r3, [r3, #72]	@ 0x48
2400332e:	2b03      	cmp	r3, #3
24003330:	d81c      	bhi.n	2400336c <HAL_RCCEx_PeriphCLKConfig+0x794>
24003332:	a201      	add	r2, pc, #4	@ (adr r2, 24003338 <HAL_RCCEx_PeriphCLKConfig+0x760>)
24003334:	f852 f023 	ldr.w	pc, [r2, r3, lsl #2]
24003338:	24003375 	.word	0x24003375
2400333c:	24003349 	.word	0x24003349
24003340:	24003357 	.word	0x24003357
24003344:	24003375 	.word	0x24003375
24003348:	4b67      	ldr	r3, [pc, #412]	@ (240034e8 <HAL_RCCEx_PeriphCLKConfig+0x910>)
2400334a:	6adb      	ldr	r3, [r3, #44]	@ 0x2c
2400334c:	4a66      	ldr	r2, [pc, #408]	@ (240034e8 <HAL_RCCEx_PeriphCLKConfig+0x910>)
2400334e:	f443 3300 	orr.w	r3, r3, #131072	@ 0x20000
24003352:	62d3      	str	r3, [r2, #44]	@ 0x2c
24003354:	e00f      	b.n	24003376 <HAL_RCCEx_PeriphCLKConfig+0x79e>
24003356:	f8d7 3114 	ldr.w	r3, [r7, #276]	@ 0x114
2400335a:	3308      	adds	r3, #8
2400335c:	2102      	movs	r1, #2
2400335e:	4618      	mov	r0, r3
24003360:	f000 fe44 	bl	24003fec <RCCEx_PLL2_Config>
24003364:	4603      	mov	r3, r0
24003366:	f887 3127 	strb.w	r3, [r7, #295]	@ 0x127
2400336a:	e004      	b.n	24003376 <HAL_RCCEx_PeriphCLKConfig+0x79e>
2400336c:	2301      	movs	r3, #1
2400336e:	f887 3127 	strb.w	r3, [r7, #295]	@ 0x127
24003372:	e000      	b.n	24003376 <HAL_RCCEx_PeriphCLKConfig+0x79e>
24003374:	bf00      	nop
24003376:	f897 3127 	ldrb.w	r3, [r7, #295]	@ 0x127
2400337a:	2b00      	cmp	r3, #0
2400337c:	d10a      	bne.n	24003394 <HAL_RCCEx_PeriphCLKConfig+0x7bc>
2400337e:	4b5a      	ldr	r3, [pc, #360]	@ (240034e8 <HAL_RCCEx_PeriphCLKConfig+0x910>)
24003380:	6cdb      	ldr	r3, [r3, #76]	@ 0x4c
24003382:	f023 0103 	bic.w	r1, r3, #3
24003386:	f8d7 3114 	ldr.w	r3, [r7, #276]	@ 0x114
2400338a:	6c9b      	ldr	r3, [r3, #72]	@ 0x48
2400338c:	4a56      	ldr	r2, [pc, #344]	@ (240034e8 <HAL_RCCEx_PeriphCLKConfig+0x910>)
2400338e:	430b      	orrs	r3, r1
24003390:	64d3      	str	r3, [r2, #76]	@ 0x4c
24003392:	e003      	b.n	2400339c <HAL_RCCEx_PeriphCLKConfig+0x7c4>
24003394:	f897 3127 	ldrb.w	r3, [r7, #295]	@ 0x127
24003398:	f887 3126 	strb.w	r3, [r7, #294]	@ 0x126
2400339c:	f8d7 3114 	ldr.w	r3, [r7, #276]	@ 0x114
240033a0:	e9d3 2300 	ldrd	r2, r3, [r3]
240033a4:	f402 0380 	and.w	r3, r2, #4194304	@ 0x400000
240033a8:	f8c7 30c8 	str.w	r3, [r7, #200]	@ 0xc8
240033ac:	2300      	movs	r3, #0
240033ae:	f8c7 30cc 	str.w	r3, [r7, #204]	@ 0xcc
240033b2:	e9d7 1232 	ldrd	r1, r2, [r7, #200]	@ 0xc8
240033b6:	460b      	mov	r3, r1
240033b8:	4313      	orrs	r3, r2
240033ba:	f000 809f 	beq.w	240034fc <HAL_RCCEx_PeriphCLKConfig+0x924>
240033be:	4b4b      	ldr	r3, [pc, #300]	@ (240034ec <HAL_RCCEx_PeriphCLKConfig+0x914>)
240033c0:	681b      	ldr	r3, [r3, #0]
240033c2:	4a4a      	ldr	r2, [pc, #296]	@ (240034ec <HAL_RCCEx_PeriphCLKConfig+0x914>)
240033c4:	f443 7380 	orr.w	r3, r3, #256	@ 0x100
240033c8:	6013      	str	r3, [r2, #0]
240033ca:	f7fd f991 	bl	240006f0 <HAL_GetTick>
240033ce:	f8c7 0120 	str.w	r0, [r7, #288]	@ 0x120
240033d2:	e00b      	b.n	240033ec <HAL_RCCEx_PeriphCLKConfig+0x814>
240033d4:	f7fd f98c 	bl	240006f0 <HAL_GetTick>
240033d8:	4602      	mov	r2, r0
240033da:	f8d7 3120 	ldr.w	r3, [r7, #288]	@ 0x120
240033de:	1ad3      	subs	r3, r2, r3
240033e0:	2b64      	cmp	r3, #100	@ 0x64
240033e2:	d903      	bls.n	240033ec <HAL_RCCEx_PeriphCLKConfig+0x814>
240033e4:	2303      	movs	r3, #3
240033e6:	f887 3127 	strb.w	r3, [r7, #295]	@ 0x127
240033ea:	e005      	b.n	240033f8 <HAL_RCCEx_PeriphCLKConfig+0x820>
240033ec:	4b3f      	ldr	r3, [pc, #252]	@ (240034ec <HAL_RCCEx_PeriphCLKConfig+0x914>)
240033ee:	681b      	ldr	r3, [r3, #0]
240033f0:	f403 7380 	and.w	r3, r3, #256	@ 0x100
240033f4:	2b00      	cmp	r3, #0
240033f6:	d0ed      	beq.n	240033d4 <HAL_RCCEx_PeriphCLKConfig+0x7fc>
240033f8:	f897 3127 	ldrb.w	r3, [r7, #295]	@ 0x127
240033fc:	2b00      	cmp	r3, #0
240033fe:	d179      	bne.n	240034f4 <HAL_RCCEx_PeriphCLKConfig+0x91c>
24003400:	4b39      	ldr	r3, [pc, #228]	@ (240034e8 <HAL_RCCEx_PeriphCLKConfig+0x910>)
24003402:	6f1a      	ldr	r2, [r3, #112]	@ 0x70
24003404:	f8d7 3114 	ldr.w	r3, [r7, #276]	@ 0x114
24003408:	f8d3 30b4 	ldr.w	r3, [r3, #180]	@ 0xb4
2400340c:	4053      	eors	r3, r2
2400340e:	f403 7340 	and.w	r3, r3, #768	@ 0x300
24003412:	2b00      	cmp	r3, #0
24003414:	d015      	beq.n	24003442 <HAL_RCCEx_PeriphCLKConfig+0x86a>
24003416:	4b34      	ldr	r3, [pc, #208]	@ (240034e8 <HAL_RCCEx_PeriphCLKConfig+0x910>)
24003418:	6f1b      	ldr	r3, [r3, #112]	@ 0x70
2400341a:	f423 7340 	bic.w	r3, r3, #768	@ 0x300
2400341e:	f8c7 311c 	str.w	r3, [r7, #284]	@ 0x11c
24003422:	4b31      	ldr	r3, [pc, #196]	@ (240034e8 <HAL_RCCEx_PeriphCLKConfig+0x910>)
24003424:	6f1b      	ldr	r3, [r3, #112]	@ 0x70
24003426:	4a30      	ldr	r2, [pc, #192]	@ (240034e8 <HAL_RCCEx_PeriphCLKConfig+0x910>)
24003428:	f443 3380 	orr.w	r3, r3, #65536	@ 0x10000
2400342c:	6713      	str	r3, [r2, #112]	@ 0x70
2400342e:	4b2e      	ldr	r3, [pc, #184]	@ (240034e8 <HAL_RCCEx_PeriphCLKConfig+0x910>)
24003430:	6f1b      	ldr	r3, [r3, #112]	@ 0x70
24003432:	4a2d      	ldr	r2, [pc, #180]	@ (240034e8 <HAL_RCCEx_PeriphCLKConfig+0x910>)
24003434:	f423 3380 	bic.w	r3, r3, #65536	@ 0x10000
24003438:	6713      	str	r3, [r2, #112]	@ 0x70
2400343a:	4a2b      	ldr	r2, [pc, #172]	@ (240034e8 <HAL_RCCEx_PeriphCLKConfig+0x910>)
2400343c:	f8d7 311c 	ldr.w	r3, [r7, #284]	@ 0x11c
24003440:	6713      	str	r3, [r2, #112]	@ 0x70
24003442:	f8d7 3114 	ldr.w	r3, [r7, #276]	@ 0x114
24003446:	f8d3 30b4 	ldr.w	r3, [r3, #180]	@ 0xb4
2400344a:	f5b3 7f80 	cmp.w	r3, #256	@ 0x100
2400344e:	d118      	bne.n	24003482 <HAL_RCCEx_PeriphCLKConfig+0x8aa>
24003450:	f7fd f94e 	bl	240006f0 <HAL_GetTick>
24003454:	f8c7 0120 	str.w	r0, [r7, #288]	@ 0x120
24003458:	e00d      	b.n	24003476 <HAL_RCCEx_PeriphCLKConfig+0x89e>
2400345a:	f7fd f949 	bl	240006f0 <HAL_GetTick>
2400345e:	4602      	mov	r2, r0
24003460:	f8d7 3120 	ldr.w	r3, [r7, #288]	@ 0x120
24003464:	1ad2      	subs	r2, r2, r3
24003466:	f241 3388 	movw	r3, #5000	@ 0x1388
2400346a:	429a      	cmp	r2, r3
2400346c:	d903      	bls.n	24003476 <HAL_RCCEx_PeriphCLKConfig+0x89e>
2400346e:	2303      	movs	r3, #3
24003470:	f887 3127 	strb.w	r3, [r7, #295]	@ 0x127
24003474:	e005      	b.n	24003482 <HAL_RCCEx_PeriphCLKConfig+0x8aa>
24003476:	4b1c      	ldr	r3, [pc, #112]	@ (240034e8 <HAL_RCCEx_PeriphCLKConfig+0x910>)
24003478:	6f1b      	ldr	r3, [r3, #112]	@ 0x70
2400347a:	f003 0302 	and.w	r3, r3, #2
2400347e:	2b00      	cmp	r3, #0
24003480:	d0eb      	beq.n	2400345a <HAL_RCCEx_PeriphCLKConfig+0x882>
24003482:	f897 3127 	ldrb.w	r3, [r7, #295]	@ 0x127
24003486:	2b00      	cmp	r3, #0
24003488:	d129      	bne.n	240034de <HAL_RCCEx_PeriphCLKConfig+0x906>
2400348a:	f8d7 3114 	ldr.w	r3, [r7, #276]	@ 0x114
2400348e:	f8d3 30b4 	ldr.w	r3, [r3, #180]	@ 0xb4
24003492:	f403 7340 	and.w	r3, r3, #768	@ 0x300
24003496:	f5b3 7f40 	cmp.w	r3, #768	@ 0x300
2400349a:	d10e      	bne.n	240034ba <HAL_RCCEx_PeriphCLKConfig+0x8e2>
2400349c:	4b12      	ldr	r3, [pc, #72]	@ (240034e8 <HAL_RCCEx_PeriphCLKConfig+0x910>)
2400349e:	691b      	ldr	r3, [r3, #16]
240034a0:	f423 517c 	bic.w	r1, r3, #16128	@ 0x3f00
240034a4:	f8d7 3114 	ldr.w	r3, [r7, #276]	@ 0x114
240034a8:	f8d3 30b4 	ldr.w	r3, [r3, #180]	@ 0xb4
240034ac:	091a      	lsrs	r2, r3, #4
240034ae:	4b10      	ldr	r3, [pc, #64]	@ (240034f0 <HAL_RCCEx_PeriphCLKConfig+0x918>)
240034b0:	4013      	ands	r3, r2
240034b2:	4a0d      	ldr	r2, [pc, #52]	@ (240034e8 <HAL_RCCEx_PeriphCLKConfig+0x910>)
240034b4:	430b      	orrs	r3, r1
240034b6:	6113      	str	r3, [r2, #16]
240034b8:	e005      	b.n	240034c6 <HAL_RCCEx_PeriphCLKConfig+0x8ee>
240034ba:	4b0b      	ldr	r3, [pc, #44]	@ (240034e8 <HAL_RCCEx_PeriphCLKConfig+0x910>)
240034bc:	691b      	ldr	r3, [r3, #16]
240034be:	4a0a      	ldr	r2, [pc, #40]	@ (240034e8 <HAL_RCCEx_PeriphCLKConfig+0x910>)
240034c0:	f423 537c 	bic.w	r3, r3, #16128	@ 0x3f00
240034c4:	6113      	str	r3, [r2, #16]
240034c6:	4b08      	ldr	r3, [pc, #32]	@ (240034e8 <HAL_RCCEx_PeriphCLKConfig+0x910>)
240034c8:	6f19      	ldr	r1, [r3, #112]	@ 0x70
240034ca:	f8d7 3114 	ldr.w	r3, [r7, #276]	@ 0x114
240034ce:	f8d3 30b4 	ldr.w	r3, [r3, #180]	@ 0xb4
240034d2:	f3c3 030b 	ubfx	r3, r3, #0, #12
240034d6:	4a04      	ldr	r2, [pc, #16]	@ (240034e8 <HAL_RCCEx_PeriphCLKConfig+0x910>)
240034d8:	430b      	orrs	r3, r1
240034da:	6713      	str	r3, [r2, #112]	@ 0x70
240034dc:	e00e      	b.n	240034fc <HAL_RCCEx_PeriphCLKConfig+0x924>
240034de:	f897 3127 	ldrb.w	r3, [r7, #295]	@ 0x127
240034e2:	f887 3126 	strb.w	r3, [r7, #294]	@ 0x126
240034e6:	e009      	b.n	240034fc <HAL_RCCEx_PeriphCLKConfig+0x924>
240034e8:	58024400 	.word	0x58024400
240034ec:	58024800 	.word	0x58024800
240034f0:	00ffffcf 	.word	0x00ffffcf
240034f4:	f897 3127 	ldrb.w	r3, [r7, #295]	@ 0x127
240034f8:	f887 3126 	strb.w	r3, [r7, #294]	@ 0x126
240034fc:	f8d7 3114 	ldr.w	r3, [r7, #276]	@ 0x114
24003500:	e9d3 2300 	ldrd	r2, r3, [r3]
24003504:	f002 0301 	and.w	r3, r2, #1
24003508:	f8c7 30c0 	str.w	r3, [r7, #192]	@ 0xc0
2400350c:	2300      	movs	r3, #0
2400350e:	f8c7 30c4 	str.w	r3, [r7, #196]	@ 0xc4
24003512:	e9d7 1230 	ldrd	r1, r2, [r7, #192]	@ 0xc0
24003516:	460b      	mov	r3, r1
24003518:	4313      	orrs	r3, r2
2400351a:	f000 8089 	beq.w	24003630 <HAL_RCCEx_PeriphCLKConfig+0xa58>
2400351e:	f8d7 3114 	ldr.w	r3, [r7, #276]	@ 0x114
24003522:	6fdb      	ldr	r3, [r3, #124]	@ 0x7c
24003524:	2b28      	cmp	r3, #40	@ 0x28
24003526:	d86b      	bhi.n	24003600 <HAL_RCCEx_PeriphCLKConfig+0xa28>
24003528:	a201      	add	r2, pc, #4	@ (adr r2, 24003530 <HAL_RCCEx_PeriphCLKConfig+0x958>)
2400352a:	f852 f023 	ldr.w	pc, [r2, r3, lsl #2]
2400352e:	bf00      	nop
24003530:	24003609 	.word	0x24003609
24003534:	24003601 	.word	0x24003601
24003538:	24003601 	.word	0x24003601
2400353c:	24003601 	.word	0x24003601
24003540:	24003601 	.word	0x24003601
24003544:	24003601 	.word	0x24003601
24003548:	24003601 	.word	0x24003601
2400354c:	24003601 	.word	0x24003601
24003550:	240035d5 	.word	0x240035d5
24003554:	24003601 	.word	0x24003601
24003558:	24003601 	.word	0x24003601
2400355c:	24003601 	.word	0x24003601
24003560:	24003601 	.word	0x24003601
24003564:	24003601 	.word	0x24003601
24003568:	24003601 	.word	0x24003601
2400356c:	24003601 	.word	0x24003601
24003570:	240035eb 	.word	0x240035eb
24003574:	24003601 	.word	0x24003601
24003578:	24003601 	.word	0x24003601
2400357c:	24003601 	.word	0x24003601
24003580:	24003601 	.word	0x24003601
24003584:	24003601 	.word	0x24003601
24003588:	24003601 	.word	0x24003601
2400358c:	24003601 	.word	0x24003601
24003590:	24003609 	.word	0x24003609
24003594:	24003601 	.word	0x24003601
24003598:	24003601 	.word	0x24003601
2400359c:	24003601 	.word	0x24003601
240035a0:	24003601 	.word	0x24003601
240035a4:	24003601 	.word	0x24003601
240035a8:	24003601 	.word	0x24003601
240035ac:	24003601 	.word	0x24003601
240035b0:	24003609 	.word	0x24003609
240035b4:	24003601 	.word	0x24003601
240035b8:	24003601 	.word	0x24003601
240035bc:	24003601 	.word	0x24003601
240035c0:	24003601 	.word	0x24003601
240035c4:	24003601 	.word	0x24003601
240035c8:	24003601 	.word	0x24003601
240035cc:	24003601 	.word	0x24003601
240035d0:	24003609 	.word	0x24003609
240035d4:	f8d7 3114 	ldr.w	r3, [r7, #276]	@ 0x114
240035d8:	3308      	adds	r3, #8
240035da:	2101      	movs	r1, #1
240035dc:	4618      	mov	r0, r3
240035de:	f000 fd05 	bl	24003fec <RCCEx_PLL2_Config>
240035e2:	4603      	mov	r3, r0
240035e4:	f887 3127 	strb.w	r3, [r7, #295]	@ 0x127
240035e8:	e00f      	b.n	2400360a <HAL_RCCEx_PeriphCLKConfig+0xa32>
240035ea:	f8d7 3114 	ldr.w	r3, [r7, #276]	@ 0x114
240035ee:	3328      	adds	r3, #40	@ 0x28
240035f0:	2101      	movs	r1, #1
240035f2:	4618      	mov	r0, r3
240035f4:	f000 fdac 	bl	24004150 <RCCEx_PLL3_Config>
240035f8:	4603      	mov	r3, r0
240035fa:	f887 3127 	strb.w	r3, [r7, #295]	@ 0x127
240035fe:	e004      	b.n	2400360a <HAL_RCCEx_PeriphCLKConfig+0xa32>
24003600:	2301      	movs	r3, #1
24003602:	f887 3127 	strb.w	r3, [r7, #295]	@ 0x127
24003606:	e000      	b.n	2400360a <HAL_RCCEx_PeriphCLKConfig+0xa32>
24003608:	bf00      	nop
2400360a:	f897 3127 	ldrb.w	r3, [r7, #295]	@ 0x127
2400360e:	2b00      	cmp	r3, #0
24003610:	d10a      	bne.n	24003628 <HAL_RCCEx_PeriphCLKConfig+0xa50>
24003612:	4bbf      	ldr	r3, [pc, #764]	@ (24003910 <HAL_RCCEx_PeriphCLKConfig+0xd38>)
24003614:	6d5b      	ldr	r3, [r3, #84]	@ 0x54
24003616:	f023 0138 	bic.w	r1, r3, #56	@ 0x38
2400361a:	f8d7 3114 	ldr.w	r3, [r7, #276]	@ 0x114
2400361e:	6fdb      	ldr	r3, [r3, #124]	@ 0x7c
24003620:	4abb      	ldr	r2, [pc, #748]	@ (24003910 <HAL_RCCEx_PeriphCLKConfig+0xd38>)
24003622:	430b      	orrs	r3, r1
24003624:	6553      	str	r3, [r2, #84]	@ 0x54
24003626:	e003      	b.n	24003630 <HAL_RCCEx_PeriphCLKConfig+0xa58>
24003628:	f897 3127 	ldrb.w	r3, [r7, #295]	@ 0x127
2400362c:	f887 3126 	strb.w	r3, [r7, #294]	@ 0x126
24003630:	f8d7 3114 	ldr.w	r3, [r7, #276]	@ 0x114
24003634:	e9d3 2300 	ldrd	r2, r3, [r3]
24003638:	f002 0302 	and.w	r3, r2, #2
2400363c:	f8c7 30b8 	str.w	r3, [r7, #184]	@ 0xb8
24003640:	2300      	movs	r3, #0
24003642:	f8c7 30bc 	str.w	r3, [r7, #188]	@ 0xbc
24003646:	e9d7 122e 	ldrd	r1, r2, [r7, #184]	@ 0xb8
2400364a:	460b      	mov	r3, r1
2400364c:	4313      	orrs	r3, r2
2400364e:	d041      	beq.n	240036d4 <HAL_RCCEx_PeriphCLKConfig+0xafc>
24003650:	f8d7 3114 	ldr.w	r3, [r7, #276]	@ 0x114
24003654:	6f9b      	ldr	r3, [r3, #120]	@ 0x78
24003656:	2b05      	cmp	r3, #5
24003658:	d824      	bhi.n	240036a4 <HAL_RCCEx_PeriphCLKConfig+0xacc>
2400365a:	a201      	add	r2, pc, #4	@ (adr r2, 24003660 <HAL_RCCEx_PeriphCLKConfig+0xa88>)
2400365c:	f852 f023 	ldr.w	pc, [r2, r3, lsl #2]
24003660:	240036ad 	.word	0x240036ad
24003664:	24003679 	.word	0x24003679
24003668:	2400368f 	.word	0x2400368f
2400366c:	240036ad 	.word	0x240036ad
24003670:	240036ad 	.word	0x240036ad
24003674:	240036ad 	.word	0x240036ad
24003678:	f8d7 3114 	ldr.w	r3, [r7, #276]	@ 0x114
2400367c:	3308      	adds	r3, #8
2400367e:	2101      	movs	r1, #1
24003680:	4618      	mov	r0, r3
24003682:	f000 fcb3 	bl	24003fec <RCCEx_PLL2_Config>
24003686:	4603      	mov	r3, r0
24003688:	f887 3127 	strb.w	r3, [r7, #295]	@ 0x127
2400368c:	e00f      	b.n	240036ae <HAL_RCCEx_PeriphCLKConfig+0xad6>
2400368e:	f8d7 3114 	ldr.w	r3, [r7, #276]	@ 0x114
24003692:	3328      	adds	r3, #40	@ 0x28
24003694:	2101      	movs	r1, #1
24003696:	4618      	mov	r0, r3
24003698:	f000 fd5a 	bl	24004150 <RCCEx_PLL3_Config>
2400369c:	4603      	mov	r3, r0
2400369e:	f887 3127 	strb.w	r3, [r7, #295]	@ 0x127
240036a2:	e004      	b.n	240036ae <HAL_RCCEx_PeriphCLKConfig+0xad6>
240036a4:	2301      	movs	r3, #1
240036a6:	f887 3127 	strb.w	r3, [r7, #295]	@ 0x127
240036aa:	e000      	b.n	240036ae <HAL_RCCEx_PeriphCLKConfig+0xad6>
240036ac:	bf00      	nop
240036ae:	f897 3127 	ldrb.w	r3, [r7, #295]	@ 0x127
240036b2:	2b00      	cmp	r3, #0
240036b4:	d10a      	bne.n	240036cc <HAL_RCCEx_PeriphCLKConfig+0xaf4>
240036b6:	4b96      	ldr	r3, [pc, #600]	@ (24003910 <HAL_RCCEx_PeriphCLKConfig+0xd38>)
240036b8:	6d5b      	ldr	r3, [r3, #84]	@ 0x54
240036ba:	f023 0107 	bic.w	r1, r3, #7
240036be:	f8d7 3114 	ldr.w	r3, [r7, #276]	@ 0x114
240036c2:	6f9b      	ldr	r3, [r3, #120]	@ 0x78
240036c4:	4a92      	ldr	r2, [pc, #584]	@ (24003910 <HAL_RCCEx_PeriphCLKConfig+0xd38>)
240036c6:	430b      	orrs	r3, r1
240036c8:	6553      	str	r3, [r2, #84]	@ 0x54
240036ca:	e003      	b.n	240036d4 <HAL_RCCEx_PeriphCLKConfig+0xafc>
240036cc:	f897 3127 	ldrb.w	r3, [r7, #295]	@ 0x127
240036d0:	f887 3126 	strb.w	r3, [r7, #294]	@ 0x126
240036d4:	f8d7 3114 	ldr.w	r3, [r7, #276]	@ 0x114
240036d8:	e9d3 2300 	ldrd	r2, r3, [r3]
240036dc:	f002 0304 	and.w	r3, r2, #4
240036e0:	f8c7 30b0 	str.w	r3, [r7, #176]	@ 0xb0
240036e4:	2300      	movs	r3, #0
240036e6:	f8c7 30b4 	str.w	r3, [r7, #180]	@ 0xb4
240036ea:	e9d7 122c 	ldrd	r1, r2, [r7, #176]	@ 0xb0
240036ee:	460b      	mov	r3, r1
240036f0:	4313      	orrs	r3, r2
240036f2:	d044      	beq.n	2400377e <HAL_RCCEx_PeriphCLKConfig+0xba6>
240036f4:	f8d7 3114 	ldr.w	r3, [r7, #276]	@ 0x114
240036f8:	f8d3 3094 	ldr.w	r3, [r3, #148]	@ 0x94
240036fc:	2b05      	cmp	r3, #5
240036fe:	d825      	bhi.n	2400374c <HAL_RCCEx_PeriphCLKConfig+0xb74>
24003700:	a201      	add	r2, pc, #4	@ (adr r2, 24003708 <HAL_RCCEx_PeriphCLKConfig+0xb30>)
24003702:	f852 f023 	ldr.w	pc, [r2, r3, lsl #2]
24003706:	bf00      	nop
24003708:	24003755 	.word	0x24003755
2400370c:	24003721 	.word	0x24003721
24003710:	24003737 	.word	0x24003737
24003714:	24003755 	.word	0x24003755
24003718:	24003755 	.word	0x24003755
2400371c:	24003755 	.word	0x24003755
24003720:	f8d7 3114 	ldr.w	r3, [r7, #276]	@ 0x114
24003724:	3308      	adds	r3, #8
24003726:	2101      	movs	r1, #1
24003728:	4618      	mov	r0, r3
2400372a:	f000 fc5f 	bl	24003fec <RCCEx_PLL2_Config>
2400372e:	4603      	mov	r3, r0
24003730:	f887 3127 	strb.w	r3, [r7, #295]	@ 0x127
24003734:	e00f      	b.n	24003756 <HAL_RCCEx_PeriphCLKConfig+0xb7e>
24003736:	f8d7 3114 	ldr.w	r3, [r7, #276]	@ 0x114
2400373a:	3328      	adds	r3, #40	@ 0x28
2400373c:	2101      	movs	r1, #1
2400373e:	4618      	mov	r0, r3
24003740:	f000 fd06 	bl	24004150 <RCCEx_PLL3_Config>
24003744:	4603      	mov	r3, r0
24003746:	f887 3127 	strb.w	r3, [r7, #295]	@ 0x127
2400374a:	e004      	b.n	24003756 <HAL_RCCEx_PeriphCLKConfig+0xb7e>
2400374c:	2301      	movs	r3, #1
2400374e:	f887 3127 	strb.w	r3, [r7, #295]	@ 0x127
24003752:	e000      	b.n	24003756 <HAL_RCCEx_PeriphCLKConfig+0xb7e>
24003754:	bf00      	nop
24003756:	f897 3127 	ldrb.w	r3, [r7, #295]	@ 0x127
2400375a:	2b00      	cmp	r3, #0
2400375c:	d10b      	bne.n	24003776 <HAL_RCCEx_PeriphCLKConfig+0xb9e>
2400375e:	4b6c      	ldr	r3, [pc, #432]	@ (24003910 <HAL_RCCEx_PeriphCLKConfig+0xd38>)
24003760:	6d9b      	ldr	r3, [r3, #88]	@ 0x58
24003762:	f023 0107 	bic.w	r1, r3, #7
24003766:	f8d7 3114 	ldr.w	r3, [r7, #276]	@ 0x114
2400376a:	f8d3 3094 	ldr.w	r3, [r3, #148]	@ 0x94
2400376e:	4a68      	ldr	r2, [pc, #416]	@ (24003910 <HAL_RCCEx_PeriphCLKConfig+0xd38>)
24003770:	430b      	orrs	r3, r1
24003772:	6593      	str	r3, [r2, #88]	@ 0x58
24003774:	e003      	b.n	2400377e <HAL_RCCEx_PeriphCLKConfig+0xba6>
24003776:	f897 3127 	ldrb.w	r3, [r7, #295]	@ 0x127
2400377a:	f887 3126 	strb.w	r3, [r7, #294]	@ 0x126
2400377e:	f8d7 3114 	ldr.w	r3, [r7, #276]	@ 0x114
24003782:	e9d3 2300 	ldrd	r2, r3, [r3]
24003786:	f002 0320 	and.w	r3, r2, #32
2400378a:	f8c7 30a8 	str.w	r3, [r7, #168]	@ 0xa8
2400378e:	2300      	movs	r3, #0
24003790:	f8c7 30ac 	str.w	r3, [r7, #172]	@ 0xac
24003794:	e9d7 122a 	ldrd	r1, r2, [r7, #168]	@ 0xa8
24003798:	460b      	mov	r3, r1
2400379a:	4313      	orrs	r3, r2
2400379c:	d055      	beq.n	2400384a <HAL_RCCEx_PeriphCLKConfig+0xc72>
2400379e:	f8d7 3114 	ldr.w	r3, [r7, #276]	@ 0x114
240037a2:	f8d3 3090 	ldr.w	r3, [r3, #144]	@ 0x90
240037a6:	f1b3 4fa0 	cmp.w	r3, #1342177280	@ 0x50000000
240037aa:	d033      	beq.n	24003814 <HAL_RCCEx_PeriphCLKConfig+0xc3c>
240037ac:	f1b3 4fa0 	cmp.w	r3, #1342177280	@ 0x50000000
240037b0:	d82c      	bhi.n	2400380c <HAL_RCCEx_PeriphCLKConfig+0xc34>
240037b2:	f1b3 4f80 	cmp.w	r3, #1073741824	@ 0x40000000
240037b6:	d02f      	beq.n	24003818 <HAL_RCCEx_PeriphCLKConfig+0xc40>
240037b8:	f1b3 4f80 	cmp.w	r3, #1073741824	@ 0x40000000
240037bc:	d826      	bhi.n	2400380c <HAL_RCCEx_PeriphCLKConfig+0xc34>
240037be:	f1b3 5f40 	cmp.w	r3, #805306368	@ 0x30000000
240037c2:	d02b      	beq.n	2400381c <HAL_RCCEx_PeriphCLKConfig+0xc44>
240037c4:	f1b3 5f40 	cmp.w	r3, #805306368	@ 0x30000000
240037c8:	d820      	bhi.n	2400380c <HAL_RCCEx_PeriphCLKConfig+0xc34>
240037ca:	f1b3 5f00 	cmp.w	r3, #536870912	@ 0x20000000
240037ce:	d012      	beq.n	240037f6 <HAL_RCCEx_PeriphCLKConfig+0xc1e>
240037d0:	f1b3 5f00 	cmp.w	r3, #536870912	@ 0x20000000
240037d4:	d81a      	bhi.n	2400380c <HAL_RCCEx_PeriphCLKConfig+0xc34>
240037d6:	2b00      	cmp	r3, #0
240037d8:	d022      	beq.n	24003820 <HAL_RCCEx_PeriphCLKConfig+0xc48>
240037da:	f1b3 5f80 	cmp.w	r3, #268435456	@ 0x10000000
240037de:	d115      	bne.n	2400380c <HAL_RCCEx_PeriphCLKConfig+0xc34>
240037e0:	f8d7 3114 	ldr.w	r3, [r7, #276]	@ 0x114
240037e4:	3308      	adds	r3, #8
240037e6:	2100      	movs	r1, #0
240037e8:	4618      	mov	r0, r3
240037ea:	f000 fbff 	bl	24003fec <RCCEx_PLL2_Config>
240037ee:	4603      	mov	r3, r0
240037f0:	f887 3127 	strb.w	r3, [r7, #295]	@ 0x127
240037f4:	e015      	b.n	24003822 <HAL_RCCEx_PeriphCLKConfig+0xc4a>
240037f6:	f8d7 3114 	ldr.w	r3, [r7, #276]	@ 0x114
240037fa:	3328      	adds	r3, #40	@ 0x28
240037fc:	2102      	movs	r1, #2
240037fe:	4618      	mov	r0, r3
24003800:	f000 fca6 	bl	24004150 <RCCEx_PLL3_Config>
24003804:	4603      	mov	r3, r0
24003806:	f887 3127 	strb.w	r3, [r7, #295]	@ 0x127
2400380a:	e00a      	b.n	24003822 <HAL_RCCEx_PeriphCLKConfig+0xc4a>
2400380c:	2301      	movs	r3, #1
2400380e:	f887 3127 	strb.w	r3, [r7, #295]	@ 0x127
24003812:	e006      	b.n	24003822 <HAL_RCCEx_PeriphCLKConfig+0xc4a>
24003814:	bf00      	nop
24003816:	e004      	b.n	24003822 <HAL_RCCEx_PeriphCLKConfig+0xc4a>
24003818:	bf00      	nop
2400381a:	e002      	b.n	24003822 <HAL_RCCEx_PeriphCLKConfig+0xc4a>
2400381c:	bf00      	nop
2400381e:	e000      	b.n	24003822 <HAL_RCCEx_PeriphCLKConfig+0xc4a>
24003820:	bf00      	nop
24003822:	f897 3127 	ldrb.w	r3, [r7, #295]	@ 0x127
24003826:	2b00      	cmp	r3, #0
24003828:	d10b      	bne.n	24003842 <HAL_RCCEx_PeriphCLKConfig+0xc6a>
2400382a:	4b39      	ldr	r3, [pc, #228]	@ (24003910 <HAL_RCCEx_PeriphCLKConfig+0xd38>)
2400382c:	6d5b      	ldr	r3, [r3, #84]	@ 0x54
2400382e:	f023 41e0 	bic.w	r1, r3, #1879048192	@ 0x70000000
24003832:	f8d7 3114 	ldr.w	r3, [r7, #276]	@ 0x114
24003836:	f8d3 3090 	ldr.w	r3, [r3, #144]	@ 0x90
2400383a:	4a35      	ldr	r2, [pc, #212]	@ (24003910 <HAL_RCCEx_PeriphCLKConfig+0xd38>)
2400383c:	430b      	orrs	r3, r1
2400383e:	6553      	str	r3, [r2, #84]	@ 0x54
24003840:	e003      	b.n	2400384a <HAL_RCCEx_PeriphCLKConfig+0xc72>
24003842:	f897 3127 	ldrb.w	r3, [r7, #295]	@ 0x127
24003846:	f887 3126 	strb.w	r3, [r7, #294]	@ 0x126
2400384a:	f8d7 3114 	ldr.w	r3, [r7, #276]	@ 0x114
2400384e:	e9d3 2300 	ldrd	r2, r3, [r3]
24003852:	f002 0340 	and.w	r3, r2, #64	@ 0x40
24003856:	f8c7 30a0 	str.w	r3, [r7, #160]	@ 0xa0
2400385a:	2300      	movs	r3, #0
2400385c:	f8c7 30a4 	str.w	r3, [r7, #164]	@ 0xa4
24003860:	e9d7 1228 	ldrd	r1, r2, [r7, #160]	@ 0xa0
24003864:	460b      	mov	r3, r1
24003866:	4313      	orrs	r3, r2
24003868:	d058      	beq.n	2400391c <HAL_RCCEx_PeriphCLKConfig+0xd44>
2400386a:	f8d7 3114 	ldr.w	r3, [r7, #276]	@ 0x114
2400386e:	f8d3 309c 	ldr.w	r3, [r3, #156]	@ 0x9c
24003872:	f5b3 5fa0 	cmp.w	r3, #5120	@ 0x1400
24003876:	d033      	beq.n	240038e0 <HAL_RCCEx_PeriphCLKConfig+0xd08>
24003878:	f5b3 5fa0 	cmp.w	r3, #5120	@ 0x1400
2400387c:	d82c      	bhi.n	240038d8 <HAL_RCCEx_PeriphCLKConfig+0xd00>
2400387e:	f5b3 5f80 	cmp.w	r3, #4096	@ 0x1000
24003882:	d02f      	beq.n	240038e4 <HAL_RCCEx_PeriphCLKConfig+0xd0c>
24003884:	f5b3 5f80 	cmp.w	r3, #4096	@ 0x1000
24003888:	d826      	bhi.n	240038d8 <HAL_RCCEx_PeriphCLKConfig+0xd00>
2400388a:	f5b3 6f40 	cmp.w	r3, #3072	@ 0xc00
2400388e:	d02b      	beq.n	240038e8 <HAL_RCCEx_PeriphCLKConfig+0xd10>
24003890:	f5b3 6f40 	cmp.w	r3, #3072	@ 0xc00
24003894:	d820      	bhi.n	240038d8 <HAL_RCCEx_PeriphCLKConfig+0xd00>
24003896:	f5b3 6f00 	cmp.w	r3, #2048	@ 0x800
2400389a:	d012      	beq.n	240038c2 <HAL_RCCEx_PeriphCLKConfig+0xcea>
2400389c:	f5b3 6f00 	cmp.w	r3, #2048	@ 0x800
240038a0:	d81a      	bhi.n	240038d8 <HAL_RCCEx_PeriphCLKConfig+0xd00>
240038a2:	2b00      	cmp	r3, #0
240038a4:	d022      	beq.n	240038ec <HAL_RCCEx_PeriphCLKConfig+0xd14>
240038a6:	f5b3 6f80 	cmp.w	r3, #1024	@ 0x400
240038aa:	d115      	bne.n	240038d8 <HAL_RCCEx_PeriphCLKConfig+0xd00>
240038ac:	f8d7 3114 	ldr.w	r3, [r7, #276]	@ 0x114
240038b0:	3308      	adds	r3, #8
240038b2:	2100      	movs	r1, #0
240038b4:	4618      	mov	r0, r3
240038b6:	f000 fb99 	bl	24003fec <RCCEx_PLL2_Config>
240038ba:	4603      	mov	r3, r0
240038bc:	f887 3127 	strb.w	r3, [r7, #295]	@ 0x127
240038c0:	e015      	b.n	240038ee <HAL_RCCEx_PeriphCLKConfig+0xd16>
240038c2:	f8d7 3114 	ldr.w	r3, [r7, #276]	@ 0x114
240038c6:	3328      	adds	r3, #40	@ 0x28
240038c8:	2102      	movs	r1, #2
240038ca:	4618      	mov	r0, r3
240038cc:	f000 fc40 	bl	24004150 <RCCEx_PLL3_Config>
240038d0:	4603      	mov	r3, r0
240038d2:	f887 3127 	strb.w	r3, [r7, #295]	@ 0x127
240038d6:	e00a      	b.n	240038ee <HAL_RCCEx_PeriphCLKConfig+0xd16>
240038d8:	2301      	movs	r3, #1
240038da:	f887 3127 	strb.w	r3, [r7, #295]	@ 0x127
240038de:	e006      	b.n	240038ee <HAL_RCCEx_PeriphCLKConfig+0xd16>
240038e0:	bf00      	nop
240038e2:	e004      	b.n	240038ee <HAL_RCCEx_PeriphCLKConfig+0xd16>
240038e4:	bf00      	nop
240038e6:	e002      	b.n	240038ee <HAL_RCCEx_PeriphCLKConfig+0xd16>
240038e8:	bf00      	nop
240038ea:	e000      	b.n	240038ee <HAL_RCCEx_PeriphCLKConfig+0xd16>
240038ec:	bf00      	nop
240038ee:	f897 3127 	ldrb.w	r3, [r7, #295]	@ 0x127
240038f2:	2b00      	cmp	r3, #0
240038f4:	d10e      	bne.n	24003914 <HAL_RCCEx_PeriphCLKConfig+0xd3c>
240038f6:	4b06      	ldr	r3, [pc, #24]	@ (24003910 <HAL_RCCEx_PeriphCLKConfig+0xd38>)
240038f8:	6d9b      	ldr	r3, [r3, #88]	@ 0x58
240038fa:	f423 51e0 	bic.w	r1, r3, #7168	@ 0x1c00
240038fe:	f8d7 3114 	ldr.w	r3, [r7, #276]	@ 0x114
24003902:	f8d3 309c 	ldr.w	r3, [r3, #156]	@ 0x9c
24003906:	4a02      	ldr	r2, [pc, #8]	@ (24003910 <HAL_RCCEx_PeriphCLKConfig+0xd38>)
24003908:	430b      	orrs	r3, r1
2400390a:	6593      	str	r3, [r2, #88]	@ 0x58
2400390c:	e006      	b.n	2400391c <HAL_RCCEx_PeriphCLKConfig+0xd44>
2400390e:	bf00      	nop
24003910:	58024400 	.word	0x58024400
24003914:	f897 3127 	ldrb.w	r3, [r7, #295]	@ 0x127
24003918:	f887 3126 	strb.w	r3, [r7, #294]	@ 0x126
2400391c:	f8d7 3114 	ldr.w	r3, [r7, #276]	@ 0x114
24003920:	e9d3 2300 	ldrd	r2, r3, [r3]
24003924:	f002 0380 	and.w	r3, r2, #128	@ 0x80
24003928:	f8c7 3098 	str.w	r3, [r7, #152]	@ 0x98
2400392c:	2300      	movs	r3, #0
2400392e:	f8c7 309c 	str.w	r3, [r7, #156]	@ 0x9c
24003932:	e9d7 1226 	ldrd	r1, r2, [r7, #152]	@ 0x98
24003936:	460b      	mov	r3, r1
24003938:	4313      	orrs	r3, r2
2400393a:	d055      	beq.n	240039e8 <HAL_RCCEx_PeriphCLKConfig+0xe10>
2400393c:	f8d7 3114 	ldr.w	r3, [r7, #276]	@ 0x114
24003940:	f8d3 30a0 	ldr.w	r3, [r3, #160]	@ 0xa0
24003944:	f5b3 4f20 	cmp.w	r3, #40960	@ 0xa000
24003948:	d033      	beq.n	240039b2 <HAL_RCCEx_PeriphCLKConfig+0xdda>
2400394a:	f5b3 4f20 	cmp.w	r3, #40960	@ 0xa000
2400394e:	d82c      	bhi.n	240039aa <HAL_RCCEx_PeriphCLKConfig+0xdd2>
24003950:	f5b3 4f00 	cmp.w	r3, #32768	@ 0x8000
24003954:	d02f      	beq.n	240039b6 <HAL_RCCEx_PeriphCLKConfig+0xdde>
24003956:	f5b3 4f00 	cmp.w	r3, #32768	@ 0x8000
2400395a:	d826      	bhi.n	240039aa <HAL_RCCEx_PeriphCLKConfig+0xdd2>
2400395c:	f5b3 4fc0 	cmp.w	r3, #24576	@ 0x6000
24003960:	d02b      	beq.n	240039ba <HAL_RCCEx_PeriphCLKConfig+0xde2>
24003962:	f5b3 4fc0 	cmp.w	r3, #24576	@ 0x6000
24003966:	d820      	bhi.n	240039aa <HAL_RCCEx_PeriphCLKConfig+0xdd2>
24003968:	f5b3 4f80 	cmp.w	r3, #16384	@ 0x4000
2400396c:	d012      	beq.n	24003994 <HAL_RCCEx_PeriphCLKConfig+0xdbc>
2400396e:	f5b3 4f80 	cmp.w	r3, #16384	@ 0x4000
24003972:	d81a      	bhi.n	240039aa <HAL_RCCEx_PeriphCLKConfig+0xdd2>
24003974:	2b00      	cmp	r3, #0
24003976:	d022      	beq.n	240039be <HAL_RCCEx_PeriphCLKConfig+0xde6>
24003978:	f5b3 5f00 	cmp.w	r3, #8192	@ 0x2000
2400397c:	d115      	bne.n	240039aa <HAL_RCCEx_PeriphCLKConfig+0xdd2>
2400397e:	f8d7 3114 	ldr.w	r3, [r7, #276]	@ 0x114
24003982:	3308      	adds	r3, #8
24003984:	2100      	movs	r1, #0
24003986:	4618      	mov	r0, r3
24003988:	f000 fb30 	bl	24003fec <RCCEx_PLL2_Config>
2400398c:	4603      	mov	r3, r0
2400398e:	f887 3127 	strb.w	r3, [r7, #295]	@ 0x127
24003992:	e015      	b.n	240039c0 <HAL_RCCEx_PeriphCLKConfig+0xde8>
24003994:	f8d7 3114 	ldr.w	r3, [r7, #276]	@ 0x114
24003998:	3328      	adds	r3, #40	@ 0x28
2400399a:	2102      	movs	r1, #2
2400399c:	4618      	mov	r0, r3
2400399e:	f000 fbd7 	bl	24004150 <RCCEx_PLL3_Config>
240039a2:	4603      	mov	r3, r0
240039a4:	f887 3127 	strb.w	r3, [r7, #295]	@ 0x127
240039a8:	e00a      	b.n	240039c0 <HAL_RCCEx_PeriphCLKConfig+0xde8>
240039aa:	2301      	movs	r3, #1
240039ac:	f887 3127 	strb.w	r3, [r7, #295]	@ 0x127
240039b0:	e006      	b.n	240039c0 <HAL_RCCEx_PeriphCLKConfig+0xde8>
240039b2:	bf00      	nop
240039b4:	e004      	b.n	240039c0 <HAL_RCCEx_PeriphCLKConfig+0xde8>
240039b6:	bf00      	nop
240039b8:	e002      	b.n	240039c0 <HAL_RCCEx_PeriphCLKConfig+0xde8>
240039ba:	bf00      	nop
240039bc:	e000      	b.n	240039c0 <HAL_RCCEx_PeriphCLKConfig+0xde8>
240039be:	bf00      	nop
240039c0:	f897 3127 	ldrb.w	r3, [r7, #295]	@ 0x127
240039c4:	2b00      	cmp	r3, #0
240039c6:	d10b      	bne.n	240039e0 <HAL_RCCEx_PeriphCLKConfig+0xe08>
240039c8:	4ba1      	ldr	r3, [pc, #644]	@ (24003c50 <HAL_RCCEx_PeriphCLKConfig+0x1078>)
240039ca:	6d9b      	ldr	r3, [r3, #88]	@ 0x58
240039cc:	f423 4160 	bic.w	r1, r3, #57344	@ 0xe000
240039d0:	f8d7 3114 	ldr.w	r3, [r7, #276]	@ 0x114
240039d4:	f8d3 30a0 	ldr.w	r3, [r3, #160]	@ 0xa0
240039d8:	4a9d      	ldr	r2, [pc, #628]	@ (24003c50 <HAL_RCCEx_PeriphCLKConfig+0x1078>)
240039da:	430b      	orrs	r3, r1
240039dc:	6593      	str	r3, [r2, #88]	@ 0x58
240039de:	e003      	b.n	240039e8 <HAL_RCCEx_PeriphCLKConfig+0xe10>
240039e0:	f897 3127 	ldrb.w	r3, [r7, #295]	@ 0x127
240039e4:	f887 3126 	strb.w	r3, [r7, #294]	@ 0x126
240039e8:	f8d7 3114 	ldr.w	r3, [r7, #276]	@ 0x114
240039ec:	e9d3 2300 	ldrd	r2, r3, [r3]
240039f0:	f002 0308 	and.w	r3, r2, #8
240039f4:	f8c7 3090 	str.w	r3, [r7, #144]	@ 0x90
240039f8:	2300      	movs	r3, #0
240039fa:	f8c7 3094 	str.w	r3, [r7, #148]	@ 0x94
240039fe:	e9d7 1224 	ldrd	r1, r2, [r7, #144]	@ 0x90
24003a02:	460b      	mov	r3, r1
24003a04:	4313      	orrs	r3, r2
24003a06:	d01e      	beq.n	24003a46 <HAL_RCCEx_PeriphCLKConfig+0xe6e>
24003a08:	f8d7 3114 	ldr.w	r3, [r7, #276]	@ 0x114
24003a0c:	f8d3 3084 	ldr.w	r3, [r3, #132]	@ 0x84
24003a10:	f5b3 5f80 	cmp.w	r3, #4096	@ 0x1000
24003a14:	d10c      	bne.n	24003a30 <HAL_RCCEx_PeriphCLKConfig+0xe58>
24003a16:	f8d7 3114 	ldr.w	r3, [r7, #276]	@ 0x114
24003a1a:	3328      	adds	r3, #40	@ 0x28
24003a1c:	2102      	movs	r1, #2
24003a1e:	4618      	mov	r0, r3
24003a20:	f000 fb96 	bl	24004150 <RCCEx_PLL3_Config>
24003a24:	4603      	mov	r3, r0
24003a26:	2b00      	cmp	r3, #0
24003a28:	d002      	beq.n	24003a30 <HAL_RCCEx_PeriphCLKConfig+0xe58>
24003a2a:	2301      	movs	r3, #1
24003a2c:	f887 3126 	strb.w	r3, [r7, #294]	@ 0x126
24003a30:	4b87      	ldr	r3, [pc, #540]	@ (24003c50 <HAL_RCCEx_PeriphCLKConfig+0x1078>)
24003a32:	6d5b      	ldr	r3, [r3, #84]	@ 0x54
24003a34:	f423 5140 	bic.w	r1, r3, #12288	@ 0x3000
24003a38:	f8d7 3114 	ldr.w	r3, [r7, #276]	@ 0x114
24003a3c:	f8d3 3084 	ldr.w	r3, [r3, #132]	@ 0x84
24003a40:	4a83      	ldr	r2, [pc, #524]	@ (24003c50 <HAL_RCCEx_PeriphCLKConfig+0x1078>)
24003a42:	430b      	orrs	r3, r1
24003a44:	6553      	str	r3, [r2, #84]	@ 0x54
24003a46:	f8d7 3114 	ldr.w	r3, [r7, #276]	@ 0x114
24003a4a:	e9d3 2300 	ldrd	r2, r3, [r3]
24003a4e:	f002 0310 	and.w	r3, r2, #16
24003a52:	f8c7 3088 	str.w	r3, [r7, #136]	@ 0x88
24003a56:	2300      	movs	r3, #0
24003a58:	f8c7 308c 	str.w	r3, [r7, #140]	@ 0x8c
24003a5c:	e9d7 1222 	ldrd	r1, r2, [r7, #136]	@ 0x88
24003a60:	460b      	mov	r3, r1
24003a62:	4313      	orrs	r3, r2
24003a64:	d01e      	beq.n	24003aa4 <HAL_RCCEx_PeriphCLKConfig+0xecc>
24003a66:	f8d7 3114 	ldr.w	r3, [r7, #276]	@ 0x114
24003a6a:	f8d3 3098 	ldr.w	r3, [r3, #152]	@ 0x98
24003a6e:	f5b3 7f80 	cmp.w	r3, #256	@ 0x100
24003a72:	d10c      	bne.n	24003a8e <HAL_RCCEx_PeriphCLKConfig+0xeb6>
24003a74:	f8d7 3114 	ldr.w	r3, [r7, #276]	@ 0x114
24003a78:	3328      	adds	r3, #40	@ 0x28
24003a7a:	2102      	movs	r1, #2
24003a7c:	4618      	mov	r0, r3
24003a7e:	f000 fb67 	bl	24004150 <RCCEx_PLL3_Config>
24003a82:	4603      	mov	r3, r0
24003a84:	2b00      	cmp	r3, #0
24003a86:	d002      	beq.n	24003a8e <HAL_RCCEx_PeriphCLKConfig+0xeb6>
24003a88:	2301      	movs	r3, #1
24003a8a:	f887 3126 	strb.w	r3, [r7, #294]	@ 0x126
24003a8e:	4b70      	ldr	r3, [pc, #448]	@ (24003c50 <HAL_RCCEx_PeriphCLKConfig+0x1078>)
24003a90:	6d9b      	ldr	r3, [r3, #88]	@ 0x58
24003a92:	f423 7140 	bic.w	r1, r3, #768	@ 0x300
24003a96:	f8d7 3114 	ldr.w	r3, [r7, #276]	@ 0x114
24003a9a:	f8d3 3098 	ldr.w	r3, [r3, #152]	@ 0x98
24003a9e:	4a6c      	ldr	r2, [pc, #432]	@ (24003c50 <HAL_RCCEx_PeriphCLKConfig+0x1078>)
24003aa0:	430b      	orrs	r3, r1
24003aa2:	6593      	str	r3, [r2, #88]	@ 0x58
24003aa4:	f8d7 3114 	ldr.w	r3, [r7, #276]	@ 0x114
24003aa8:	e9d3 2300 	ldrd	r2, r3, [r3]
24003aac:	f402 2300 	and.w	r3, r2, #524288	@ 0x80000
24003ab0:	f8c7 3080 	str.w	r3, [r7, #128]	@ 0x80
24003ab4:	2300      	movs	r3, #0
24003ab6:	f8c7 3084 	str.w	r3, [r7, #132]	@ 0x84
24003aba:	e9d7 1220 	ldrd	r1, r2, [r7, #128]	@ 0x80
24003abe:	460b      	mov	r3, r1
24003ac0:	4313      	orrs	r3, r2
24003ac2:	d03e      	beq.n	24003b42 <HAL_RCCEx_PeriphCLKConfig+0xf6a>
24003ac4:	f8d7 3114 	ldr.w	r3, [r7, #276]	@ 0x114
24003ac8:	f8d3 30a4 	ldr.w	r3, [r3, #164]	@ 0xa4
24003acc:	f5b3 3f00 	cmp.w	r3, #131072	@ 0x20000
24003ad0:	d022      	beq.n	24003b18 <HAL_RCCEx_PeriphCLKConfig+0xf40>
24003ad2:	f5b3 3f00 	cmp.w	r3, #131072	@ 0x20000
24003ad6:	d81b      	bhi.n	24003b10 <HAL_RCCEx_PeriphCLKConfig+0xf38>
24003ad8:	2b00      	cmp	r3, #0
24003ada:	d003      	beq.n	24003ae4 <HAL_RCCEx_PeriphCLKConfig+0xf0c>
24003adc:	f5b3 3f80 	cmp.w	r3, #65536	@ 0x10000
24003ae0:	d00b      	beq.n	24003afa <HAL_RCCEx_PeriphCLKConfig+0xf22>
24003ae2:	e015      	b.n	24003b10 <HAL_RCCEx_PeriphCLKConfig+0xf38>
24003ae4:	f8d7 3114 	ldr.w	r3, [r7, #276]	@ 0x114
24003ae8:	3308      	adds	r3, #8
24003aea:	2100      	movs	r1, #0
24003aec:	4618      	mov	r0, r3
24003aee:	f000 fa7d 	bl	24003fec <RCCEx_PLL2_Config>
24003af2:	4603      	mov	r3, r0
24003af4:	f887 3127 	strb.w	r3, [r7, #295]	@ 0x127
24003af8:	e00f      	b.n	24003b1a <HAL_RCCEx_PeriphCLKConfig+0xf42>
24003afa:	f8d7 3114 	ldr.w	r3, [r7, #276]	@ 0x114
24003afe:	3328      	adds	r3, #40	@ 0x28
24003b00:	2102      	movs	r1, #2
24003b02:	4618      	mov	r0, r3
24003b04:	f000 fb24 	bl	24004150 <RCCEx_PLL3_Config>
24003b08:	4603      	mov	r3, r0
24003b0a:	f887 3127 	strb.w	r3, [r7, #295]	@ 0x127
24003b0e:	e004      	b.n	24003b1a <HAL_RCCEx_PeriphCLKConfig+0xf42>
24003b10:	2301      	movs	r3, #1
24003b12:	f887 3127 	strb.w	r3, [r7, #295]	@ 0x127
24003b16:	e000      	b.n	24003b1a <HAL_RCCEx_PeriphCLKConfig+0xf42>
24003b18:	bf00      	nop
24003b1a:	f897 3127 	ldrb.w	r3, [r7, #295]	@ 0x127
24003b1e:	2b00      	cmp	r3, #0
24003b20:	d10b      	bne.n	24003b3a <HAL_RCCEx_PeriphCLKConfig+0xf62>
24003b22:	4b4b      	ldr	r3, [pc, #300]	@ (24003c50 <HAL_RCCEx_PeriphCLKConfig+0x1078>)
24003b24:	6d9b      	ldr	r3, [r3, #88]	@ 0x58
24003b26:	f423 3140 	bic.w	r1, r3, #196608	@ 0x30000
24003b2a:	f8d7 3114 	ldr.w	r3, [r7, #276]	@ 0x114
24003b2e:	f8d3 30a4 	ldr.w	r3, [r3, #164]	@ 0xa4
24003b32:	4a47      	ldr	r2, [pc, #284]	@ (24003c50 <HAL_RCCEx_PeriphCLKConfig+0x1078>)
24003b34:	430b      	orrs	r3, r1
24003b36:	6593      	str	r3, [r2, #88]	@ 0x58
24003b38:	e003      	b.n	24003b42 <HAL_RCCEx_PeriphCLKConfig+0xf6a>
24003b3a:	f897 3127 	ldrb.w	r3, [r7, #295]	@ 0x127
24003b3e:	f887 3126 	strb.w	r3, [r7, #294]	@ 0x126
24003b42:	f8d7 3114 	ldr.w	r3, [r7, #276]	@ 0x114
24003b46:	e9d3 2300 	ldrd	r2, r3, [r3]
24003b4a:	f402 2380 	and.w	r3, r2, #262144	@ 0x40000
24003b4e:	67bb      	str	r3, [r7, #120]	@ 0x78
24003b50:	2300      	movs	r3, #0
24003b52:	67fb      	str	r3, [r7, #124]	@ 0x7c
24003b54:	e9d7 121e 	ldrd	r1, r2, [r7, #120]	@ 0x78
24003b58:	460b      	mov	r3, r1
24003b5a:	4313      	orrs	r3, r2
24003b5c:	d03b      	beq.n	24003bd6 <HAL_RCCEx_PeriphCLKConfig+0xffe>
24003b5e:	f8d7 3114 	ldr.w	r3, [r7, #276]	@ 0x114
24003b62:	f8d3 3088 	ldr.w	r3, [r3, #136]	@ 0x88
24003b66:	f5b3 1f40 	cmp.w	r3, #3145728	@ 0x300000
24003b6a:	d01f      	beq.n	24003bac <HAL_RCCEx_PeriphCLKConfig+0xfd4>
24003b6c:	f5b3 1f40 	cmp.w	r3, #3145728	@ 0x300000
24003b70:	d818      	bhi.n	24003ba4 <HAL_RCCEx_PeriphCLKConfig+0xfcc>
24003b72:	f5b3 1f80 	cmp.w	r3, #1048576	@ 0x100000
24003b76:	d003      	beq.n	24003b80 <HAL_RCCEx_PeriphCLKConfig+0xfa8>
24003b78:	f5b3 1f00 	cmp.w	r3, #2097152	@ 0x200000
24003b7c:	d007      	beq.n	24003b8e <HAL_RCCEx_PeriphCLKConfig+0xfb6>
24003b7e:	e011      	b.n	24003ba4 <HAL_RCCEx_PeriphCLKConfig+0xfcc>
24003b80:	4b33      	ldr	r3, [pc, #204]	@ (24003c50 <HAL_RCCEx_PeriphCLKConfig+0x1078>)
24003b82:	6adb      	ldr	r3, [r3, #44]	@ 0x2c
24003b84:	4a32      	ldr	r2, [pc, #200]	@ (24003c50 <HAL_RCCEx_PeriphCLKConfig+0x1078>)
24003b86:	f443 3300 	orr.w	r3, r3, #131072	@ 0x20000
24003b8a:	62d3      	str	r3, [r2, #44]	@ 0x2c
24003b8c:	e00f      	b.n	24003bae <HAL_RCCEx_PeriphCLKConfig+0xfd6>
24003b8e:	f8d7 3114 	ldr.w	r3, [r7, #276]	@ 0x114
24003b92:	3328      	adds	r3, #40	@ 0x28
24003b94:	2101      	movs	r1, #1
24003b96:	4618      	mov	r0, r3
24003b98:	f000 fada 	bl	24004150 <RCCEx_PLL3_Config>
24003b9c:	4603      	mov	r3, r0
24003b9e:	f887 3127 	strb.w	r3, [r7, #295]	@ 0x127
24003ba2:	e004      	b.n	24003bae <HAL_RCCEx_PeriphCLKConfig+0xfd6>
24003ba4:	2301      	movs	r3, #1
24003ba6:	f887 3127 	strb.w	r3, [r7, #295]	@ 0x127
24003baa:	e000      	b.n	24003bae <HAL_RCCEx_PeriphCLKConfig+0xfd6>
24003bac:	bf00      	nop
24003bae:	f897 3127 	ldrb.w	r3, [r7, #295]	@ 0x127
24003bb2:	2b00      	cmp	r3, #0
24003bb4:	d10b      	bne.n	24003bce <HAL_RCCEx_PeriphCLKConfig+0xff6>
24003bb6:	4b26      	ldr	r3, [pc, #152]	@ (24003c50 <HAL_RCCEx_PeriphCLKConfig+0x1078>)
24003bb8:	6d5b      	ldr	r3, [r3, #84]	@ 0x54
24003bba:	f423 1140 	bic.w	r1, r3, #3145728	@ 0x300000
24003bbe:	f8d7 3114 	ldr.w	r3, [r7, #276]	@ 0x114
24003bc2:	f8d3 3088 	ldr.w	r3, [r3, #136]	@ 0x88
24003bc6:	4a22      	ldr	r2, [pc, #136]	@ (24003c50 <HAL_RCCEx_PeriphCLKConfig+0x1078>)
24003bc8:	430b      	orrs	r3, r1
24003bca:	6553      	str	r3, [r2, #84]	@ 0x54
24003bcc:	e003      	b.n	24003bd6 <HAL_RCCEx_PeriphCLKConfig+0xffe>
24003bce:	f897 3127 	ldrb.w	r3, [r7, #295]	@ 0x127
24003bd2:	f887 3126 	strb.w	r3, [r7, #294]	@ 0x126
24003bd6:	f8d7 3114 	ldr.w	r3, [r7, #276]	@ 0x114
24003bda:	e9d3 2300 	ldrd	r2, r3, [r3]
24003bde:	f402 3380 	and.w	r3, r2, #65536	@ 0x10000
24003be2:	673b      	str	r3, [r7, #112]	@ 0x70
24003be4:	2300      	movs	r3, #0
24003be6:	677b      	str	r3, [r7, #116]	@ 0x74
24003be8:	e9d7 121c 	ldrd	r1, r2, [r7, #112]	@ 0x70
24003bec:	460b      	mov	r3, r1
24003bee:	4313      	orrs	r3, r2
24003bf0:	d034      	beq.n	24003c5c <HAL_RCCEx_PeriphCLKConfig+0x1084>
24003bf2:	f8d7 3114 	ldr.w	r3, [r7, #276]	@ 0x114
24003bf6:	6d1b      	ldr	r3, [r3, #80]	@ 0x50
24003bf8:	2b00      	cmp	r3, #0
24003bfa:	d003      	beq.n	24003c04 <HAL_RCCEx_PeriphCLKConfig+0x102c>
24003bfc:	f5b3 3f80 	cmp.w	r3, #65536	@ 0x10000
24003c00:	d007      	beq.n	24003c12 <HAL_RCCEx_PeriphCLKConfig+0x103a>
24003c02:	e011      	b.n	24003c28 <HAL_RCCEx_PeriphCLKConfig+0x1050>
24003c04:	4b12      	ldr	r3, [pc, #72]	@ (24003c50 <HAL_RCCEx_PeriphCLKConfig+0x1078>)
24003c06:	6adb      	ldr	r3, [r3, #44]	@ 0x2c
24003c08:	4a11      	ldr	r2, [pc, #68]	@ (24003c50 <HAL_RCCEx_PeriphCLKConfig+0x1078>)
24003c0a:	f443 3300 	orr.w	r3, r3, #131072	@ 0x20000
24003c0e:	62d3      	str	r3, [r2, #44]	@ 0x2c
24003c10:	e00e      	b.n	24003c30 <HAL_RCCEx_PeriphCLKConfig+0x1058>
24003c12:	f8d7 3114 	ldr.w	r3, [r7, #276]	@ 0x114
24003c16:	3308      	adds	r3, #8
24003c18:	2102      	movs	r1, #2
24003c1a:	4618      	mov	r0, r3
24003c1c:	f000 f9e6 	bl	24003fec <RCCEx_PLL2_Config>
24003c20:	4603      	mov	r3, r0
24003c22:	f887 3127 	strb.w	r3, [r7, #295]	@ 0x127
24003c26:	e003      	b.n	24003c30 <HAL_RCCEx_PeriphCLKConfig+0x1058>
24003c28:	2301      	movs	r3, #1
24003c2a:	f887 3127 	strb.w	r3, [r7, #295]	@ 0x127
24003c2e:	bf00      	nop
24003c30:	f897 3127 	ldrb.w	r3, [r7, #295]	@ 0x127
24003c34:	2b00      	cmp	r3, #0
24003c36:	d10d      	bne.n	24003c54 <HAL_RCCEx_PeriphCLKConfig+0x107c>
24003c38:	4b05      	ldr	r3, [pc, #20]	@ (24003c50 <HAL_RCCEx_PeriphCLKConfig+0x1078>)
24003c3a:	6cdb      	ldr	r3, [r3, #76]	@ 0x4c
24003c3c:	f423 3180 	bic.w	r1, r3, #65536	@ 0x10000
24003c40:	f8d7 3114 	ldr.w	r3, [r7, #276]	@ 0x114
24003c44:	6d1b      	ldr	r3, [r3, #80]	@ 0x50
24003c46:	4a02      	ldr	r2, [pc, #8]	@ (24003c50 <HAL_RCCEx_PeriphCLKConfig+0x1078>)
24003c48:	430b      	orrs	r3, r1
24003c4a:	64d3      	str	r3, [r2, #76]	@ 0x4c
24003c4c:	e006      	b.n	24003c5c <HAL_RCCEx_PeriphCLKConfig+0x1084>
24003c4e:	bf00      	nop
24003c50:	58024400 	.word	0x58024400
24003c54:	f897 3127 	ldrb.w	r3, [r7, #295]	@ 0x127
24003c58:	f887 3126 	strb.w	r3, [r7, #294]	@ 0x126
24003c5c:	f8d7 3114 	ldr.w	r3, [r7, #276]	@ 0x114
24003c60:	e9d3 2300 	ldrd	r2, r3, [r3]
24003c64:	f002 5300 	and.w	r3, r2, #536870912	@ 0x20000000
24003c68:	66bb      	str	r3, [r7, #104]	@ 0x68
24003c6a:	2300      	movs	r3, #0
24003c6c:	66fb      	str	r3, [r7, #108]	@ 0x6c
24003c6e:	e9d7 121a 	ldrd	r1, r2, [r7, #104]	@ 0x68
24003c72:	460b      	mov	r3, r1
24003c74:	4313      	orrs	r3, r2
24003c76:	d00c      	beq.n	24003c92 <HAL_RCCEx_PeriphCLKConfig+0x10ba>
24003c78:	f8d7 3114 	ldr.w	r3, [r7, #276]	@ 0x114
24003c7c:	3328      	adds	r3, #40	@ 0x28
24003c7e:	2102      	movs	r1, #2
24003c80:	4618      	mov	r0, r3
24003c82:	f000 fa65 	bl	24004150 <RCCEx_PLL3_Config>
24003c86:	4603      	mov	r3, r0
24003c88:	2b00      	cmp	r3, #0
24003c8a:	d002      	beq.n	24003c92 <HAL_RCCEx_PeriphCLKConfig+0x10ba>
24003c8c:	2301      	movs	r3, #1
24003c8e:	f887 3126 	strb.w	r3, [r7, #294]	@ 0x126
24003c92:	f8d7 3114 	ldr.w	r3, [r7, #276]	@ 0x114
24003c96:	e9d3 2300 	ldrd	r2, r3, [r3]
24003c9a:	f402 3300 	and.w	r3, r2, #131072	@ 0x20000
24003c9e:	663b      	str	r3, [r7, #96]	@ 0x60
24003ca0:	2300      	movs	r3, #0
24003ca2:	667b      	str	r3, [r7, #100]	@ 0x64
24003ca4:	e9d7 1218 	ldrd	r1, r2, [r7, #96]	@ 0x60
24003ca8:	460b      	mov	r3, r1
24003caa:	4313      	orrs	r3, r2
24003cac:	d038      	beq.n	24003d20 <HAL_RCCEx_PeriphCLKConfig+0x1148>
24003cae:	f8d7 3114 	ldr.w	r3, [r7, #276]	@ 0x114
24003cb2:	f8d3 3080 	ldr.w	r3, [r3, #128]	@ 0x80
24003cb6:	f5b3 7f40 	cmp.w	r3, #768	@ 0x300
24003cba:	d018      	beq.n	24003cee <HAL_RCCEx_PeriphCLKConfig+0x1116>
24003cbc:	f5b3 7f40 	cmp.w	r3, #768	@ 0x300
24003cc0:	d811      	bhi.n	24003ce6 <HAL_RCCEx_PeriphCLKConfig+0x110e>
24003cc2:	f5b3 7f00 	cmp.w	r3, #512	@ 0x200
24003cc6:	d014      	beq.n	24003cf2 <HAL_RCCEx_PeriphCLKConfig+0x111a>
24003cc8:	f5b3 7f00 	cmp.w	r3, #512	@ 0x200
24003ccc:	d80b      	bhi.n	24003ce6 <HAL_RCCEx_PeriphCLKConfig+0x110e>
24003cce:	2b00      	cmp	r3, #0
24003cd0:	d011      	beq.n	24003cf6 <HAL_RCCEx_PeriphCLKConfig+0x111e>
24003cd2:	f5b3 7f80 	cmp.w	r3, #256	@ 0x100
24003cd6:	d106      	bne.n	24003ce6 <HAL_RCCEx_PeriphCLKConfig+0x110e>
24003cd8:	4bc3      	ldr	r3, [pc, #780]	@ (24003fe8 <HAL_RCCEx_PeriphCLKConfig+0x1410>)
24003cda:	6adb      	ldr	r3, [r3, #44]	@ 0x2c
24003cdc:	4ac2      	ldr	r2, [pc, #776]	@ (24003fe8 <HAL_RCCEx_PeriphCLKConfig+0x1410>)
24003cde:	f443 3300 	orr.w	r3, r3, #131072	@ 0x20000
24003ce2:	62d3      	str	r3, [r2, #44]	@ 0x2c
24003ce4:	e008      	b.n	24003cf8 <HAL_RCCEx_PeriphCLKConfig+0x1120>
24003ce6:	2301      	movs	r3, #1
24003ce8:	f887 3127 	strb.w	r3, [r7, #295]	@ 0x127
24003cec:	e004      	b.n	24003cf8 <HAL_RCCEx_PeriphCLKConfig+0x1120>
24003cee:	bf00      	nop
24003cf0:	e002      	b.n	24003cf8 <HAL_RCCEx_PeriphCLKConfig+0x1120>
24003cf2:	bf00      	nop
24003cf4:	e000      	b.n	24003cf8 <HAL_RCCEx_PeriphCLKConfig+0x1120>
24003cf6:	bf00      	nop
24003cf8:	f897 3127 	ldrb.w	r3, [r7, #295]	@ 0x127
24003cfc:	2b00      	cmp	r3, #0
24003cfe:	d10b      	bne.n	24003d18 <HAL_RCCEx_PeriphCLKConfig+0x1140>
24003d00:	4bb9      	ldr	r3, [pc, #740]	@ (24003fe8 <HAL_RCCEx_PeriphCLKConfig+0x1410>)
24003d02:	6d5b      	ldr	r3, [r3, #84]	@ 0x54
24003d04:	f423 7140 	bic.w	r1, r3, #768	@ 0x300
24003d08:	f8d7 3114 	ldr.w	r3, [r7, #276]	@ 0x114
24003d0c:	f8d3 3080 	ldr.w	r3, [r3, #128]	@ 0x80
24003d10:	4ab5      	ldr	r2, [pc, #724]	@ (24003fe8 <HAL_RCCEx_PeriphCLKConfig+0x1410>)
24003d12:	430b      	orrs	r3, r1
24003d14:	6553      	str	r3, [r2, #84]	@ 0x54
24003d16:	e003      	b.n	24003d20 <HAL_RCCEx_PeriphCLKConfig+0x1148>
24003d18:	f897 3127 	ldrb.w	r3, [r7, #295]	@ 0x127
24003d1c:	f887 3126 	strb.w	r3, [r7, #294]	@ 0x126
24003d20:	f8d7 3114 	ldr.w	r3, [r7, #276]	@ 0x114
24003d24:	e9d3 2300 	ldrd	r2, r3, [r3]
24003d28:	f402 1380 	and.w	r3, r2, #1048576	@ 0x100000
24003d2c:	65bb      	str	r3, [r7, #88]	@ 0x58
24003d2e:	2300      	movs	r3, #0
24003d30:	65fb      	str	r3, [r7, #92]	@ 0x5c
24003d32:	e9d7 1216 	ldrd	r1, r2, [r7, #88]	@ 0x58
24003d36:	460b      	mov	r3, r1
24003d38:	4313      	orrs	r3, r2
24003d3a:	d009      	beq.n	24003d50 <HAL_RCCEx_PeriphCLKConfig+0x1178>
24003d3c:	4baa      	ldr	r3, [pc, #680]	@ (24003fe8 <HAL_RCCEx_PeriphCLKConfig+0x1410>)
24003d3e:	6d1b      	ldr	r3, [r3, #80]	@ 0x50
24003d40:	f023 4100 	bic.w	r1, r3, #2147483648	@ 0x80000000
24003d44:	f8d7 3114 	ldr.w	r3, [r7, #276]	@ 0x114
24003d48:	6f5b      	ldr	r3, [r3, #116]	@ 0x74
24003d4a:	4aa7      	ldr	r2, [pc, #668]	@ (24003fe8 <HAL_RCCEx_PeriphCLKConfig+0x1410>)
24003d4c:	430b      	orrs	r3, r1
24003d4e:	6513      	str	r3, [r2, #80]	@ 0x50
24003d50:	f8d7 3114 	ldr.w	r3, [r7, #276]	@ 0x114
24003d54:	e9d3 2300 	ldrd	r2, r3, [r3]
24003d58:	f002 5380 	and.w	r3, r2, #268435456	@ 0x10000000
24003d5c:	653b      	str	r3, [r7, #80]	@ 0x50
24003d5e:	2300      	movs	r3, #0
24003d60:	657b      	str	r3, [r7, #84]	@ 0x54
24003d62:	e9d7 1214 	ldrd	r1, r2, [r7, #80]	@ 0x50
24003d66:	460b      	mov	r3, r1
24003d68:	4313      	orrs	r3, r2
24003d6a:	d00a      	beq.n	24003d82 <HAL_RCCEx_PeriphCLKConfig+0x11aa>
24003d6c:	4b9e      	ldr	r3, [pc, #632]	@ (24003fe8 <HAL_RCCEx_PeriphCLKConfig+0x1410>)
24003d6e:	691b      	ldr	r3, [r3, #16]
24003d70:	f423 4180 	bic.w	r1, r3, #16384	@ 0x4000
24003d74:	f8d7 3114 	ldr.w	r3, [r7, #276]	@ 0x114
24003d78:	f8d3 30b8 	ldr.w	r3, [r3, #184]	@ 0xb8
24003d7c:	4a9a      	ldr	r2, [pc, #616]	@ (24003fe8 <HAL_RCCEx_PeriphCLKConfig+0x1410>)
24003d7e:	430b      	orrs	r3, r1
24003d80:	6113      	str	r3, [r2, #16]
24003d82:	f8d7 3114 	ldr.w	r3, [r7, #276]	@ 0x114
24003d86:	e9d3 2300 	ldrd	r2, r3, [r3]
24003d8a:	f402 1300 	and.w	r3, r2, #2097152	@ 0x200000
24003d8e:	64bb      	str	r3, [r7, #72]	@ 0x48
24003d90:	2300      	movs	r3, #0
24003d92:	64fb      	str	r3, [r7, #76]	@ 0x4c
24003d94:	e9d7 1212 	ldrd	r1, r2, [r7, #72]	@ 0x48
24003d98:	460b      	mov	r3, r1
24003d9a:	4313      	orrs	r3, r2
24003d9c:	d009      	beq.n	24003db2 <HAL_RCCEx_PeriphCLKConfig+0x11da>
24003d9e:	4b92      	ldr	r3, [pc, #584]	@ (24003fe8 <HAL_RCCEx_PeriphCLKConfig+0x1410>)
24003da0:	6d1b      	ldr	r3, [r3, #80]	@ 0x50
24003da2:	f023 7180 	bic.w	r1, r3, #16777216	@ 0x1000000
24003da6:	f8d7 3114 	ldr.w	r3, [r7, #276]	@ 0x114
24003daa:	6edb      	ldr	r3, [r3, #108]	@ 0x6c
24003dac:	4a8e      	ldr	r2, [pc, #568]	@ (24003fe8 <HAL_RCCEx_PeriphCLKConfig+0x1410>)
24003dae:	430b      	orrs	r3, r1
24003db0:	6513      	str	r3, [r2, #80]	@ 0x50
24003db2:	f8d7 3114 	ldr.w	r3, [r7, #276]	@ 0x114
24003db6:	e9d3 2300 	ldrd	r2, r3, [r3]
24003dba:	f002 4380 	and.w	r3, r2, #1073741824	@ 0x40000000
24003dbe:	643b      	str	r3, [r7, #64]	@ 0x40
24003dc0:	2300      	movs	r3, #0
24003dc2:	647b      	str	r3, [r7, #68]	@ 0x44
24003dc4:	e9d7 1210 	ldrd	r1, r2, [r7, #64]	@ 0x40
24003dc8:	460b      	mov	r3, r1
24003dca:	4313      	orrs	r3, r2
24003dcc:	d00e      	beq.n	24003dec <HAL_RCCEx_PeriphCLKConfig+0x1214>
24003dce:	4b86      	ldr	r3, [pc, #536]	@ (24003fe8 <HAL_RCCEx_PeriphCLKConfig+0x1410>)
24003dd0:	691b      	ldr	r3, [r3, #16]
24003dd2:	4a85      	ldr	r2, [pc, #532]	@ (24003fe8 <HAL_RCCEx_PeriphCLKConfig+0x1410>)
24003dd4:	f423 4300 	bic.w	r3, r3, #32768	@ 0x8000
24003dd8:	6113      	str	r3, [r2, #16]
24003dda:	4b83      	ldr	r3, [pc, #524]	@ (24003fe8 <HAL_RCCEx_PeriphCLKConfig+0x1410>)
24003ddc:	6919      	ldr	r1, [r3, #16]
24003dde:	f8d7 3114 	ldr.w	r3, [r7, #276]	@ 0x114
24003de2:	f8d3 30bc 	ldr.w	r3, [r3, #188]	@ 0xbc
24003de6:	4a80      	ldr	r2, [pc, #512]	@ (24003fe8 <HAL_RCCEx_PeriphCLKConfig+0x1410>)
24003de8:	430b      	orrs	r3, r1
24003dea:	6113      	str	r3, [r2, #16]
24003dec:	f8d7 3114 	ldr.w	r3, [r7, #276]	@ 0x114
24003df0:	e9d3 2300 	ldrd	r2, r3, [r3]
24003df4:	f002 4300 	and.w	r3, r2, #2147483648	@ 0x80000000
24003df8:	63bb      	str	r3, [r7, #56]	@ 0x38
24003dfa:	2300      	movs	r3, #0
24003dfc:	63fb      	str	r3, [r7, #60]	@ 0x3c
24003dfe:	e9d7 120e 	ldrd	r1, r2, [r7, #56]	@ 0x38
24003e02:	460b      	mov	r3, r1
24003e04:	4313      	orrs	r3, r2
24003e06:	d009      	beq.n	24003e1c <HAL_RCCEx_PeriphCLKConfig+0x1244>
24003e08:	4b77      	ldr	r3, [pc, #476]	@ (24003fe8 <HAL_RCCEx_PeriphCLKConfig+0x1410>)
24003e0a:	6cdb      	ldr	r3, [r3, #76]	@ 0x4c
24003e0c:	f023 5140 	bic.w	r1, r3, #805306368	@ 0x30000000
24003e10:	f8d7 3114 	ldr.w	r3, [r7, #276]	@ 0x114
24003e14:	6d5b      	ldr	r3, [r3, #84]	@ 0x54
24003e16:	4a74      	ldr	r2, [pc, #464]	@ (24003fe8 <HAL_RCCEx_PeriphCLKConfig+0x1410>)
24003e18:	430b      	orrs	r3, r1
24003e1a:	64d3      	str	r3, [r2, #76]	@ 0x4c
24003e1c:	f8d7 3114 	ldr.w	r3, [r7, #276]	@ 0x114
24003e20:	e9d3 2300 	ldrd	r2, r3, [r3]
24003e24:	f402 0300 	and.w	r3, r2, #8388608	@ 0x800000
24003e28:	633b      	str	r3, [r7, #48]	@ 0x30
24003e2a:	2300      	movs	r3, #0
24003e2c:	637b      	str	r3, [r7, #52]	@ 0x34
24003e2e:	e9d7 120c 	ldrd	r1, r2, [r7, #48]	@ 0x30
24003e32:	460b      	mov	r3, r1
24003e34:	4313      	orrs	r3, r2
24003e36:	d00a      	beq.n	24003e4e <HAL_RCCEx_PeriphCLKConfig+0x1276>
24003e38:	4b6b      	ldr	r3, [pc, #428]	@ (24003fe8 <HAL_RCCEx_PeriphCLKConfig+0x1410>)
24003e3a:	6d5b      	ldr	r3, [r3, #84]	@ 0x54
24003e3c:	f423 0140 	bic.w	r1, r3, #12582912	@ 0xc00000
24003e40:	f8d7 3114 	ldr.w	r3, [r7, #276]	@ 0x114
24003e44:	f8d3 308c 	ldr.w	r3, [r3, #140]	@ 0x8c
24003e48:	4a67      	ldr	r2, [pc, #412]	@ (24003fe8 <HAL_RCCEx_PeriphCLKConfig+0x1410>)
24003e4a:	430b      	orrs	r3, r1
24003e4c:	6553      	str	r3, [r2, #84]	@ 0x54
24003e4e:	f8d7 3114 	ldr.w	r3, [r7, #276]	@ 0x114
24003e52:	e9d3 2300 	ldrd	r2, r3, [r3]
24003e56:	2100      	movs	r1, #0
24003e58:	62b9      	str	r1, [r7, #40]	@ 0x28
24003e5a:	f003 0301 	and.w	r3, r3, #1
24003e5e:	62fb      	str	r3, [r7, #44]	@ 0x2c
24003e60:	e9d7 120a 	ldrd	r1, r2, [r7, #40]	@ 0x28
24003e64:	460b      	mov	r3, r1
24003e66:	4313      	orrs	r3, r2
24003e68:	d011      	beq.n	24003e8e <HAL_RCCEx_PeriphCLKConfig+0x12b6>
24003e6a:	f8d7 3114 	ldr.w	r3, [r7, #276]	@ 0x114
24003e6e:	3308      	adds	r3, #8
24003e70:	2100      	movs	r1, #0
24003e72:	4618      	mov	r0, r3
24003e74:	f000 f8ba 	bl	24003fec <RCCEx_PLL2_Config>
24003e78:	4603      	mov	r3, r0
24003e7a:	f887 3127 	strb.w	r3, [r7, #295]	@ 0x127
24003e7e:	f897 3127 	ldrb.w	r3, [r7, #295]	@ 0x127
24003e82:	2b00      	cmp	r3, #0
24003e84:	d003      	beq.n	24003e8e <HAL_RCCEx_PeriphCLKConfig+0x12b6>
24003e86:	f897 3127 	ldrb.w	r3, [r7, #295]	@ 0x127
24003e8a:	f887 3126 	strb.w	r3, [r7, #294]	@ 0x126
24003e8e:	f8d7 3114 	ldr.w	r3, [r7, #276]	@ 0x114
24003e92:	e9d3 2300 	ldrd	r2, r3, [r3]
24003e96:	2100      	movs	r1, #0
24003e98:	6239      	str	r1, [r7, #32]
24003e9a:	f003 0302 	and.w	r3, r3, #2
24003e9e:	627b      	str	r3, [r7, #36]	@ 0x24
24003ea0:	e9d7 1208 	ldrd	r1, r2, [r7, #32]
24003ea4:	460b      	mov	r3, r1
24003ea6:	4313      	orrs	r3, r2
24003ea8:	d011      	beq.n	24003ece <HAL_RCCEx_PeriphCLKConfig+0x12f6>
24003eaa:	f8d7 3114 	ldr.w	r3, [r7, #276]	@ 0x114
24003eae:	3308      	adds	r3, #8
24003eb0:	2101      	movs	r1, #1
24003eb2:	4618      	mov	r0, r3
24003eb4:	f000 f89a 	bl	24003fec <RCCEx_PLL2_Config>
24003eb8:	4603      	mov	r3, r0
24003eba:	f887 3127 	strb.w	r3, [r7, #295]	@ 0x127
24003ebe:	f897 3127 	ldrb.w	r3, [r7, #295]	@ 0x127
24003ec2:	2b00      	cmp	r3, #0
24003ec4:	d003      	beq.n	24003ece <HAL_RCCEx_PeriphCLKConfig+0x12f6>
24003ec6:	f897 3127 	ldrb.w	r3, [r7, #295]	@ 0x127
24003eca:	f887 3126 	strb.w	r3, [r7, #294]	@ 0x126
24003ece:	f8d7 3114 	ldr.w	r3, [r7, #276]	@ 0x114
24003ed2:	e9d3 2300 	ldrd	r2, r3, [r3]
24003ed6:	2100      	movs	r1, #0
24003ed8:	61b9      	str	r1, [r7, #24]
24003eda:	f003 0304 	and.w	r3, r3, #4
24003ede:	61fb      	str	r3, [r7, #28]
24003ee0:	e9d7 1206 	ldrd	r1, r2, [r7, #24]
24003ee4:	460b      	mov	r3, r1
24003ee6:	4313      	orrs	r3, r2
24003ee8:	d011      	beq.n	24003f0e <HAL_RCCEx_PeriphCLKConfig+0x1336>
24003eea:	f8d7 3114 	ldr.w	r3, [r7, #276]	@ 0x114
24003eee:	3308      	adds	r3, #8
24003ef0:	2102      	movs	r1, #2
24003ef2:	4618      	mov	r0, r3
24003ef4:	f000 f87a 	bl	24003fec <RCCEx_PLL2_Config>
24003ef8:	4603      	mov	r3, r0
24003efa:	f887 3127 	strb.w	r3, [r7, #295]	@ 0x127
24003efe:	f897 3127 	ldrb.w	r3, [r7, #295]	@ 0x127
24003f02:	2b00      	cmp	r3, #0
24003f04:	d003      	beq.n	24003f0e <HAL_RCCEx_PeriphCLKConfig+0x1336>
24003f06:	f897 3127 	ldrb.w	r3, [r7, #295]	@ 0x127
24003f0a:	f887 3126 	strb.w	r3, [r7, #294]	@ 0x126
24003f0e:	f8d7 3114 	ldr.w	r3, [r7, #276]	@ 0x114
24003f12:	e9d3 2300 	ldrd	r2, r3, [r3]
24003f16:	2100      	movs	r1, #0
24003f18:	6139      	str	r1, [r7, #16]
24003f1a:	f003 0308 	and.w	r3, r3, #8
24003f1e:	617b      	str	r3, [r7, #20]
24003f20:	e9d7 1204 	ldrd	r1, r2, [r7, #16]
24003f24:	460b      	mov	r3, r1
24003f26:	4313      	orrs	r3, r2
24003f28:	d011      	beq.n	24003f4e <HAL_RCCEx_PeriphCLKConfig+0x1376>
24003f2a:	f8d7 3114 	ldr.w	r3, [r7, #276]	@ 0x114
24003f2e:	3328      	adds	r3, #40	@ 0x28
24003f30:	2100      	movs	r1, #0
24003f32:	4618      	mov	r0, r3
24003f34:	f000 f90c 	bl	24004150 <RCCEx_PLL3_Config>
24003f38:	4603      	mov	r3, r0
24003f3a:	f887 3127 	strb.w	r3, [r7, #295]	@ 0x127
24003f3e:	f897 3127 	ldrb.w	r3, [r7, #295]	@ 0x127
24003f42:	2b00      	cmp	r3, #0
24003f44:	d003      	beq.n	24003f4e <HAL_RCCEx_PeriphCLKConfig+0x1376>
24003f46:	f897 3127 	ldrb.w	r3, [r7, #295]	@ 0x127
24003f4a:	f887 3126 	strb.w	r3, [r7, #294]	@ 0x126
24003f4e:	f8d7 3114 	ldr.w	r3, [r7, #276]	@ 0x114
24003f52:	e9d3 2300 	ldrd	r2, r3, [r3]
24003f56:	2100      	movs	r1, #0
24003f58:	60b9      	str	r1, [r7, #8]
24003f5a:	f003 0310 	and.w	r3, r3, #16
24003f5e:	60fb      	str	r3, [r7, #12]
24003f60:	e9d7 1202 	ldrd	r1, r2, [r7, #8]
24003f64:	460b      	mov	r3, r1
24003f66:	4313      	orrs	r3, r2
24003f68:	d011      	beq.n	24003f8e <HAL_RCCEx_PeriphCLKConfig+0x13b6>
24003f6a:	f8d7 3114 	ldr.w	r3, [r7, #276]	@ 0x114
24003f6e:	3328      	adds	r3, #40	@ 0x28
24003f70:	2101      	movs	r1, #1
24003f72:	4618      	mov	r0, r3
24003f74:	f000 f8ec 	bl	24004150 <RCCEx_PLL3_Config>
24003f78:	4603      	mov	r3, r0
24003f7a:	f887 3127 	strb.w	r3, [r7, #295]	@ 0x127
24003f7e:	f897 3127 	ldrb.w	r3, [r7, #295]	@ 0x127
24003f82:	2b00      	cmp	r3, #0
24003f84:	d003      	beq.n	24003f8e <HAL_RCCEx_PeriphCLKConfig+0x13b6>
24003f86:	f897 3127 	ldrb.w	r3, [r7, #295]	@ 0x127
24003f8a:	f887 3126 	strb.w	r3, [r7, #294]	@ 0x126
24003f8e:	f8d7 3114 	ldr.w	r3, [r7, #276]	@ 0x114
24003f92:	e9d3 2300 	ldrd	r2, r3, [r3]
24003f96:	2100      	movs	r1, #0
24003f98:	6039      	str	r1, [r7, #0]
24003f9a:	f003 0320 	and.w	r3, r3, #32
24003f9e:	607b      	str	r3, [r7, #4]
24003fa0:	e9d7 1200 	ldrd	r1, r2, [r7]
24003fa4:	460b      	mov	r3, r1
24003fa6:	4313      	orrs	r3, r2
24003fa8:	d011      	beq.n	24003fce <HAL_RCCEx_PeriphCLKConfig+0x13f6>
24003faa:	f8d7 3114 	ldr.w	r3, [r7, #276]	@ 0x114
24003fae:	3328      	adds	r3, #40	@ 0x28
24003fb0:	2102      	movs	r1, #2
24003fb2:	4618      	mov	r0, r3
24003fb4:	f000 f8cc 	bl	24004150 <RCCEx_PLL3_Config>
24003fb8:	4603      	mov	r3, r0
24003fba:	f887 3127 	strb.w	r3, [r7, #295]	@ 0x127
24003fbe:	f897 3127 	ldrb.w	r3, [r7, #295]	@ 0x127
24003fc2:	2b00      	cmp	r3, #0
24003fc4:	d003      	beq.n	24003fce <HAL_RCCEx_PeriphCLKConfig+0x13f6>
24003fc6:	f897 3127 	ldrb.w	r3, [r7, #295]	@ 0x127
24003fca:	f887 3126 	strb.w	r3, [r7, #294]	@ 0x126
24003fce:	f897 3126 	ldrb.w	r3, [r7, #294]	@ 0x126
24003fd2:	2b00      	cmp	r3, #0
24003fd4:	d101      	bne.n	24003fda <HAL_RCCEx_PeriphCLKConfig+0x1402>
24003fd6:	2300      	movs	r3, #0
24003fd8:	e000      	b.n	24003fdc <HAL_RCCEx_PeriphCLKConfig+0x1404>
24003fda:	2301      	movs	r3, #1
24003fdc:	4618      	mov	r0, r3
24003fde:	f507 7794 	add.w	r7, r7, #296	@ 0x128
24003fe2:	46bd      	mov	sp, r7
24003fe4:	e8bd 8fb0 	ldmia.w	sp!, {r4, r5, r7, r8, r9, sl, fp, pc}
24003fe8:	58024400 	.word	0x58024400

24003fec <RCCEx_PLL2_Config>:
24003fec:	b580      	push	{r7, lr}
24003fee:	b084      	sub	sp, #16
24003ff0:	af00      	add	r7, sp, #0
24003ff2:	6078      	str	r0, [r7, #4]
24003ff4:	6039      	str	r1, [r7, #0]
24003ff6:	2300      	movs	r3, #0
24003ff8:	73fb      	strb	r3, [r7, #15]
24003ffa:	4b53      	ldr	r3, [pc, #332]	@ (24004148 <RCCEx_PLL2_Config+0x15c>)
24003ffc:	6a9b      	ldr	r3, [r3, #40]	@ 0x28
24003ffe:	f003 0303 	and.w	r3, r3, #3
24004002:	2b03      	cmp	r3, #3
24004004:	d101      	bne.n	2400400a <RCCEx_PLL2_Config+0x1e>
24004006:	2301      	movs	r3, #1
24004008:	e099      	b.n	2400413e <RCCEx_PLL2_Config+0x152>
2400400a:	4b4f      	ldr	r3, [pc, #316]	@ (24004148 <RCCEx_PLL2_Config+0x15c>)
2400400c:	681b      	ldr	r3, [r3, #0]
2400400e:	4a4e      	ldr	r2, [pc, #312]	@ (24004148 <RCCEx_PLL2_Config+0x15c>)
24004010:	f023 6380 	bic.w	r3, r3, #67108864	@ 0x4000000
24004014:	6013      	str	r3, [r2, #0]
24004016:	f7fc fb6b 	bl	240006f0 <HAL_GetTick>
2400401a:	60b8      	str	r0, [r7, #8]
2400401c:	e008      	b.n	24004030 <RCCEx_PLL2_Config+0x44>
2400401e:	f7fc fb67 	bl	240006f0 <HAL_GetTick>
24004022:	4602      	mov	r2, r0
24004024:	68bb      	ldr	r3, [r7, #8]
24004026:	1ad3      	subs	r3, r2, r3
24004028:	2b02      	cmp	r3, #2
2400402a:	d901      	bls.n	24004030 <RCCEx_PLL2_Config+0x44>
2400402c:	2303      	movs	r3, #3
2400402e:	e086      	b.n	2400413e <RCCEx_PLL2_Config+0x152>
24004030:	4b45      	ldr	r3, [pc, #276]	@ (24004148 <RCCEx_PLL2_Config+0x15c>)
24004032:	681b      	ldr	r3, [r3, #0]
24004034:	f003 6300 	and.w	r3, r3, #134217728	@ 0x8000000
24004038:	2b00      	cmp	r3, #0
2400403a:	d1f0      	bne.n	2400401e <RCCEx_PLL2_Config+0x32>
2400403c:	4b42      	ldr	r3, [pc, #264]	@ (24004148 <RCCEx_PLL2_Config+0x15c>)
2400403e:	6a9b      	ldr	r3, [r3, #40]	@ 0x28
24004040:	f423 327c 	bic.w	r2, r3, #258048	@ 0x3f000
24004044:	687b      	ldr	r3, [r7, #4]
24004046:	681b      	ldr	r3, [r3, #0]
24004048:	031b      	lsls	r3, r3, #12
2400404a:	493f      	ldr	r1, [pc, #252]	@ (24004148 <RCCEx_PLL2_Config+0x15c>)
2400404c:	4313      	orrs	r3, r2
2400404e:	628b      	str	r3, [r1, #40]	@ 0x28
24004050:	687b      	ldr	r3, [r7, #4]
24004052:	685b      	ldr	r3, [r3, #4]
24004054:	3b01      	subs	r3, #1
24004056:	f3c3 0208 	ubfx	r2, r3, #0, #9
2400405a:	687b      	ldr	r3, [r7, #4]
2400405c:	689b      	ldr	r3, [r3, #8]
2400405e:	3b01      	subs	r3, #1
24004060:	025b      	lsls	r3, r3, #9
24004062:	b29b      	uxth	r3, r3
24004064:	431a      	orrs	r2, r3
24004066:	687b      	ldr	r3, [r7, #4]
24004068:	68db      	ldr	r3, [r3, #12]
2400406a:	3b01      	subs	r3, #1
2400406c:	041b      	lsls	r3, r3, #16
2400406e:	f403 03fe 	and.w	r3, r3, #8323072	@ 0x7f0000
24004072:	431a      	orrs	r2, r3
24004074:	687b      	ldr	r3, [r7, #4]
24004076:	691b      	ldr	r3, [r3, #16]
24004078:	3b01      	subs	r3, #1
2400407a:	061b      	lsls	r3, r3, #24
2400407c:	f003 43fe 	and.w	r3, r3, #2130706432	@ 0x7f000000
24004080:	4931      	ldr	r1, [pc, #196]	@ (24004148 <RCCEx_PLL2_Config+0x15c>)
24004082:	4313      	orrs	r3, r2
24004084:	638b      	str	r3, [r1, #56]	@ 0x38
24004086:	4b30      	ldr	r3, [pc, #192]	@ (24004148 <RCCEx_PLL2_Config+0x15c>)
24004088:	6adb      	ldr	r3, [r3, #44]	@ 0x2c
2400408a:	f023 02c0 	bic.w	r2, r3, #192	@ 0xc0
2400408e:	687b      	ldr	r3, [r7, #4]
24004090:	695b      	ldr	r3, [r3, #20]
24004092:	492d      	ldr	r1, [pc, #180]	@ (24004148 <RCCEx_PLL2_Config+0x15c>)
24004094:	4313      	orrs	r3, r2
24004096:	62cb      	str	r3, [r1, #44]	@ 0x2c
24004098:	4b2b      	ldr	r3, [pc, #172]	@ (24004148 <RCCEx_PLL2_Config+0x15c>)
2400409a:	6adb      	ldr	r3, [r3, #44]	@ 0x2c
2400409c:	f023 0220 	bic.w	r2, r3, #32
240040a0:	687b      	ldr	r3, [r7, #4]
240040a2:	699b      	ldr	r3, [r3, #24]
240040a4:	4928      	ldr	r1, [pc, #160]	@ (24004148 <RCCEx_PLL2_Config+0x15c>)
240040a6:	4313      	orrs	r3, r2
240040a8:	62cb      	str	r3, [r1, #44]	@ 0x2c
240040aa:	4b27      	ldr	r3, [pc, #156]	@ (24004148 <RCCEx_PLL2_Config+0x15c>)
240040ac:	6adb      	ldr	r3, [r3, #44]	@ 0x2c
240040ae:	4a26      	ldr	r2, [pc, #152]	@ (24004148 <RCCEx_PLL2_Config+0x15c>)
240040b0:	f023 0310 	bic.w	r3, r3, #16
240040b4:	62d3      	str	r3, [r2, #44]	@ 0x2c
240040b6:	4b24      	ldr	r3, [pc, #144]	@ (24004148 <RCCEx_PLL2_Config+0x15c>)
240040b8:	6bda      	ldr	r2, [r3, #60]	@ 0x3c
240040ba:	4b24      	ldr	r3, [pc, #144]	@ (2400414c <RCCEx_PLL2_Config+0x160>)
240040bc:	4013      	ands	r3, r2
240040be:	687a      	ldr	r2, [r7, #4]
240040c0:	69d2      	ldr	r2, [r2, #28]
240040c2:	00d2      	lsls	r2, r2, #3
240040c4:	4920      	ldr	r1, [pc, #128]	@ (24004148 <RCCEx_PLL2_Config+0x15c>)
240040c6:	4313      	orrs	r3, r2
240040c8:	63cb      	str	r3, [r1, #60]	@ 0x3c
240040ca:	4b1f      	ldr	r3, [pc, #124]	@ (24004148 <RCCEx_PLL2_Config+0x15c>)
240040cc:	6adb      	ldr	r3, [r3, #44]	@ 0x2c
240040ce:	4a1e      	ldr	r2, [pc, #120]	@ (24004148 <RCCEx_PLL2_Config+0x15c>)
240040d0:	f043 0310 	orr.w	r3, r3, #16
240040d4:	62d3      	str	r3, [r2, #44]	@ 0x2c
240040d6:	683b      	ldr	r3, [r7, #0]
240040d8:	2b00      	cmp	r3, #0
240040da:	d106      	bne.n	240040ea <RCCEx_PLL2_Config+0xfe>
240040dc:	4b1a      	ldr	r3, [pc, #104]	@ (24004148 <RCCEx_PLL2_Config+0x15c>)
240040de:	6adb      	ldr	r3, [r3, #44]	@ 0x2c
240040e0:	4a19      	ldr	r2, [pc, #100]	@ (24004148 <RCCEx_PLL2_Config+0x15c>)
240040e2:	f443 2300 	orr.w	r3, r3, #524288	@ 0x80000
240040e6:	62d3      	str	r3, [r2, #44]	@ 0x2c
240040e8:	e00f      	b.n	2400410a <RCCEx_PLL2_Config+0x11e>
240040ea:	683b      	ldr	r3, [r7, #0]
240040ec:	2b01      	cmp	r3, #1
240040ee:	d106      	bne.n	240040fe <RCCEx_PLL2_Config+0x112>
240040f0:	4b15      	ldr	r3, [pc, #84]	@ (24004148 <RCCEx_PLL2_Config+0x15c>)
240040f2:	6adb      	ldr	r3, [r3, #44]	@ 0x2c
240040f4:	4a14      	ldr	r2, [pc, #80]	@ (24004148 <RCCEx_PLL2_Config+0x15c>)
240040f6:	f443 1380 	orr.w	r3, r3, #1048576	@ 0x100000
240040fa:	62d3      	str	r3, [r2, #44]	@ 0x2c
240040fc:	e005      	b.n	2400410a <RCCEx_PLL2_Config+0x11e>
240040fe:	4b12      	ldr	r3, [pc, #72]	@ (24004148 <RCCEx_PLL2_Config+0x15c>)
24004100:	6adb      	ldr	r3, [r3, #44]	@ 0x2c
24004102:	4a11      	ldr	r2, [pc, #68]	@ (24004148 <RCCEx_PLL2_Config+0x15c>)
24004104:	f443 1300 	orr.w	r3, r3, #2097152	@ 0x200000
24004108:	62d3      	str	r3, [r2, #44]	@ 0x2c
2400410a:	4b0f      	ldr	r3, [pc, #60]	@ (24004148 <RCCEx_PLL2_Config+0x15c>)
2400410c:	681b      	ldr	r3, [r3, #0]
2400410e:	4a0e      	ldr	r2, [pc, #56]	@ (24004148 <RCCEx_PLL2_Config+0x15c>)
24004110:	f043 6380 	orr.w	r3, r3, #67108864	@ 0x4000000
24004114:	6013      	str	r3, [r2, #0]
24004116:	f7fc faeb 	bl	240006f0 <HAL_GetTick>
2400411a:	60b8      	str	r0, [r7, #8]
2400411c:	e008      	b.n	24004130 <RCCEx_PLL2_Config+0x144>
2400411e:	f7fc fae7 	bl	240006f0 <HAL_GetTick>
24004122:	4602      	mov	r2, r0
24004124:	68bb      	ldr	r3, [r7, #8]
24004126:	1ad3      	subs	r3, r2, r3
24004128:	2b02      	cmp	r3, #2
2400412a:	d901      	bls.n	24004130 <RCCEx_PLL2_Config+0x144>
2400412c:	2303      	movs	r3, #3
2400412e:	e006      	b.n	2400413e <RCCEx_PLL2_Config+0x152>
24004130:	4b05      	ldr	r3, [pc, #20]	@ (24004148 <RCCEx_PLL2_Config+0x15c>)
24004132:	681b      	ldr	r3, [r3, #0]
24004134:	f003 6300 	and.w	r3, r3, #134217728	@ 0x8000000
24004138:	2b00      	cmp	r3, #0
2400413a:	d0f0      	beq.n	2400411e <RCCEx_PLL2_Config+0x132>
2400413c:	7bfb      	ldrb	r3, [r7, #15]
2400413e:	4618      	mov	r0, r3
24004140:	3710      	adds	r7, #16
24004142:	46bd      	mov	sp, r7
24004144:	bd80      	pop	{r7, pc}
24004146:	bf00      	nop
24004148:	58024400 	.word	0x58024400
2400414c:	ffff0007 	.word	0xffff0007

24004150 <RCCEx_PLL3_Config>:
24004150:	b580      	push	{r7, lr}
24004152:	b084      	sub	sp, #16
24004154:	af00      	add	r7, sp, #0
24004156:	6078      	str	r0, [r7, #4]
24004158:	6039      	str	r1, [r7, #0]
2400415a:	2300      	movs	r3, #0
2400415c:	73fb      	strb	r3, [r7, #15]
2400415e:	4b53      	ldr	r3, [pc, #332]	@ (240042ac <RCCEx_PLL3_Config+0x15c>)
24004160:	6a9b      	ldr	r3, [r3, #40]	@ 0x28
24004162:	f003 0303 	and.w	r3, r3, #3
24004166:	2b03      	cmp	r3, #3
24004168:	d101      	bne.n	2400416e <RCCEx_PLL3_Config+0x1e>
2400416a:	2301      	movs	r3, #1
2400416c:	e099      	b.n	240042a2 <RCCEx_PLL3_Config+0x152>
2400416e:	4b4f      	ldr	r3, [pc, #316]	@ (240042ac <RCCEx_PLL3_Config+0x15c>)
24004170:	681b      	ldr	r3, [r3, #0]
24004172:	4a4e      	ldr	r2, [pc, #312]	@ (240042ac <RCCEx_PLL3_Config+0x15c>)
24004174:	f023 5380 	bic.w	r3, r3, #268435456	@ 0x10000000
24004178:	6013      	str	r3, [r2, #0]
2400417a:	f7fc fab9 	bl	240006f0 <HAL_GetTick>
2400417e:	60b8      	str	r0, [r7, #8]
24004180:	e008      	b.n	24004194 <RCCEx_PLL3_Config+0x44>
24004182:	f7fc fab5 	bl	240006f0 <HAL_GetTick>
24004186:	4602      	mov	r2, r0
24004188:	68bb      	ldr	r3, [r7, #8]
2400418a:	1ad3      	subs	r3, r2, r3
2400418c:	2b02      	cmp	r3, #2
2400418e:	d901      	bls.n	24004194 <RCCEx_PLL3_Config+0x44>
24004190:	2303      	movs	r3, #3
24004192:	e086      	b.n	240042a2 <RCCEx_PLL3_Config+0x152>
24004194:	4b45      	ldr	r3, [pc, #276]	@ (240042ac <RCCEx_PLL3_Config+0x15c>)
24004196:	681b      	ldr	r3, [r3, #0]
24004198:	f003 5300 	and.w	r3, r3, #536870912	@ 0x20000000
2400419c:	2b00      	cmp	r3, #0
2400419e:	d1f0      	bne.n	24004182 <RCCEx_PLL3_Config+0x32>
240041a0:	4b42      	ldr	r3, [pc, #264]	@ (240042ac <RCCEx_PLL3_Config+0x15c>)
240041a2:	6a9b      	ldr	r3, [r3, #40]	@ 0x28
240041a4:	f023 727c 	bic.w	r2, r3, #66060288	@ 0x3f00000
240041a8:	687b      	ldr	r3, [r7, #4]
240041aa:	681b      	ldr	r3, [r3, #0]
240041ac:	051b      	lsls	r3, r3, #20
240041ae:	493f      	ldr	r1, [pc, #252]	@ (240042ac <RCCEx_PLL3_Config+0x15c>)
240041b0:	4313      	orrs	r3, r2
240041b2:	628b      	str	r3, [r1, #40]	@ 0x28
240041b4:	687b      	ldr	r3, [r7, #4]
240041b6:	685b      	ldr	r3, [r3, #4]
240041b8:	3b01      	subs	r3, #1
240041ba:	f3c3 0208 	ubfx	r2, r3, #0, #9
240041be:	687b      	ldr	r3, [r7, #4]
240041c0:	689b      	ldr	r3, [r3, #8]
240041c2:	3b01      	subs	r3, #1
240041c4:	025b      	lsls	r3, r3, #9
240041c6:	b29b      	uxth	r3, r3
240041c8:	431a      	orrs	r2, r3
240041ca:	687b      	ldr	r3, [r7, #4]
240041cc:	68db      	ldr	r3, [r3, #12]
240041ce:	3b01      	subs	r3, #1
240041d0:	041b      	lsls	r3, r3, #16
240041d2:	f403 03fe 	and.w	r3, r3, #8323072	@ 0x7f0000
240041d6:	431a      	orrs	r2, r3
240041d8:	687b      	ldr	r3, [r7, #4]
240041da:	691b      	ldr	r3, [r3, #16]
240041dc:	3b01      	subs	r3, #1
240041de:	061b      	lsls	r3, r3, #24
240041e0:	f003 43fe 	and.w	r3, r3, #2130706432	@ 0x7f000000
240041e4:	4931      	ldr	r1, [pc, #196]	@ (240042ac <RCCEx_PLL3_Config+0x15c>)
240041e6:	4313      	orrs	r3, r2
240041e8:	640b      	str	r3, [r1, #64]	@ 0x40
240041ea:	4b30      	ldr	r3, [pc, #192]	@ (240042ac <RCCEx_PLL3_Config+0x15c>)
240041ec:	6adb      	ldr	r3, [r3, #44]	@ 0x2c
240041ee:	f423 6240 	bic.w	r2, r3, #3072	@ 0xc00
240041f2:	687b      	ldr	r3, [r7, #4]
240041f4:	695b      	ldr	r3, [r3, #20]
240041f6:	492d      	ldr	r1, [pc, #180]	@ (240042ac <RCCEx_PLL3_Config+0x15c>)
240041f8:	4313      	orrs	r3, r2
240041fa:	62cb      	str	r3, [r1, #44]	@ 0x2c
240041fc:	4b2b      	ldr	r3, [pc, #172]	@ (240042ac <RCCEx_PLL3_Config+0x15c>)
240041fe:	6adb      	ldr	r3, [r3, #44]	@ 0x2c
24004200:	f423 7200 	bic.w	r2, r3, #512	@ 0x200
24004204:	687b      	ldr	r3, [r7, #4]
24004206:	699b      	ldr	r3, [r3, #24]
24004208:	4928      	ldr	r1, [pc, #160]	@ (240042ac <RCCEx_PLL3_Config+0x15c>)
2400420a:	4313      	orrs	r3, r2
2400420c:	62cb      	str	r3, [r1, #44]	@ 0x2c
2400420e:	4b27      	ldr	r3, [pc, #156]	@ (240042ac <RCCEx_PLL3_Config+0x15c>)
24004210:	6adb      	ldr	r3, [r3, #44]	@ 0x2c
24004212:	4a26      	ldr	r2, [pc, #152]	@ (240042ac <RCCEx_PLL3_Config+0x15c>)
24004214:	f423 7380 	bic.w	r3, r3, #256	@ 0x100
24004218:	62d3      	str	r3, [r2, #44]	@ 0x2c
2400421a:	4b24      	ldr	r3, [pc, #144]	@ (240042ac <RCCEx_PLL3_Config+0x15c>)
2400421c:	6c5a      	ldr	r2, [r3, #68]	@ 0x44
2400421e:	4b24      	ldr	r3, [pc, #144]	@ (240042b0 <RCCEx_PLL3_Config+0x160>)
24004220:	4013      	ands	r3, r2
24004222:	687a      	ldr	r2, [r7, #4]
24004224:	69d2      	ldr	r2, [r2, #28]
24004226:	00d2      	lsls	r2, r2, #3
24004228:	4920      	ldr	r1, [pc, #128]	@ (240042ac <RCCEx_PLL3_Config+0x15c>)
2400422a:	4313      	orrs	r3, r2
2400422c:	644b      	str	r3, [r1, #68]	@ 0x44
2400422e:	4b1f      	ldr	r3, [pc, #124]	@ (240042ac <RCCEx_PLL3_Config+0x15c>)
24004230:	6adb      	ldr	r3, [r3, #44]	@ 0x2c
24004232:	4a1e      	ldr	r2, [pc, #120]	@ (240042ac <RCCEx_PLL3_Config+0x15c>)
24004234:	f443 7380 	orr.w	r3, r3, #256	@ 0x100
24004238:	62d3      	str	r3, [r2, #44]	@ 0x2c
2400423a:	683b      	ldr	r3, [r7, #0]
2400423c:	2b00      	cmp	r3, #0
2400423e:	d106      	bne.n	2400424e <RCCEx_PLL3_Config+0xfe>
24004240:	4b1a      	ldr	r3, [pc, #104]	@ (240042ac <RCCEx_PLL3_Config+0x15c>)
24004242:	6adb      	ldr	r3, [r3, #44]	@ 0x2c
24004244:	4a19      	ldr	r2, [pc, #100]	@ (240042ac <RCCEx_PLL3_Config+0x15c>)
24004246:	f443 0380 	orr.w	r3, r3, #4194304	@ 0x400000
2400424a:	62d3      	str	r3, [r2, #44]	@ 0x2c
2400424c:	e00f      	b.n	2400426e <RCCEx_PLL3_Config+0x11e>
2400424e:	683b      	ldr	r3, [r7, #0]
24004250:	2b01      	cmp	r3, #1
24004252:	d106      	bne.n	24004262 <RCCEx_PLL3_Config+0x112>
24004254:	4b15      	ldr	r3, [pc, #84]	@ (240042ac <RCCEx_PLL3_Config+0x15c>)
24004256:	6adb      	ldr	r3, [r3, #44]	@ 0x2c
24004258:	4a14      	ldr	r2, [pc, #80]	@ (240042ac <RCCEx_PLL3_Config+0x15c>)
2400425a:	f443 0300 	orr.w	r3, r3, #8388608	@ 0x800000
2400425e:	62d3      	str	r3, [r2, #44]	@ 0x2c
24004260:	e005      	b.n	2400426e <RCCEx_PLL3_Config+0x11e>
24004262:	4b12      	ldr	r3, [pc, #72]	@ (240042ac <RCCEx_PLL3_Config+0x15c>)
24004264:	6adb      	ldr	r3, [r3, #44]	@ 0x2c
24004266:	4a11      	ldr	r2, [pc, #68]	@ (240042ac <RCCEx_PLL3_Config+0x15c>)
24004268:	f043 7380 	orr.w	r3, r3, #16777216	@ 0x1000000
2400426c:	62d3      	str	r3, [r2, #44]	@ 0x2c
2400426e:	4b0f      	ldr	r3, [pc, #60]	@ (240042ac <RCCEx_PLL3_Config+0x15c>)
24004270:	681b      	ldr	r3, [r3, #0]
24004272:	4a0e      	ldr	r2, [pc, #56]	@ (240042ac <RCCEx_PLL3_Config+0x15c>)
24004274:	f043 5380 	orr.w	r3, r3, #268435456	@ 0x10000000
24004278:	6013      	str	r3, [r2, #0]
2400427a:	f7fc fa39 	bl	240006f0 <HAL_GetTick>
2400427e:	60b8      	str	r0, [r7, #8]
24004280:	e008      	b.n	24004294 <RCCEx_PLL3_Config+0x144>
24004282:	f7fc fa35 	bl	240006f0 <HAL_GetTick>
24004286:	4602      	mov	r2, r0
24004288:	68bb      	ldr	r3, [r7, #8]
2400428a:	1ad3      	subs	r3, r2, r3
2400428c:	2b02      	cmp	r3, #2
2400428e:	d901      	bls.n	24004294 <RCCEx_PLL3_Config+0x144>
24004290:	2303      	movs	r3, #3
24004292:	e006      	b.n	240042a2 <RCCEx_PLL3_Config+0x152>
24004294:	4b05      	ldr	r3, [pc, #20]	@ (240042ac <RCCEx_PLL3_Config+0x15c>)
24004296:	681b      	ldr	r3, [r3, #0]
24004298:	f003 5300 	and.w	r3, r3, #536870912	@ 0x20000000
2400429c:	2b00      	cmp	r3, #0
2400429e:	d0f0      	beq.n	24004282 <RCCEx_PLL3_Config+0x132>
240042a0:	7bfb      	ldrb	r3, [r7, #15]
240042a2:	4618      	mov	r0, r3
240042a4:	3710      	adds	r7, #16
240042a6:	46bd      	mov	sp, r7
240042a8:	bd80      	pop	{r7, pc}
240042aa:	bf00      	nop
240042ac:	58024400 	.word	0x58024400
240042b0:	ffff0007 	.word	0xffff0007

240042b4 <memset>:
240042b4:	4402      	add	r2, r0
240042b6:	4603      	mov	r3, r0
240042b8:	4293      	cmp	r3, r2
240042ba:	d100      	bne.n	240042be <memset+0xa>
240042bc:	4770      	bx	lr
240042be:	f803 1b01 	strb.w	r1, [r3], #1
240042c2:	e7f9      	b.n	240042b8 <memset+0x4>

240042c4 <_init>:
240042c4:	b5f8      	push	{r3, r4, r5, r6, r7, lr}
240042c6:	bf00      	nop
240042c8:	bcf8      	pop	{r3, r4, r5, r6, r7}
240042ca:	bc08      	pop	{r3}
240042cc:	469e      	mov	lr, r3
240042ce:	4770      	bx	lr

240042d0 <_fini>:
240042d0:	b5f8      	push	{r3, r4, r5, r6, r7, lr}
240042d2:	bf00      	nop
240042d4:	bcf8      	pop	{r3, r4, r5, r6, r7}
240042d6:	bc08      	pop	{r3}
240042d8:	469e      	mov	lr, r3
240042da:	4770      	bx	lr
